LX51 LINKER/LOCATER V4.66.62.0                                                          11/14/2016  16:59:38  PAGE 1


LX51 LINKER/LOCATER V4.66.62.0, INVOKED BY:
C:\KEIL_V5\C51\BIN\LX51.EXE STARTUP.obj, main.obj, .\hal_w2_isr.obj, .\hal_delay.obj TO FProject DISABLEWARNING (16)


CPU MODE:     8051 MODE
MEMORY MODEL: SMALL


INPUT MODULES INCLUDED:
  STARTUP.obj (?C_STARTUP)
         COMMENT TYPE 1: A51 / ASM51 Assembler
  main.obj (MAIN)
         COMMENT TYPE 0: C51 V9.55
  .\hal_w2_isr.obj (HAL_W2_ISR)
         COMMENT TYPE 0: C51 V9.55
  .\hal_delay.obj (HAL_DELAY)
         COMMENT TYPE 0: C51 V9.55
  C:\KEIL_V5\C51\LIB\C51S.LIB (?C_INIT)
         COMMENT TYPE 1: A51 / ASM51 Assembler
  C:\KEIL_V5\C51\LIB\C51S.LIB (?C?CLDPTR)
         COMMENT TYPE 1: A51 / ASM51 Assembler
  C:\KEIL_V5\C51\LIB\C51S.LIB (?C?CSTPTR)
         COMMENT TYPE 1: A51 / ASM51 Assembler
  C:\KEIL_V5\C51\LIB\C51S.LIB (?C?CSTOPTR)
         COMMENT TYPE 1: A51 / ASM51 Assembler
  C:\KEIL_V5\C51\LIB\C51S.LIB (?C?ILDPTR)
         COMMENT TYPE 1: A51 / ASM51 Assembler
  C:\KEIL_V5\C51\LIB\C51S.LIB (?C?PLDIIDATA)
         COMMENT TYPE 1: A51 / ASM51 Assembler


ACTIVE MEMORY CLASSES OF MODULE:  FProject (?C_STARTUP)

BASE        START       END         USED      MEMORY CLASS
==========================================================
C:000000H   C:000000H   C:00FFFFH   000BB1H   CODE
I:000000H   I:000000H   I:0000FFH   000001H   IDATA
I:000000H   I:000000H   I:00007FH   000057H   DATA
C:000000H   C:000000H   C:00FFFFH   000050H   CONST
X:000000H   X:000000H   X:00FFFFH   00005CH   XDATA
I:000020H.0 I:000020H.0 I:00002FH.7 000000H.1 BIT


MEMORY MAP OF MODULE:  FProject (?C_STARTUP)


START     STOP      LENGTH    ALIGN  RELOC    MEMORY CLASS   SEGMENT NAME
=========================================================================

* * * * * * * * * * *   D A T A   M E M O R Y   * * * * * * * * * * * * *
000000H   000007H   000008H   ---    AT..     DATA           "REG BANK 0"
000008H   000010H   000009H   BYTE   UNIT     DATA           ?DT?_I2C_MPU_READBITS?HAL_W2_ISR
000011H   000018H   000008H   BYTE   UNIT     DATA           ?DT?MAIN
000019H   00001FH   000007H   BYTE   UNIT     DATA           ?DT?HAL_W2_WAIT_DATA_READY?HAL_W2_ISR
000020H   000020H   000001H   BYTE   BITADDR  DATA           ?BA?MAIN
000021H.0 000021H.0 000000H.1 BIT    UNIT     BIT            ?BI?MAIN
000021H.1 000021H   000000H.7 ---    ---      **GAP**
000022H   00003AH   000019H   BYTE   UNIT     DATA           _DATA_GROUP_
00003BH   000041H   000007H   BYTE   UNIT     DATA           ?DT?_I2C_MPU_READBIT?HAL_W2_ISR
000042H   000047H   000006H   BYTE   UNIT     DATA           ?DT?_HAL_W2_WRITE?HAL_W2_ISR
000048H   00004DH   000006H   BYTE   UNIT     DATA           ?DT?_HAL_W2_READ?HAL_W2_ISR
00004EH   000052H   000005H   BYTE   UNIT     DATA           ?DT?_ENVIAR_MSG_TO_HOST_HEX?MAIN
000053H   000055H   000003H   BYTE   UNIT     DATA           ?DT?_GETFIFOBYTES?MAIN
000056H   000057H   000002H   BYTE   UNIT     DATA           ?DT?HAL_W2_ISR
000058H   000058H   000001H   BYTE   UNIT     IDATA          ?STACK

LX51 LINKER/LOCATER V4.66.62.0                                                        11/14/2016  16:59:38  PAGE 2


* * * * * * * * * * *   C O D E   M E M O R Y   * * * * * * * * * * * * *
000000H   000002H   000003H   ---    OFFS..   CODE           ?CO??C_STARTUP?0
000003H   00000AH   000008H   BYTE   UNIT     CODE           ?PR?_SETXACCELOFFSET?MAIN
00000BH   00000DH   000003H   BYTE   OFFS..   CODE           ?MAIN?0000B
00000EH   000048H   00003BH   BYTE   UNIT     CODE           ?PR?I2C_IRQ?MAIN
000049H   00004AH   000002H   ---    ---      **GAP**
00004BH   00004DH   000003H   BYTE   OFFS..   CODE           ?MAIN?0004B
00004EH   000052H   000005H   ---    ---      **GAP**
000053H   000055H   000003H   BYTE   OFFS..   CODE           ?MAIN?00053
000056H   0000FFH   0000AAH   BYTE   UNIT     CODE           ?PR?MAIN?MAIN
000100H   000192H   000093H   BYTE   UNIT     CODE           ?PR?_GETMOTION6_PACKET?MAIN
000193H   00021EH   00008CH   BYTE   UNIT     CODE           ?C_C51STARTUP
00021FH   0002A6H   000088H   BYTE   UNIT     CODE           ?C?LIB_CODE
0002A7H   00032CH   000086H   BYTE   UNIT     CODE           ?PR?RF_IRQ?MAIN
00032DH   00039FH   000073H   BYTE   UNIT     CODE           ?PR?HAL_W2_SOFT_RESET?HAL_W2_ISR
0003A0H   000406H   000067H   BYTE   UNIT     CODE           ?PR?MAIN
000407H   000469H   000063H   BYTE   UNIT     CODE           ?PR?_I2C_MPU_WRITEBITS?HAL_W2_ISR
00046AH   0004C6H   00005DH   BYTE   UNIT     CODE           ?PR?_I2C_MPU_READBYTES?HAL_W2_ISR
0004C7H   00051EH   000058H   BYTE   UNIT     CODE           ?PR?SETUP?MAIN
00051FH   000576H   000058H   BYTE   UNIT     CODE           ?PR?_I2C_MPU_READBITS?HAL_W2_ISR
000577H   0005CCH   000056H   BYTE   UNIT     CODE           ?PR?_I2C_MPU_WRITEWORDS?HAL_W2_ISR
0005CDH   00061AH   00004EH   BYTE   UNIT     CODE           ?PR?_I2C_MPU_WRITEBIT?HAL_W2_ISR
00061BH   000664H   00004AH   BYTE   UNIT     CODE           ?PR?_ENVIAR_MSG_TO_HOST?MAIN
000665H   0006AEH   00004AH   BYTE   UNIT     CODE           ?PR?_ENVIAR_MSG_TO_HOST_HEX?MAIN
0006AFH   0006F3H   000045H   BYTE   UNIT     CODE           ?PR?RF_INIT?MAIN
0006F4H   000735H   000042H   BYTE   UNIT     CODE           ?PR?_HAL_W2_READ?HAL_W2_ISR
000736H   00076FH   00003AH   BYTE   UNIT     CODE           ?PR?_I2C_MPU_WRITEBYTES?HAL_W2_ISR
000770H   0007A7H   000038H   BYTE   UNIT     CODE           ?PR?_HAL_W2_WRITE?HAL_W2_ISR
0007A8H   0007DDH   000036H   BYTE   UNIT     CODE           ?PR?ENVIAR_MOTION6?MAIN
0007DEH   000810H   000033H   BYTE   UNIT     CODE           ?PR?MPU_INITIALIZE?MAIN
000811H   00083CH   00002CH   BYTE   UNIT     CODE           ?PR?_TX_MODE_NOACK?MAIN
00083DH   000867H   00002BH   BYTE   UNIT     CODE           ?PR?_SPI_READ_BUF?MAIN
000868H   000890H   000029H   BYTE   UNIT     CODE           ?PR?_GETFIFOBYTES?MAIN
000891H   0008B7H   000027H   BYTE   UNIT     CODE           ?PR?HAL_W2_WAIT_DATA_READY?HAL_W2_ISR
0008B8H   0008DBH   000024H   BYTE   UNIT     CODE           ?PR?_I2C_MPU_READBIT?HAL_W2_ISR
0008DCH   0008FCH   000021H   BYTE   UNIT     CODE           ?PR?_HAL_W2_CONFIGURE_MASTER?HAL_W2_ISR
0008FDH   00091BH   00001FH   BYTE   UNIT     CODE           ?PR?_SPI_WRITE_BUF?MAIN
00091CH   000937H   00001CH   BYTE   UNIT     CODE           ?PR?LUZES_INICIAIS?MAIN
000938H   000952H   00001BH   BYTE   UNIT     CODE           ?PR?MPU_TESTCONNECTION?MAIN
000953H   00096CH   00001AH   BYTE   UNIT     CODE           ?PR?_DELAY_US?HAL_DELAY
00096DH   000984H   000018H   BYTE   UNIT     CODE           ?PR?_SETMEMORYBANK?MAIN
000985H   00099BH   000017H   BYTE   UNIT     CODE           ?PR?GETFIFOCOUNT?MAIN
00099CH   0009AFH   000014H   BYTE   UNIT     CODE           ?PR?_DELAY_MS?HAL_DELAY
0009B0H   0009C2H   000013H   BYTE   UNIT     CODE           ?PR?GETINTSTATUS?MAIN
0009C3H   0009D5H   000013H   BYTE   UNIT     CODE           ?PR?_SPI_RW_REG?MAIN
0009D6H   0009E8H   000013H   BYTE   UNIT     CODE           ?PR?_I2C_MPU_WRITEWORD?HAL_W2_ISR
0009E9H   0009FAH   000012H   BYTE   UNIT     CODE           ?PR?INICIARIO?MAIN
0009FBH   000A0CH   000012H   BYTE   UNIT     CODE           ?PR?_HAL_W2_INIT_TRANSFER?HAL_W2_ISR
000A0DH   000A1EH   000012H   BYTE   UNIT     CODE           ?PR?_I2C_MPU_READBYTE?HAL_W2_ISR
000A1FH   000A2FH   000011H   BYTE   UNIT     CODE           ?PR?RX_MODE?MAIN
000A30H   000A40H   000011H   BYTE   UNIT     CODE           ?C_INITSEG
000A41H   000A51H   000011H   BYTE   UNIT     CODE           ?PR?_I2C_MPU_WRITEBYTE?HAL_W2_ISR
000A52H   000A61H   000010H   BYTE   UNIT     CODE           ?PR?GETXGYROOFFSETTC?MAIN
000A62H   000A71H   000010H   BYTE   UNIT     CODE           ?PR?GETYGYROOFFSETTC?MAIN
000A72H   000A81H   000010H   BYTE   UNIT     CODE           ?PR?GETZGYROOFFSETTC?MAIN
000A82H   000A91H   000010H   BYTE   UNIT     CODE           ?PR?TMR0_IRQ?MAIN
000A92H   000A9FH   00000EH   BYTE   UNIT     CODE           ?PR?_HAL_W2_SET_CLK_FREQ?HAL_W2_ISR
000AA0H   000AADH   00000EH   BYTE   UNIT     CODE           ?PR?HAL_W2_ISR
000AAEH   000ABAH   00000DH   BYTE   UNIT     CODE           ?PR?_SPI_READ?MAIN
000ABBH   000AC6H   00000CH   BYTE   UNIT     CODE           ?PR?RESETFIFO?MAIN
000AC7H   000AD2H   00000CH   BYTE   UNIT     CODE           ?PR?INICIARRF?MAIN
000AD3H   000ADDH   00000BH   BYTE   UNIT     CODE           ?PR?_SETYGYROOFFSET?MAIN
000ADEH   000AE8H   00000BH   BYTE   UNIT     CODE           ?PR?_SETZGYROOFFSET?MAIN
000AE9H   000AF3H   00000BH   BYTE   UNIT     CODE           ?PR?_SETDMPENABLED?MAIN
000AF4H   000AFEH   00000BH   BYTE   UNIT     CODE           ?PR?_HAL_W2_RESPOND_TO_GEN_ADR?HAL_W2_ISR
LX51 LINKER/LOCATER V4.66.62.0                                                        11/14/2016  16:59:38  PAGE 3


000AFFH   000B09H   00000BH   BYTE   UNIT     CODE           ?PR?_HAL_W2_ALTER_CLOCK?HAL_W2_ISR
000B0AH   000B14H   00000BH   BYTE   UNIT     CODE           ?PR?_HAL_W2_IRQ_STOP_COND_ENABLE?HAL_W2_ISR
000B15H   000B1FH   00000BH   BYTE   UNIT     CODE           ?PR?_HAL_W2_IRQ_ADR_MATCH_ENABLE?HAL_W2_ISR
000B20H   000B2AH   00000BH   BYTE   UNIT     CODE           ?PR?_HAL_W2_SET_OP_MODE?HAL_W2_ISR
000B2BH   000B35H   00000BH   BYTE   UNIT     CODE           ?PR?_HAL_W2_ENABLE?HAL_W2_ISR
000B36H   000B40H   00000BH   BYTE   UNIT     CODE           ?PR?_HAL_W2_ALL_IRQ_ENABLE?HAL_W2_ISR
000B41H   000B4AH   00000AH   BYTE   UNIT     CODE           ?PR?_SETXGYROOFFSETTC?MAIN
000B4BH   000B54H   00000AH   BYTE   UNIT     CODE           ?PR?_SETYGYROOFFSETTC?MAIN
000B55H   000B5EH   00000AH   BYTE   UNIT     CODE           ?PR?_SETZGYROOFFSETTC?MAIN
000B5FH   000B68H   00000AH   BYTE   UNIT     CODE           ?PR?START_T0?MAIN
000B69H   000B72H   00000AH   BYTE   UNIT     CODE           ?PR?STOP_T0?MAIN
000B73H   000B7CH   00000AH   BYTE   UNIT     CODE           ?PR?_SPI_RW?MAIN
000B7DH   000B86H   00000AH   BYTE   UNIT     CODE           ?PR?HAL_W2_WAIT_DATA_READY_ISR?HAL_W2_ISR
000B87H   000B90H   00000AH   BYTE   UNIT     CODE           ?PR?I2C_IRQ_HANDLER?HAL_W2_ISR
000B91H   000B99H   000009H   BYTE   UNIT     CODE           ?PR?DMPGETFIFOPACKETSIZE?MAIN
000B9AH   000BA1H   000008H   BYTE   UNIT     CODE           ?PR?_SETYACCELOFFSET?MAIN
000BA2H   000BA9H   000008H   BYTE   UNIT     CODE           ?PR?_SETZACCELOFFSET?MAIN
000BAAH   000BB1H   000008H   BYTE   UNIT     CODE           ?PR?_SETXGYROOFFSET?MAIN
000BB2H   000BB7H   000006H   BYTE   UNIT     CODE           ?PR?_HAL_W2_SET_SLAVE_ADDRESS?HAL_W2_ISR
000BB8H   000C07H   000050H   BYTE   UNIT     CONST          ?CO?MAIN

* * * * * * * * * * *  X D A T A   M E M O R Y  * * * * * * * * * * * * *
000000H   00005BH   00005CH   BYTE   UNIT     XDATA          ?XD?MAIN



OVERLAY MAP OF MODULE:   FProject (?C_STARTUP)


FUNCTION/MODULE                               BIT_GROUP   DATA_GROUP 
--> CALLED FUNCTION/MODULE                   START  STOP  START  STOP
=====================================================================
?C_C51STARTUP                                ----- -----  ----- -----
  +--> MAIN/MAIN
  +--> ?C_INITSEG

MAIN/MAIN                                    ----- -----  ----- -----
  +--> SETUP/MAIN
  +--> _TX_MODE_NOACK/MAIN
  +--> RX_MODE/MAIN
  +--> STOP_T0/MAIN
  +--> _DELAY_MS/HAL_DELAY
  +--> _GETMOTION6_PACKET/MAIN
  +--> ENVIAR_MOTION6/MAIN
  +--> ?CO?MAIN
  +--> _ENVIAR_MSG_TO_HOST/MAIN
  +--> START_T0/MAIN

SETUP/MAIN                                   ----- -----  ----- -----
  +--> INICIARIO/MAIN
  +--> INICIARRF/MAIN
  +--> _HAL_W2_CONFIGURE_MASTER/HAL_W2_ISR
  +--> LUZES_INICIAIS/MAIN
  +--> ?CO?MAIN
  +--> _ENVIAR_MSG_TO_HOST/MAIN
  +--> MPU_INITIALIZE/MAIN
  +--> _SETXACCELOFFSET/MAIN
  +--> _SETYACCELOFFSET/MAIN
  +--> _SETZACCELOFFSET/MAIN
  +--> _SETXGYROOFFSET/MAIN
  +--> _SETYGYROOFFSET/MAIN
  +--> _SETZGYROOFFSET/MAIN

INICIARIO/MAIN                               ----- -----  ----- -----

LX51 LINKER/LOCATER V4.66.62.0                                                        11/14/2016  16:59:38  PAGE 4


INICIARRF/MAIN                               ----- -----  ----- -----
  +--> RF_INIT/MAIN
  +--> RX_MODE/MAIN

RF_INIT/MAIN                                 ----- -----  ----- -----
  +--> MAIN
  +--> _SPI_WRITE_BUF/MAIN
  +--> _SPI_RW_REG/MAIN

MAIN                                         ----- -----  ----- -----
  +--> _SPI_RW/MAIN

_SPI_RW/MAIN                                 ----- -----  ----- -----

_SPI_WRITE_BUF/MAIN                          ----- -----  0029H 002DH
  +--> MAIN
  +--> _SPI_RW/MAIN

_SPI_RW_REG/MAIN                             ----- -----  ----- -----
  +--> _SPI_RW/MAIN

RX_MODE/MAIN                                 ----- -----  ----- -----
  +--> _SPI_RW_REG/MAIN

_HAL_W2_CONFIGURE_MASTER/HAL_W2_ISR          ----- -----  ----- -----
  +--> _HAL_W2_ENABLE/HAL_W2_ISR
  +--> _HAL_W2_SET_CLK_FREQ/HAL_W2_ISR
  +--> _HAL_W2_SET_OP_MODE/HAL_W2_ISR
  +--> _HAL_W2_ALL_IRQ_ENABLE/HAL_W2_ISR

_HAL_W2_ENABLE/HAL_W2_ISR                    ----- -----  ----- -----

_HAL_W2_SET_CLK_FREQ/HAL_W2_ISR              ----- -----  ----- -----

_HAL_W2_SET_OP_MODE/HAL_W2_ISR               ----- -----  ----- -----

_HAL_W2_ALL_IRQ_ENABLE/HAL_W2_ISR            ----- -----  ----- -----

LUZES_INICIAIS/MAIN                          ----- -----  ----- -----
  +--> _DELAY_MS/HAL_DELAY

_DELAY_MS/HAL_DELAY                          ----- -----  ----- -----
  +--> _DELAY_US/HAL_DELAY

_DELAY_US/HAL_DELAY                          ----- -----  ----- -----

?CO?MAIN                                     ----- -----  ----- -----

_ENVIAR_MSG_TO_HOST/MAIN                     ----- -----  0022H 0026H
  +--> MAIN
  +--> _TX_MODE_NOACK/MAIN
  +--> RX_MODE/MAIN
  +--> _DELAY_MS/HAL_DELAY

_TX_MODE_NOACK/MAIN                          ----- -----  0027H 0028H
  +--> _SPI_RW_REG/MAIN
  +--> MAIN
  +--> _SPI_WRITE_BUF/MAIN

MPU_INITIALIZE/MAIN                          ----- -----  ----- -----
  +--> _I2C_MPU_WRITEBITS/HAL_W2_ISR
  +--> _I2C_MPU_WRITEBIT/HAL_W2_ISR

_I2C_MPU_WRITEBITS/HAL_W2_ISR                ----- -----  0022H 0028H
  +--> _I2C_MPU_READBYTE/HAL_W2_ISR
LX51 LINKER/LOCATER V4.66.62.0                                                        11/14/2016  16:59:38  PAGE 5


  +--> _I2C_MPU_WRITEBYTE/HAL_W2_ISR

_I2C_MPU_READBYTE/HAL_W2_ISR                 ----- -----  0029H 002BH
  +--> _I2C_MPU_READBYTES/HAL_W2_ISR

_I2C_MPU_READBYTES/HAL_W2_ISR                ----- -----  002CH 0033H
  +--> _HAL_W2_INIT_TRANSFER/HAL_W2_ISR
  +--> HAL_W2_WAIT_DATA_READY_ISR/HAL_W2_ISR
  +--> HAL_W2_SOFT_RESET/HAL_W2_ISR
  +--> HAL_W2_ISR

_HAL_W2_INIT_TRANSFER/HAL_W2_ISR             ----- -----  ----- -----
  +--> HAL_W2_ISR

HAL_W2_ISR                                   ----- -----  ----- -----
  +--> HAL_W2_WAIT_DATA_READY_ISR/HAL_W2_ISR

HAL_W2_WAIT_DATA_READY_ISR/HAL_W2_ISR        ----- -----  ----- -----

HAL_W2_SOFT_RESET/HAL_W2_ISR                 ----- -----  0034H 0035H
  +--> _DELAY_US/HAL_DELAY

_I2C_MPU_WRITEBYTE/HAL_W2_ISR                ----- -----  0029H 0029H
  +--> _I2C_MPU_WRITEBYTES/HAL_W2_ISR

_I2C_MPU_WRITEBYTES/HAL_W2_ISR               ----- -----  002AH 002FH
  +--> _HAL_W2_INIT_TRANSFER/HAL_W2_ISR
  +--> HAL_W2_WAIT_DATA_READY_ISR/HAL_W2_ISR
  +--> HAL_W2_ISR

_I2C_MPU_WRITEBIT/HAL_W2_ISR                 ----- -----  0022H 0026H
  +--> _I2C_MPU_READBYTE/HAL_W2_ISR
  +--> _I2C_MPU_WRITEBYTE/HAL_W2_ISR

_SETXACCELOFFSET/MAIN                        ----- -----  ----- -----
  +--> MAIN
  +--> _I2C_MPU_WRITEWORD/HAL_W2_ISR

_I2C_MPU_WRITEWORD/HAL_W2_ISR                ----- -----  0022H 0023H
  +--> _I2C_MPU_WRITEWORDS/HAL_W2_ISR

_I2C_MPU_WRITEWORDS/HAL_W2_ISR               ----- -----  0024H 0029H
  +--> _HAL_W2_INIT_TRANSFER/HAL_W2_ISR
  +--> HAL_W2_WAIT_DATA_READY_ISR/HAL_W2_ISR
  +--> HAL_W2_ISR

_SETYACCELOFFSET/MAIN                        ----- -----  ----- -----
  +--> MAIN
  +--> _I2C_MPU_WRITEWORD/HAL_W2_ISR

_SETZACCELOFFSET/MAIN                        ----- -----  ----- -----
  +--> MAIN
  +--> _I2C_MPU_WRITEWORD/HAL_W2_ISR

_SETXGYROOFFSET/MAIN                         ----- -----  ----- -----
  +--> MAIN
  +--> _I2C_MPU_WRITEWORD/HAL_W2_ISR

_SETYGYROOFFSET/MAIN                         ----- -----  ----- -----
  +--> _I2C_MPU_WRITEWORD/HAL_W2_ISR

_SETZGYROOFFSET/MAIN                         ----- -----  ----- -----
  +--> _I2C_MPU_WRITEWORD/HAL_W2_ISR

STOP_T0/MAIN                                 ----- -----  ----- -----
LX51 LINKER/LOCATER V4.66.62.0                                                        11/14/2016  16:59:38  PAGE 6


  +--> MAIN

_GETMOTION6_PACKET/MAIN                      ----- -----  0022H 0024H
  +--> MAIN
  +--> _I2C_MPU_READBYTES/HAL_W2_ISR

ENVIAR_MOTION6/MAIN                          ----- -----  ----- -----
  +--> _TX_MODE_NOACK/MAIN
  +--> RX_MODE/MAIN

START_T0/MAIN                                ----- -----  ----- -----
  +--> MAIN

?C_INITSEG                                   ----- -----  ----- -----

*** NEW ROOT *******************************

TMR0_IRQ/MAIN                                ----- -----  ----- -----
  +--> MAIN

*** NEW ROOT *******************************

RF_IRQ/MAIN                                  ----- -----  ----- -----
  +--> _SPI_READ/MAIN
  +--> _SPI_READ_BUF/MAIN
  +--> _SPI_RW_REG/MAIN

_SPI_READ/MAIN                               ----- -----  ----- -----
  +--> _SPI_RW/MAIN

_SPI_READ_BUF/MAIN                           ----- -----  0036H 003AH
  +--> MAIN
  +--> _SPI_RW/MAIN

*** NEW ROOT *******************************

I2C_IRQ/MAIN                                 ----- -----  ----- -----
  +--> I2C_IRQ_HANDLER/HAL_W2_ISR

I2C_IRQ_HANDLER/HAL_W2_ISR                   ----- -----  ----- -----



PUBLIC SYMBOLS OF MODULE:  FProject (?C_STARTUP)


      VALUE       CLASS    TYPE      PUBLIC SYMBOL NAME
      =================================================
      00000048H   DATA     BYTE      ?_hal_w2_read?BYTE
      00000042H   DATA     BYTE      ?_hal_w2_write?BYTE
      0000003BH   DATA     BYTE      ?_i2c_mpu_readBit?BYTE
      00000008H   DATA     BYTE      ?_i2c_mpu_readBits?BYTE
      0000002CH   DATA     BYTE      ?_i2c_mpu_readBytes?BYTE
      00000022H   DATA     BYTE      ?_i2c_mpu_writeBit?BYTE
      00000022H   DATA     BYTE      ?_i2c_mpu_writeBits?BYTE
      0000002AH   DATA     BYTE      ?_i2c_mpu_writeBytes?BYTE
      00000024H   DATA     BYTE      ?_i2c_mpu_writeWords?BYTE
      00000036H   DATA     BYTE      ?_SPI_Read_Buf?BYTE
      00000029H   DATA     BYTE      ?_SPI_Write_Buf?BYTE
      0100021FH   CODE     ---       ?C?CLDPTR
      00000000H   NUMBER   ---       ?C?CODESEG
      0100024AH   CODE     ---       ?C?CSTOPTR
      01000238H   CODE     ---       ?C?CSTPTR
      0100026CH   CODE     ---       ?C?ILDPTR
      01000297H   CODE     ---       ?C?PLDIIDATA
LX51 LINKER/LOCATER V4.66.62.0                                                        11/14/2016  16:59:38  PAGE 7


      00000000H   NUMBER   ---       ?C?XDATASEG
      010001DAH   CODE     ---       ?C_START
      01000000H   CODE     ---       ?C_STARTUP
      0100099CH   CODE     ---       _delay_ms
      0100095EH   CODE     ---       _delay_us
      0100061BH   CODE     ---       _enviar_msg_to_host
      01000665H   CODE     ---       _enviar_msg_to_host_hex
      01000868H   CODE     ---       _getFIFOBytes
      01000100H   CODE     ---       _getMotion6_packet
      01000B36H   CODE     ---       _hal_w2_all_irq_enable
      01000AFFH   CODE     ---       _hal_w2_alter_clock
      010008DCH   CODE     ---       _hal_w2_configure_master
      01000B2BH   CODE     ---       _hal_w2_enable
      010009FBH   CODE     ---       _hal_w2_init_transfer
      01000B15H   CODE     ---       _hal_w2_irq_adr_match_enable
      01000B0AH   CODE     ---       _hal_w2_irq_stop_cond_enable
      010006F4H   CODE     ---       _hal_w2_read
      01000AF4H   CODE     ---       _hal_w2_respond_to_gen_adr
      01000A92H   CODE     ---       _hal_w2_set_clk_freq
      01000B20H   CODE     ---       _hal_w2_set_op_mode
      01000BB2H   CODE     ---       _hal_w2_set_slave_address
      01000770H   CODE     ---       _hal_w2_write
      010008B8H   CODE     ---       _i2c_mpu_readBit
      0100051FH   CODE     ---       _i2c_mpu_readBits
      01000A0DH   CODE     ---       _i2c_mpu_readByte
      0100046AH   CODE     ---       _i2c_mpu_readBytes
      010005CDH   CODE     ---       _i2c_mpu_writeBit
      01000407H   CODE     ---       _i2c_mpu_writeBits
      01000A41H   CODE     ---       _i2c_mpu_writeByte
      01000736H   CODE     ---       _i2c_mpu_writeBytes
      010009D6H   CODE     ---       _i2c_mpu_writeWord
      01000577H   CODE     ---       _i2c_mpu_writeWords
      01000AE9H   CODE     ---       _setDMPEnabled
      0100096DH   CODE     ---       _setMemoryBank
      01000003H   CODE     ---       _setXAccelOffset
      01000BAAH   CODE     ---       _setXGyroOffset
      01000B41H   CODE     ---       _setXGyroOffsetTC
      01000B9AH   CODE     ---       _setYAccelOffset
      01000AD3H   CODE     ---       _setYGyroOffset
      01000B4BH   CODE     ---       _setYGyroOffsetTC
      01000BA2H   CODE     ---       _setZAccelOffset
      01000ADEH   CODE     ---       _setZGyroOffset
      01000B55H   CODE     ---       _setZGyroOffsetTC
      01000AAEH   CODE     ---       _SPI_Read
      0100083DH   CODE     ---       _SPI_Read_Buf
      01000B73H   CODE     ---       _SPI_RW
      010009C3H   CODE     ---       _SPI_RW_Reg
      010008FDH   CODE     ---       _SPI_Write_Buf
      01000811H   CODE     ---       _TX_Mode_NOACK
*SFR* 000000D0H.6 DATA     BIT       AC
*SFR* 000000E0H   DATA     BYTE      ACC
*SFR* 000000D3H   DATA     BYTE      ADCCON1
*SFR* 000000D2H   DATA     BYTE      ADCCON2
*SFR* 000000D1H   DATA     BYTE      ADCCON3
*SFR* 000000D4H   DATA     BYTE      ADCDATH
*SFR* 000000D5H   DATA     BYTE      ADCDATL
*SFR* 000000D8H   DATA     BYTE      ADCON
      00000013H   DATA     ---       ADDR_HOST
*SFR* 000000EFH   DATA     BYTE      ARCON
*SFR* 000000F0H   DATA     BYTE      B
*SFR* 000000D8H.7 DATA     BIT       BD
      0200004EH   XDATA    ---       buffer
*SFR* 000000C2H   DATA     WORD      CC1
*SFR* 000000C4H   DATA     WORD      CC2
*SFR* 000000C6H   DATA     WORD      CC3
LX51 LINKER/LOCATER V4.66.62.0                                                        11/14/2016  16:59:38  PAGE 8


*SFR* 000000C1H   DATA     BYTE      CCEN
*SFR* 000000C3H   DATA     BYTE      CCH1
*SFR* 000000C5H   DATA     BYTE      CCH2
*SFR* 000000C7H   DATA     BYTE      CCH3
*SFR* 000000C2H   DATA     BYTE      CCL1
*SFR* 000000C4H   DATA     BYTE      CCL2
*SFR* 000000C6H   DATA     BYTE      CCL3
*SFR* 000000DDH   DATA     BYTE      CCPDATIA
*SFR* 000000DEH   DATA     BYTE      CCPDATIB
*SFR* 000000DFH   DATA     BYTE      CCPDATO
*SFR* 000000A3H   DATA     BYTE      CLKCTRL
*SFR* 000000ADH   DATA     BYTE      CLKLFCTRL
*SFR* 000000DBH   DATA     BYTE      COMPCON
*SFR* 000000CAH   DATA     WORD      CRC
*SFR* 000000CBH   DATA     BYTE      CRCH
*SFR* 000000CAH   DATA     BYTE      CRCL
*SFR* 000000D0H.7 DATA     BIT       CY
      00000056H   DATA     BYTE      data_ready
      01000B91H   CODE     ---       dmpGetFIFOPacketSize
      0200004CH   XDATA    WORD      dmpPacketSize
*SFR* 00000083H   DATA     BYTE      DPH
*SFR* 00000085H   DATA     BYTE      DPH1
*SFR* 00000082H   DATA     BYTE      DPL
*SFR* 00000084H   DATA     BYTE      DPL1
*SFR* 00000092H   DATA     BYTE      DPS
*SFR* 000000A8H.7 DATA     BIT       EA
      010007A8H   CODE     ---       enviar_motion6
*SFR* 000000A8H.4 DATA     BIT       ES0
*SFR* 000000A8H.1 DATA     BIT       ET0
*SFR* 000000A8H.3 DATA     BIT       ET1
*SFR* 000000A8H.5 DATA     BIT       ET2
*SFR* 000000A8H   DATA     BIT       EX0
*SFR* 000000A8H.2 DATA     BIT       EX1
*SFR* 000000B8H.7 DATA     BIT       EXEN2
*SFR* 000000C0H.7 DATA     BIT       EXF2
*SFR* 000000D0H.5 DATA     BIT       F0
*SFR* 000000FAH   DATA     BYTE      FCR
*SFR* 000000FBH   DATA     BYTE      FDCR
*SFR* 000000F9H   DATA     BYTE      FPCR
*SFR* 000000F8H   DATA     BYTE      FSR
      01000985H   CODE     ---       getFIFOCount
      010009B0H   CODE     ---       getIntStatus
      01000A52H   CODE     ---       getXGyroOffsetTC
      01000A62H   CODE     ---       getYGyroOffsetTC
      01000A72H   CODE     ---       getZGyroOffsetTC
      0100032DH   CODE     ---       hal_w2_soft_reset
      01000891H   CODE     ---       hal_w2_wait_data_ready
      01000B7DH   CODE     ---       hal_w2_wait_data_ready_ISR
      0100000EH   CODE     ---       I2C_IRQ
      01000B87H   CODE     ---       I2C_IRQ_handler
*SFR* 000000C8H.5 DATA     BIT       I2FR
*SFR* 000000C8H.6 DATA     BIT       I3FR
*SFR* 00000088H.1 DATA     BIT       IE0
*SFR* 00000088H.3 DATA     BIT       IE1
*SFR* 000000A8H   DATA     BYTE      IEN0
*SFR* 000000B8H   DATA     BYTE      IEN1
*SFR* 000000F8H.3 DATA     BIT       INFEN
      010009E9H   CODE     ---       iniciarIO
      01000AC7H   CODE     ---       iniciarRF
*SFR* 000000A6H   DATA     BYTE      INTEXP
*SFR* 000000A9H   DATA     BYTE      IP0
*SFR* 000000B9H   DATA     BYTE      IP1
*SFR* 000000C0H   DATA     BYTE      IRCON
*SFR* 00000088H   DATA     BIT       IT0
*SFR* 00000088H.2 DATA     BIT       IT1
LX51 LINKER/LOCATER V4.66.62.0                                                        11/14/2016  16:59:38  PAGE 9


*SFR* 00000080H.3 DATA     BIT       LEDVM
      0100091CH   CODE     ---       luzes_iniciais
      01000056H   CODE     ---       main
      00000020H.4 DATA     BIT       MAX_RT
*SFR* 000000F8H.7 DATA     BIT       MCDIS
*SFR* 000000E9H   DATA     BYTE      MD0
*SFR* 000000EAH   DATA     BYTE      MD1
*SFR* 000000EBH   DATA     BYTE      MD2
*SFR* 000000ECH   DATA     BYTE      MD3
*SFR* 000000EDH   DATA     BYTE      MD4
*SFR* 000000EEH   DATA     BYTE      MD5
*SFR* 000000A7H   DATA     BYTE      MEMCON
*SFR* 000000B8H.4 DATA     BIT       MISC
*SFR* 000000C0H.4 DATA     BIT       MISCF
*SFR* 000000C9H   DATA     BYTE      MPAGE
      010007DEH   CODE     ---       mpu_initialize
      01000938H   CODE     ---       mpu_testConnection
      00000021H.0 BIT      BIT       newPayload
*SFR* 000000AEH   DATA     BYTE      OPMCON
*SFR* 000000D0H.2 DATA     BIT       OV
*SFR* 000000D0H   DATA     BIT       P
*SFR* 00000080H   DATA     BYTE      P0
*SFR* 00000080H   DATA     BIT       P00
*SFR* 00000080H.1 DATA     BIT       P01
*SFR* 00000080H.2 DATA     BIT       P02
*SFR* 00000080H.3 DATA     BIT       P03
*SFR* 00000080H.4 DATA     BIT       P04
*SFR* 00000080H.5 DATA     BIT       P05
*SFR* 00000080H.6 DATA     BIT       P06
*SFR* 00000080H.7 DATA     BIT       P07
*SFR* 0000009EH   DATA     BYTE      P0CON
*SFR* 00000093H   DATA     BYTE      P0DIR
*SFR* 00000090H   DATA     BYTE      P1
*SFR* 00000090H   DATA     BIT       P10
*SFR* 00000090H.1 DATA     BIT       P11
*SFR* 00000090H.2 DATA     BIT       P12
*SFR* 00000090H.3 DATA     BIT       P13
*SFR* 00000090H.4 DATA     BIT       P14
*SFR* 00000090H.5 DATA     BIT       P15
*SFR* 00000090H.6 DATA     BIT       P16
*SFR* 00000090H.7 DATA     BIT       P17
*SFR* 0000009FH   DATA     BYTE      P1CON
*SFR* 00000094H   DATA     BYTE      P1DIR
*SFR* 000000A0H   DATA     BYTE      P2
*SFR* 000000A0H   DATA     BIT       P20
*SFR* 000000A0H.1 DATA     BIT       P21
*SFR* 000000A0H.2 DATA     BIT       P22
*SFR* 000000A0H.3 DATA     BIT       P23
*SFR* 000000A0H.4 DATA     BIT       P24
*SFR* 000000A0H.5 DATA     BIT       P25
*SFR* 000000A0H.6 DATA     BIT       P26
*SFR* 000000A0H.7 DATA     BIT       P27
*SFR* 00000097H   DATA     BYTE      P2CON
*SFR* 00000095H   DATA     BYTE      P2DIR
*SFR* 000000B0H   DATA     BYTE      P3
*SFR* 000000B0H   DATA     BIT       P30
*SFR* 000000B0H.1 DATA     BIT       P31
*SFR* 000000B0H.2 DATA     BIT       P32
*SFR* 000000B0H.3 DATA     BIT       P33
*SFR* 000000B0H.4 DATA     BIT       P34
*SFR* 000000B0H.5 DATA     BIT       P35
*SFR* 000000B0H.6 DATA     BIT       P36
*SFR* 000000B0H.7 DATA     BIT       P37
*SFR* 0000008FH   DATA     BYTE      P3CON
*SFR* 00000096H   DATA     BYTE      P3DIR
LX51 LINKER/LOCATER V4.66.62.0                                                        11/14/2016  16:59:38  PAGE 10


      02000040H   XDATA    ---       packet_motion6
      00000018H   DATA     BYTE      payloadWidth
*SFR* 00000087H   DATA     BYTE      PCON
*SFR* 000000DCH   DATA     BYTE      POFCON
*SFR* 000000D0H   DATA     BYTE      PSW
*SFR* 000000B2H   DATA     BYTE      PWMCON
*SFR* 000000A1H   DATA     BYTE      PWMDC0
*SFR* 000000A2H   DATA     BYTE      PWMDC1
*SFR* 000000A4H   DATA     BYTE      PWRDWN
*SFR* 00000098H.2 DATA     BIT       RB80
*SFR* 000000F8H.1 DATA     BIT       RDEND
*SFR* 000000F8H.2 DATA     BIT       RDIS
*SFR* 000000F8H.4 DATA     BIT       RDYN
*SFR* 00000098H.4 DATA     BIT       REN0
      01000ABBH   CODE     ---       resetFIFO
*SFR* 000000B8H.1 DATA     BIT       RF
      010006AFH   CODE     ---       rf_init
      010002A7H   CODE     ---       RF_IRQ
*SFR* 000000E8H   DATA     BIT       RFCE
*SFR* 000000E8H.2 DATA     BIT       RFCKEN
*SFR* 000000E8H   DATA     BYTE      RFCON
*SFR* 000000E8H.1 DATA     BIT       RFCSN
*SFR* 000000C0H.1 DATA     BIT       RFF
*SFR* 000000B8H   DATA     BIT       RFSPI
*SFR* 000000C0H   DATA     BIT       RFSPIF
*SFR* 00000098H   DATA     BIT       RI0
*SFR* 000000D6H   DATA     BYTE      RNGCTL
*SFR* 000000D7H   DATA     BYTE      RNGDAT
*SFR* 000000D0H.3 DATA     BIT       RS0
*SFR* 000000D0H.4 DATA     BIT       RS1
*SFR* 000000B1H   DATA     BYTE      RSTREAS
*SFR* 000000B4H   DATA     BYTE      RTC2CMP0
*SFR* 000000B5H   DATA     BYTE      RTC2CMP1
*SFR* 000000B3H   DATA     BYTE      RTC2CON
*SFR* 000000B6H   DATA     BYTE      RTC2CPT00
*SFR* 000000ABH   DATA     BYTE      RTC2CPT01
*SFR* 000000ACH   DATA     BYTE      RTC2CPT10
      02000000H   XDATA    ---       rx_buf
      00000020H.6 DATA     BIT       RX_DR
      01000A1FH   CODE     ---       RX_Mode
*SFR* 00000099H   DATA     BYTE      S0BUF
*SFR* 00000098H   DATA     BYTE      S0CON
*SFR* 000000BAH   DATA     BYTE      S0RELH
*SFR* 000000AAH   DATA     BYTE      S0RELL
*SFR* 00000080H.2 DATA     BIT       S1
*SFR* 00000090H.4 DATA     BIT       S2
      010004C7H   CODE     ---       setup
*SFR* 00000098H.7 DATA     BIT       SM0
*SFR* 00000098H.6 DATA     BIT       SM1
*SFR* 00000098H.5 DATA     BIT       SM20
*SFR* 00000081H   DATA     BYTE      SP
*SFR* 000000B8H.2 DATA     BIT       SPI
*SFR* 000000C0H.2 DATA     BIT       SPIF
*SFR* 000000FCH   DATA     BYTE      SPIMCON0
*SFR* 000000FDH   DATA     BYTE      SPIMCON1
*SFR* 000000FFH   DATA     BYTE      SPIMDAT
*SFR* 000000FEH   DATA     BYTE      SPIMSTAT
*SFR* 000000E4H   DATA     BYTE      SPIRCON0
*SFR* 000000E5H   DATA     BYTE      SPIRCON1
*SFR* 000000E7H   DATA     BYTE      SPIRDAT
*SFR* 000000E6H   DATA     BYTE      SPIRSTAT
*SFR* 000000BCH   DATA     BYTE      SPISCON0
*SFR* 000000BDH   DATA     BYTE      SPISCON1
*SFR* 000000BFH   DATA     BYTE      SPISDAT
*SFR* 000000B7H   DATA     BYTE      SPISRDSZ
LX51 LINKER/LOCATER V4.66.62.0                                                        11/14/2016  16:59:38  PAGE 11


*SFR* 000000BEH   DATA     BYTE      SPISSTAT
      00000020H   DATA     BYTE      sta
      01000B5FH   CODE     ---       start_T0
      01000B69H   CODE     ---       stop_T0
*SFR* 000000F8H.6 DATA     BIT       STP
*SFR* 000000CCH   DATA     WORD      T2
*SFR* 000000C8H.2 DATA     BIT       T2CM
*SFR* 000000C8H   DATA     BYTE      T2CON
*SFR* 000000C8H   DATA     BIT       T2I0
*SFR* 000000C8H.1 DATA     BIT       T2I1
*SFR* 000000C8H.7 DATA     BIT       T2PS
*SFR* 000000C8H.3 DATA     BIT       T2R0
*SFR* 000000C8H.4 DATA     BIT       T2R1
*SFR* 00000098H.3 DATA     BIT       TB80
*SFR* 00000088H   DATA     BYTE      TCON
*SFR* 00000088H.5 DATA     BIT       TF0
*SFR* 00000088H.7 DATA     BIT       TF1
*SFR* 000000C0H.6 DATA     BIT       TF2
*SFR* 0000008CH   DATA     BYTE      TH0
*SFR* 0000008DH   DATA     BYTE      TH1
*SFR* 000000CDH   DATA     BYTE      TH2
*SFR* 00000098H.1 DATA     BIT       TI0
      00000011H   DATA     INT       timer_flag
*SFR* 0000008AH   DATA     BYTE      TL0
*SFR* 0000008BH   DATA     BYTE      TL1
*SFR* 000000CCH   DATA     BYTE      TL2
*SFR* 00000089H   DATA     BYTE      TMOD
      01000A82H   CODE     ---       TMR0_IRQ
*SFR* 00000088H.4 DATA     BIT       TR0
*SFR* 00000088H.6 DATA     BIT       TR1
      02000020H   XDATA    ---       tx_buf
      00000020H.5 DATA     BIT       TX_DS
      00000057H   DATA     BYTE      w2_status
*SFR* 000000E2H   DATA     BYTE      W2CON0
*SFR* 000000E1H   DATA     BYTE      W2CON1
*SFR* 000000DAH   DATA     BYTE      W2DAT
*SFR* 000000D9H   DATA     BYTE      W2SADR
*SFR* 000000AFH   DATA     BYTE      WDSV
*SFR* 000000F8H.5 DATA     BIT       WEN
*SFR* 000000F8H   DATA     BIT       WPEN
*SFR* 000000A5H   DATA     BYTE      WUCON
*SFR* 000000C0H.5 DATA     BIT       WUF
*SFR* 000000B8H.5 DATA     BIT       WUIRQ
*SFR* 000000CFH   DATA     BYTE      WUOPC0
*SFR* 000000CEH   DATA     BYTE      WUOPC1
*SFR* 000000B8H.3 DATA     BIT       WUPIN
*SFR* 000000C0H.3 DATA     BIT       WUPINF



SYMBOL TABLE OF MODULE:  FProject (?C_STARTUP)

      VALUE       REP       CLASS    TYPE      SYMBOL NAME
      ====================================================
      ---         MODULE    ---      ---       ?C_STARTUP
      01000000H   PUBLIC    CODE     ---       ?C_STARTUP
      000000E0H   SYMBOL    DATA     ---       ACC
      000000F0H   SYMBOL    DATA     ---       B
      00000083H   SYMBOL    DATA     ---       DPH
      00000082H   SYMBOL    DATA     ---       DPL
      00000000H   SYMBOL    NUMBER   ---       IBPSTACK
      00000100H   SYMBOL    NUMBER   ---       IBPSTACKTOP
      00000080H   SYMBOL    NUMBER   ---       IDATALEN
      01000196H   SYMBOL    CODE     ---       IDATALOOP
      00000000H   SYMBOL    NUMBER   ---       PBPSTACK
LX51 LINKER/LOCATER V4.66.62.0                                                        11/14/2016  16:59:38  PAGE 12


      00000100H   SYMBOL    NUMBER   ---       PBPSTACKTOP
      00000000H   SYMBOL    NUMBER   ---       PDATALEN
      00000000H   SYMBOL    NUMBER   ---       PDATASTART
      00000000H   SYMBOL    NUMBER   ---       PPAGE
      00000000H   SYMBOL    NUMBER   ---       PPAGEENABLE
      000000A0H   SYMBOL    DATA     ---       PPAGE_SFR
      00000081H   SYMBOL    DATA     ---       SP
      01000193H   SYMBOL    CODE     ---       STARTUP1
      00000000H   SYMBOL    NUMBER   ---       XBPSTACK
      00000000H   SYMBOL    NUMBER   ---       XBPSTACKTOP
      00000000H   SYMBOL    NUMBER   ---       XDATALEN
      00000000H   SYMBOL    NUMBER   ---       XDATASTART
      01000000H   LINE      CODE     ---       #126
      01000193H   LINE      CODE     ---       #133
      01000195H   LINE      CODE     ---       #134
      01000196H   LINE      CODE     ---       #135
      01000197H   LINE      CODE     ---       #136
      01000199H   LINE      CODE     ---       #185
      0100019CH   LINE      CODE     ---       #196

      ---         MODULE    ---      ---       MAIN
      0200004EH   PUBLIC    XDATA    ---       buffer
      00000018H   PUBLIC    DATA     BYTE      payloadWidth
      00000020H.4 PUBLIC    DATA     BIT       MAX_RT
      0200004CH   PUBLIC    XDATA    WORD      dmpPacketSize
      00000013H   PUBLIC    DATA     ---       ADDR_HOST
      02000040H   PUBLIC    XDATA    ---       packet_motion6
      00000020H.5 PUBLIC    DATA     BIT       TX_DS
      00000011H   PUBLIC    DATA     INT       timer_flag
      00000020H.6 PUBLIC    DATA     BIT       RX_DR
      00000020H   PUBLIC    DATA     BYTE      sta
      00000021H.0 PUBLIC    BIT      BIT       newPayload
      02000020H   PUBLIC    XDATA    ---       tx_buf
      02000000H   PUBLIC    XDATA    ---       rx_buf
      0100000EH   PUBLIC    CODE     ---       I2C_IRQ
      01000665H   PUBLIC    CODE     ---       _enviar_msg_to_host_hex
      0100061BH   PUBLIC    CODE     ---       _enviar_msg_to_host
      010007A8H   PUBLIC    CODE     ---       enviar_motion6
      0100091CH   PUBLIC    CODE     ---       luzes_iniciais
      01000056H   PUBLIC    CODE     ---       main
      010004C7H   PUBLIC    CODE     ---       setup
      010009E9H   PUBLIC    CODE     ---       iniciarIO
      01000AC7H   PUBLIC    CODE     ---       iniciarRF
      010006AFH   PUBLIC    CODE     ---       rf_init
      010002A7H   PUBLIC    CODE     ---       RF_IRQ
      01000811H   PUBLIC    CODE     ---       _TX_Mode_NOACK
      01000A1FH   PUBLIC    CODE     ---       RX_Mode
      00000029H   PUBLIC    DATA     BYTE      ?_SPI_Write_Buf?BYTE
      010008FDH   PUBLIC    CODE     ---       _SPI_Write_Buf
      00000036H   PUBLIC    DATA     BYTE      ?_SPI_Read_Buf?BYTE
      0100083DH   PUBLIC    CODE     ---       _SPI_Read_Buf
      01000AAEH   PUBLIC    CODE     ---       _SPI_Read
      010009C3H   PUBLIC    CODE     ---       _SPI_RW_Reg
      01000B73H   PUBLIC    CODE     ---       _SPI_RW
      01000B69H   PUBLIC    CODE     ---       stop_T0
      01000B5FH   PUBLIC    CODE     ---       start_T0
      01000A82H   PUBLIC    CODE     ---       TMR0_IRQ
      01000B55H   PUBLIC    CODE     ---       _setZGyroOffsetTC
      01000A72H   PUBLIC    CODE     ---       getZGyroOffsetTC
      01000B4BH   PUBLIC    CODE     ---       _setYGyroOffsetTC
      01000A62H   PUBLIC    CODE     ---       getYGyroOffsetTC
      01000B41H   PUBLIC    CODE     ---       _setXGyroOffsetTC
      01000A52H   PUBLIC    CODE     ---       getXGyroOffsetTC
      01000868H   PUBLIC    CODE     ---       _getFIFOBytes
      01000B91H   PUBLIC    CODE     ---       dmpGetFIFOPacketSize
LX51 LINKER/LOCATER V4.66.62.0                                                        11/14/2016  16:59:38  PAGE 13


      01000ABBH   PUBLIC    CODE     ---       resetFIFO
      01000AE9H   PUBLIC    CODE     ---       _setDMPEnabled
      010009B0H   PUBLIC    CODE     ---       getIntStatus
      01000985H   PUBLIC    CODE     ---       getFIFOCount
      0100096DH   PUBLIC    CODE     ---       _setMemoryBank
      01000ADEH   PUBLIC    CODE     ---       _setZGyroOffset
      01000AD3H   PUBLIC    CODE     ---       _setYGyroOffset
      01000BAAH   PUBLIC    CODE     ---       _setXGyroOffset
      01000BA2H   PUBLIC    CODE     ---       _setZAccelOffset
      01000B9AH   PUBLIC    CODE     ---       _setYAccelOffset
      01000003H   PUBLIC    CODE     ---       _setXAccelOffset
      01000100H   PUBLIC    CODE     ---       _getMotion6_packet
      01000938H   PUBLIC    CODE     ---       mpu_testConnection
      010007DEH   PUBLIC    CODE     ---       mpu_initialize
      00000098H.3 SFRSYM    DATA     BIT       TB80
      000000BEH   SFRSYM    DATA     BYTE      SPISSTAT
      000000C8H   SFRSYM    DATA     BIT       T2I0
      000000C3H   SFRSYM    DATA     BYTE      CCH1
      00000080H   SFRSYM    DATA     BYTE      P0
      000000C8H.1 SFRSYM    DATA     BIT       T2I1
      000000DFH   SFRSYM    DATA     BYTE      CCPDATO
      000000C5H   SFRSYM    DATA     BYTE      CCH2
      00000090H   SFRSYM    DATA     BYTE      P1
      000000C7H   SFRSYM    DATA     BYTE      CCH3
      000000A0H   SFRSYM    DATA     BYTE      P2
      00000098H.5 SFRSYM    DATA     BIT       SM20
      000000B0H   SFRSYM    DATA     BYTE      P3
      00000080H.2 SFRSYM    DATA     BIT       S1
      000000D0H.6 SFRSYM    DATA     BIT       AC
      000000C2H   SFRSYM    DATA     BYTE      CCL1
      00000090H.4 SFRSYM    DATA     BIT       S2
      000000C4H   SFRSYM    DATA     BYTE      CCL2
      000000D8H.7 SFRSYM    DATA     BIT       BD
      000000B8H   SFRSYM    DATA     BIT       RFSPI
      000000A8H.7 SFRSYM    DATA     BIT       EA
      000000CCH   SFRSYM    DATA     WORD      T2
      000000C6H   SFRSYM    DATA     BYTE      CCL3
      000000B7H   SFRSYM    DATA     BYTE      SPISRDSZ
      000000C8H.3 SFRSYM    DATA     BIT       T2R0
      000000C8H.4 SFRSYM    DATA     BIT       T2R1
      000000A8H   SFRSYM    DATA     BYTE      IEN0
      000000B8H   SFRSYM    DATA     BYTE      IEN1
      000000A5H   SFRSYM    DATA     BYTE      WUCON
      00000085H   SFRSYM    DATA     BYTE      DPH1
      000000DBH   SFRSYM    DATA     BYTE      COMPCON
      000000A3H   SFRSYM    DATA     BYTE      CLKCTRL
      00000084H   SFRSYM    DATA     BYTE      DPL1
      000000C8H.5 SFRSYM    DATA     BIT       I2FR
      000000B8H.3 SFRSYM    DATA     BIT       WUPIN
      000000C8H.6 SFRSYM    DATA     BIT       I3FR
      000000FFH   SFRSYM    DATA     BYTE      SPIMDAT
      000000C0H.7 SFRSYM    DATA     BIT       EXF2
      00000098H.4 SFRSYM    DATA     BIT       REN0
      000000C8H.2 SFRSYM    DATA     BIT       T2CM
      000000B8H.1 SFRSYM    DATA     BIT       RF
      000000B8H.5 SFRSYM    DATA     BIT       WUIRQ
      000000E7H   SFRSYM    DATA     BYTE      SPIRDAT
      000000C1H   SFRSYM    DATA     BYTE      CCEN
      000000E2H   SFRSYM    DATA     BYTE      W2CON0
      000000BFH   SFRSYM    DATA     BYTE      SPISDAT
      000000D0H.7 SFRSYM    DATA     BIT       CY
      000000E1H   SFRSYM    DATA     BYTE      W2CON1
      000000FBH   SFRSYM    DATA     BYTE      FDCR
      000000E8H   SFRSYM    DATA     BIT       RFCE
      000000CBH   SFRSYM    DATA     BYTE      CRCH
LX51 LINKER/LOCATER V4.66.62.0                                                        11/14/2016  16:59:38  PAGE 14


      00000081H   SFRSYM    DATA     BYTE      SP
      000000D0H.2 SFRSYM    DATA     BIT       OV
      000000CAH   SFRSYM    DATA     BYTE      CRCL
      000000ADH   SFRSYM    DATA     BYTE      CLKLFCTRL
      000000B1H   SFRSYM    DATA     BYTE      RSTREAS
      000000C8H.7 SFRSYM    DATA     BIT       T2PS
      000000F9H   SFRSYM    DATA     BYTE      FPCR
      000000B8H.4 SFRSYM    DATA     BIT       MISC
      000000A1H   SFRSYM    DATA     BYTE      PWMDC0
      000000B4H   SFRSYM    DATA     BYTE      RTC2CMP0
      000000A2H   SFRSYM    DATA     BYTE      PWMDC1
      000000B5H   SFRSYM    DATA     BYTE      RTC2CMP1
      00000080H   SFRSYM    DATA     BIT       P00
      000000BAH   SFRSYM    DATA     BYTE      S0RELH
      00000090H   SFRSYM    DATA     BIT       P10
      00000080H.1 SFRSYM    DATA     BIT       P01
      00000087H   SFRSYM    DATA     BYTE      PCON
      000000A0H   SFRSYM    DATA     BIT       P20
      00000090H.1 SFRSYM    DATA     BIT       P11
      00000080H.2 SFRSYM    DATA     BIT       P02
      000000B0H   SFRSYM    DATA     BIT       P30
      000000A0H.1 SFRSYM    DATA     BIT       P21
      00000090H.2 SFRSYM    DATA     BIT       P12
      00000080H.3 SFRSYM    DATA     BIT       P03
      000000C0H.2 SFRSYM    DATA     BIT       SPIF
      000000F8H.2 SFRSYM    DATA     BIT       RDIS
      000000B0H.1 SFRSYM    DATA     BIT       P31
      000000A0H.2 SFRSYM    DATA     BIT       P22
      00000090H.3 SFRSYM    DATA     BIT       P13
      00000080H.4 SFRSYM    DATA     BIT       P04
      000000AAH   SFRSYM    DATA     BYTE      S0RELL
      000000B0H.2 SFRSYM    DATA     BIT       P32
      000000A0H.3 SFRSYM    DATA     BIT       P23
      00000090H.4 SFRSYM    DATA     BIT       P14
      00000080H.5 SFRSYM    DATA     BIT       P05
      000000D9H   SFRSYM    DATA     BYTE      W2SADR
      00000089H   SFRSYM    DATA     BYTE      TMOD
      00000088H   SFRSYM    DATA     BYTE      TCON
      000000B0H.3 SFRSYM    DATA     BIT       P33
      000000A0H.4 SFRSYM    DATA     BIT       P24
      00000090H.5 SFRSYM    DATA     BIT       P15
      00000080H.6 SFRSYM    DATA     BIT       P06
      000000B0H.4 SFRSYM    DATA     BIT       P34
      000000A0H.5 SFRSYM    DATA     BIT       P25
      00000090H.6 SFRSYM    DATA     BIT       P16
      00000080H.7 SFRSYM    DATA     BIT       P07
      000000C2H   SFRSYM    DATA     WORD      CC1
      000000B0H.5 SFRSYM    DATA     BIT       P35
      000000A0H.6 SFRSYM    DATA     BIT       P26
      00000090H.7 SFRSYM    DATA     BIT       P17
      000000C4H   SFRSYM    DATA     WORD      CC2
      000000B0H.6 SFRSYM    DATA     BIT       P36
      000000A0H.7 SFRSYM    DATA     BIT       P27
      000000C6H   SFRSYM    DATA     WORD      CC3
      000000B0H.7 SFRSYM    DATA     BIT       P37
      000000E8H.2 SFRSYM    DATA     BIT       RFCKEN
      000000F8H   SFRSYM    DATA     BIT       WPEN
      000000DDH   SFRSYM    DATA     BYTE      CCPDATIA
      000000DEH   SFRSYM    DATA     BYTE      CCPDATIB
      00000088H.1 SFRSYM    DATA     BIT       IE0
      000000F8H.4 SFRSYM    DATA     BIT       RDYN
      00000088H.3 SFRSYM    DATA     BIT       IE1
      000000CFH   SFRSYM    DATA     BYTE      WUOPC0
      000000F0H   SFRSYM    DATA     BYTE      B
      000000E9H   SFRSYM    DATA     BYTE      MD0
LX51 LINKER/LOCATER V4.66.62.0                                                        11/14/2016  16:59:38  PAGE 15


      000000CEH   SFRSYM    DATA     BYTE      WUOPC1
      000000A7H   SFRSYM    DATA     BYTE      MEMCON
      000000EAH   SFRSYM    DATA     BYTE      MD1
      000000D7H   SFRSYM    DATA     BYTE      RNGDAT
      000000EBH   SFRSYM    DATA     BYTE      MD2
      000000ECH   SFRSYM    DATA     BYTE      MD3
      000000EDH   SFRSYM    DATA     BYTE      MD4
      000000AFH   SFRSYM    DATA     BYTE      WDSV
      000000EEH   SFRSYM    DATA     BYTE      MD5
      000000E0H   SFRSYM    DATA     BYTE      ACC
      000000DCH   SFRSYM    DATA     BYTE      POFCON
      000000A8H.4 SFRSYM    DATA     BIT       ES0
      000000A8H.1 SFRSYM    DATA     BIT       ET0
      000000A9H   SFRSYM    DATA     BYTE      IP0
      000000A8H.3 SFRSYM    DATA     BIT       ET1
      00000088H.5 SFRSYM    DATA     BIT       TF0
      000000B9H   SFRSYM    DATA     BYTE      IP1
      000000A8H.5 SFRSYM    DATA     BIT       ET2
      00000098H   SFRSYM    DATA     BIT       RI0
      00000088H.7 SFRSYM    DATA     BIT       TF1
      000000C0H   SFRSYM    DATA     BIT       RFSPIF
      000000C0H.6 SFRSYM    DATA     BIT       TF2
      000000FCH   SFRSYM    DATA     BYTE      SPIMCON0
      000000D6H   SFRSYM    DATA     BYTE      RNGCTL
      0000008CH   SFRSYM    DATA     BYTE      TH0
      000000A8H   SFRSYM    DATA     BIT       EX0
      00000098H.1 SFRSYM    DATA     BIT       TI0
      00000088H   SFRSYM    DATA     BIT       IT0
      000000FDH   SFRSYM    DATA     BYTE      SPIMCON1
      0000008DH   SFRSYM    DATA     BYTE      TH1
      000000A8H.2 SFRSYM    DATA     BIT       EX1
      00000088H.2 SFRSYM    DATA     BIT       IT1
      000000CDH   SFRSYM    DATA     BYTE      TH2
      000000AEH   SFRSYM    DATA     BYTE      OPMCON
      000000D0H   SFRSYM    DATA     BIT       P
      00000098H.7 SFRSYM    DATA     BIT       SM0
      0000008AH   SFRSYM    DATA     BYTE      TL0
      00000098H.6 SFRSYM    DATA     BIT       SM1
      000000E4H   SFRSYM    DATA     BYTE      SPIRCON0
      0000008BH   SFRSYM    DATA     BYTE      TL1
      000000E5H   SFRSYM    DATA     BYTE      SPIRCON1
      000000CCH   SFRSYM    DATA     BYTE      TL2
      000000BCH   SFRSYM    DATA     BYTE      SPISCON0
      000000BDH   SFRSYM    DATA     BYTE      SPISCON1
      000000D0H.3 SFRSYM    DATA     BIT       RS0
      00000088H.4 SFRSYM    DATA     BIT       TR0
      000000D0H.4 SFRSYM    DATA     BIT       RS1
      000000B2H   SFRSYM    DATA     BYTE      PWMCON
      00000088H.6 SFRSYM    DATA     BIT       TR1
      000000CAH   SFRSYM    DATA     WORD      CRC
      000000A6H   SFRSYM    DATA     BYTE      INTEXP
      000000C0H.3 SFRSYM    DATA     BIT       WUPINF
      000000FAH   SFRSYM    DATA     BYTE      FCR
      000000D3H   SFRSYM    DATA     BYTE      ADCCON1
      000000D2H   SFRSYM    DATA     BYTE      ADCCON2
      00000083H   SFRSYM    DATA     BYTE      DPH
      000000D1H   SFRSYM    DATA     BYTE      ADCCON3
      000000C0H.1 SFRSYM    DATA     BIT       RFF
      00000093H   SFRSYM    DATA     BYTE      P0DIR
      00000082H   SFRSYM    DATA     BYTE      DPL
      0000009EH   SFRSYM    DATA     BYTE      P0CON
      00000099H   SFRSYM    DATA     BYTE      S0BUF
      00000094H   SFRSYM    DATA     BYTE      P1DIR
      0000009FH   SFRSYM    DATA     BYTE      P1CON
      00000095H   SFRSYM    DATA     BYTE      P2DIR
LX51 LINKER/LOCATER V4.66.62.0                                                        11/14/2016  16:59:38  PAGE 16


      000000B8H.7 SFRSYM    DATA     BIT       EXEN2
      000000DAH   SFRSYM    DATA     BYTE      W2DAT
      00000097H   SFRSYM    DATA     BYTE      P2CON
      00000096H   SFRSYM    DATA     BYTE      P3DIR
      000000A4H   SFRSYM    DATA     BYTE      PWRDWN
      00000098H   SFRSYM    DATA     BYTE      S0CON
      0000008FH   SFRSYM    DATA     BYTE      P3CON
      000000B6H   SFRSYM    DATA     BYTE      RTC2CPT00
      000000D8H   SFRSYM    DATA     BYTE      ADCON
      000000ACH   SFRSYM    DATA     BYTE      RTC2CPT10
      000000ABH   SFRSYM    DATA     BYTE      RTC2CPT01
      000000C8H   SFRSYM    DATA     BYTE      T2CON
      00000092H   SFRSYM    DATA     BYTE      DPS
      000000F8H.5 SFRSYM    DATA     BIT       WEN
      000000F8H   SFRSYM    DATA     BYTE      FSR
      000000D4H   SFRSYM    DATA     BYTE      ADCDATH
      000000C9H   SFRSYM    DATA     BYTE      MPAGE
      000000B8H.2 SFRSYM    DATA     BIT       SPI
      000000F8H.1 SFRSYM    DATA     BIT       RDEND
      000000D5H   SFRSYM    DATA     BYTE      ADCDATL
      000000F8H.3 SFRSYM    DATA     BIT       INFEN
      000000F8H.7 SFRSYM    DATA     BIT       MCDIS
      000000C0H.5 SFRSYM    DATA     BIT       WUF
      000000C0H.4 SFRSYM    DATA     BIT       MISCF
      000000EFH   SFRSYM    DATA     BYTE      ARCON
      000000D0H.5 SFRSYM    DATA     BIT       F0
      000000F8H.6 SFRSYM    DATA     BIT       STP
      000000FEH   SFRSYM    DATA     BYTE      SPIMSTAT
      00000080H.3 SFRSYM    DATA     BIT       LEDVM
      000000E8H   SFRSYM    DATA     BYTE      RFCON
      000000D0H   SFRSYM    DATA     BYTE      PSW
      00000098H.2 SFRSYM    DATA     BIT       RB80
      000000C0H   SFRSYM    DATA     BYTE      IRCON
      000000E8H.1 SFRSYM    DATA     BIT       RFCSN
      000000E6H   SFRSYM    DATA     BYTE      SPIRSTAT
      000000B3H   SFRSYM    DATA     BYTE      RTC2CON

      010003A0H   BLOCK     CODE     ---       LVL=0
      ---         BLOCKEND  ---      ---       LVL=0

      010007DEH   BLOCK     CODE     ---       LVL=0
      010007DEH   LINE      CODE     ---       #37
      010007DEH   LINE      CODE     ---       #38
      010007E8H   LINE      CODE     ---       #39
      010007EDH   LINE      CODE     ---       #40
      010007F7H   LINE      CODE     ---       #41
      01000803H   LINE      CODE     ---       #42
      ---         BLOCKEND  ---      ---       LVL=0

      01000938H   BLOCK     CODE     ---       LVL=0
      01000938H   LINE      CODE     ---       #43
      01000938H   LINE      CODE     ---       #44
      0100093DH   LINE      CODE     ---       #45
      01000947H   LINE      CODE     ---       #46
      01000952H   LINE      CODE     ---       #47
      ---         BLOCKEND  ---      ---       LVL=0

      01000100H   BLOCK     CODE     ---       LVL=0
      00000022H   SYMBOL    DATA     ---       packet6
      01000100H   LINE      CODE     ---       #48
      01000106H   LINE      CODE     ---       #49
      01000112H   LINE      CODE     ---       #50
      0100011FH   LINE      CODE     ---       #51
      0100012FH   LINE      CODE     ---       #52
      01000139H   LINE      CODE     ---       #53
LX51 LINKER/LOCATER V4.66.62.0                                                        11/14/2016  16:59:38  PAGE 17


      01000143H   LINE      CODE     ---       #54
      0100014DH   LINE      CODE     ---       #55
      01000157H   LINE      CODE     ---       #56
      01000161H   LINE      CODE     ---       #57
      0100016BH   LINE      CODE     ---       #58
      01000175H   LINE      CODE     ---       #59
      0100017FH   LINE      CODE     ---       #60
      01000189H   LINE      CODE     ---       #61
      ---         BLOCKEND  ---      ---       LVL=0

      01000003H   BLOCK     CODE     ---       LVL=0
      00000002H   SYMBOL    DATA     INT       offset
      01000003H   LINE      CODE     ---       #63
      01000003H   LINE      CODE     ---       #64
      ---         BLOCKEND  ---      ---       LVL=0

      01000B9AH   BLOCK     CODE     ---       LVL=0
      00000002H   SYMBOL    DATA     INT       offset
      01000B9AH   LINE      CODE     ---       #66
      01000B9AH   LINE      CODE     ---       #67
      ---         BLOCKEND  ---      ---       LVL=0

      01000BA2H   BLOCK     CODE     ---       LVL=0
      00000002H   SYMBOL    DATA     INT       offset
      01000BA2H   LINE      CODE     ---       #69
      01000BA2H   LINE      CODE     ---       #70
      ---         BLOCKEND  ---      ---       LVL=0

      01000BAAH   BLOCK     CODE     ---       LVL=0
      00000002H   SYMBOL    DATA     INT       offset
      01000BAAH   LINE      CODE     ---       #72
      01000BAAH   LINE      CODE     ---       #73
      ---         BLOCKEND  ---      ---       LVL=0

      01000AD3H   BLOCK     CODE     ---       LVL=0
      00000002H   SYMBOL    DATA     INT       offset
      01000AD3H   LINE      CODE     ---       #75
      01000AD7H   LINE      CODE     ---       #76
      ---         BLOCKEND  ---      ---       LVL=0

      01000ADEH   BLOCK     CODE     ---       LVL=0
      00000002H   SYMBOL    DATA     INT       offset
      01000ADEH   LINE      CODE     ---       #78
      01000AE2H   LINE      CODE     ---       #79
      ---         BLOCKEND  ---      ---       LVL=0

      0100096DH   BLOCK     CODE     ---       LVL=0
      00000007H   SYMBOL    DATA     BYTE      bank
      00000005H   SYMBOL    DATA     BYTE      prefetchEnabled
      00000003H   SYMBOL    DATA     BYTE      userBank
      0100096DH   LINE      CODE     ---       #85
      0100096DH   LINE      CODE     ---       #86
      01000970H   LINE      CODE     ---       #87
      01000976H   LINE      CODE     ---       #88
      0100097CH   LINE      CODE     ---       #89
      ---         BLOCKEND  ---      ---       LVL=0

      01000985H   BLOCK     CODE     ---       LVL=0
      01000985H   LINE      CODE     ---       #92
      01000985H   LINE      CODE     ---       #93
      01000991H   LINE      CODE     ---       #94
      0100099BH   LINE      CODE     ---       #95
      ---         BLOCKEND  ---      ---       LVL=0

      010009B0H   BLOCK     CODE     ---       LVL=0
LX51 LINKER/LOCATER V4.66.62.0                                                        11/14/2016  16:59:38  PAGE 18


      010009B0H   LINE      CODE     ---       #97
      010009B0H   LINE      CODE     ---       #98
      010009BDH   LINE      CODE     ---       #99
      010009C2H   LINE      CODE     ---       #100
      ---         BLOCKEND  ---      ---       LVL=0

      01000AE9H   BLOCK     CODE     ---       LVL=0
      00000007H   SYMBOL    DATA     BYTE      enabled
      01000AE9H   LINE      CODE     ---       #102
      01000AE9H   LINE      CODE     ---       #103
      ---         BLOCKEND  ---      ---       LVL=0

      01000ABBH   BLOCK     CODE     ---       LVL=0
      01000ABBH   LINE      CODE     ---       #106
      01000ABBH   LINE      CODE     ---       #107
      ---         BLOCKEND  ---      ---       LVL=0

      01000B91H   BLOCK     CODE     ---       LVL=0
      01000B91H   LINE      CODE     ---       #110
      01000B91H   LINE      CODE     ---       #111
      01000B99H   LINE      CODE     ---       #112
      ---         BLOCKEND  ---      ---       LVL=0

      01000868H   BLOCK     CODE     ---       LVL=0
      00000053H   SYMBOL    DATA     ---       data_ptr
      00000007H   SYMBOL    DATA     BYTE      data_len
      01000868H   LINE      CODE     ---       #114
      01000870H   LINE      CODE     ---       #115
      01000876H   LINE      CODE     ---       #116
      01000886H   LINE      CODE     ---       #117
      01000886H   LINE      CODE     ---       #118
      01000890H   LINE      CODE     ---       #119
      01000890H   LINE      CODE     ---       #120
      ---         BLOCKEND  ---      ---       LVL=0

      01000A52H   BLOCK     CODE     ---       LVL=0
      01000A52H   LINE      CODE     ---       #122
      01000A52H   LINE      CODE     ---       #123
      01000A5CH   LINE      CODE     ---       #124
      01000A61H   LINE      CODE     ---       #125
      ---         BLOCKEND  ---      ---       LVL=0

      01000B41H   BLOCK     CODE     ---       LVL=0
      00000007H   SYMBOL    DATA     CHAR      offset
      01000B41H   LINE      CODE     ---       #126
      01000B41H   LINE      CODE     ---       #127
      ---         BLOCKEND  ---      ---       LVL=0

      01000A62H   BLOCK     CODE     ---       LVL=0
      01000A62H   LINE      CODE     ---       #132
      01000A62H   LINE      CODE     ---       #133
      01000A6CH   LINE      CODE     ---       #134
      01000A71H   LINE      CODE     ---       #135
      ---         BLOCKEND  ---      ---       LVL=0

      01000B4BH   BLOCK     CODE     ---       LVL=0
      00000007H   SYMBOL    DATA     CHAR      offset
      01000B4BH   LINE      CODE     ---       #136
      01000B4BH   LINE      CODE     ---       #137
      ---         BLOCKEND  ---      ---       LVL=0

      01000A72H   BLOCK     CODE     ---       LVL=0
      01000A72H   LINE      CODE     ---       #142
      01000A72H   LINE      CODE     ---       #143
      01000A7CH   LINE      CODE     ---       #144
LX51 LINKER/LOCATER V4.66.62.0                                                        11/14/2016  16:59:38  PAGE 19


      01000A81H   LINE      CODE     ---       #145
      ---         BLOCKEND  ---      ---       LVL=0

      01000B55H   BLOCK     CODE     ---       LVL=0
      00000007H   SYMBOL    DATA     CHAR      offset
      01000B55H   LINE      CODE     ---       #146
      01000B55H   LINE      CODE     ---       #147
      ---         BLOCKEND  ---      ---       LVL=0

      01000A82H   BLOCK     CODE     ---       LVL=0
      01000A82H   LINE      CODE     ---       #25
      01000A84H   LINE      CODE     ---       #27
      01000A84H   LINE      CODE     ---       #28
      01000A84H   LINE      CODE     ---       #29
      01000A8CH   LINE      CODE     ---       #30
      01000A8CH   LINE      CODE     ---       #31
      01000A8FH   LINE      CODE     ---       #32
      01000A8FH   LINE      CODE     ---       #33
      ---         BLOCKEND  ---      ---       LVL=0

      01000B5FH   BLOCK     CODE     ---       LVL=0
      01000B5FH   LINE      CODE     ---       #35
      01000B5FH   LINE      CODE     ---       #36
      01000B5FH   LINE      CODE     ---       #37
      01000B5FH   LINE      CODE     ---       #38
      01000B5FH   LINE      CODE     ---       #39
      01000B62H   LINE      CODE     ---       #40
      01000B64H   LINE      CODE     ---       #41
      01000B66H   LINE      CODE     ---       #42
      01000B68H   LINE      CODE     ---       #43
      ---         BLOCKEND  ---      ---       LVL=0

      01000B69H   BLOCK     CODE     ---       LVL=0
      01000B69H   LINE      CODE     ---       #45
      01000B69H   LINE      CODE     ---       #46
      01000B69H   LINE      CODE     ---       #47
      01000B69H   LINE      CODE     ---       #48
      01000B69H   LINE      CODE     ---       #49
      01000B6CH   LINE      CODE     ---       #50
      01000B6EH   LINE      CODE     ---       #51
      01000B70H   LINE      CODE     ---       #52
      01000B72H   LINE      CODE     ---       #53
      ---         BLOCKEND  ---      ---       LVL=0

      01000B73H   BLOCK     CODE     ---       LVL=0
      00000007H   SYMBOL    DATA     BYTE      value
      01000B73H   LINE      CODE     ---       #32
      01000B73H   LINE      CODE     ---       #33
      01000B73H   LINE      CODE     ---       #34
      01000B75H   LINE      CODE     ---       #36
      01000B7AH   LINE      CODE     ---       #38
      01000B7CH   LINE      CODE     ---       #39
      ---         BLOCKEND  ---      ---       LVL=0

      010009C3H   BLOCK     CODE     ---       LVL=0
      00000007H   SYMBOL    DATA     BYTE      reg
      00000006H   SYMBOL    DATA     BYTE      value
      010009C5H   BLOCK     CODE     NEAR LAB  LVL=1
      00000005H   SYMBOL    DATA     BYTE      status
      ---         BLOCKEND  ---      ---       LVL=1
      010009C3H   LINE      CODE     ---       #41
      010009C5H   LINE      CODE     ---       #42
      010009C5H   LINE      CODE     ---       #45
      010009C7H   LINE      CODE     ---       #46
      010009CCH   LINE      CODE     ---       #47
LX51 LINKER/LOCATER V4.66.62.0                                                        11/14/2016  16:59:38  PAGE 20


      010009D1H   LINE      CODE     ---       #48
      010009D3H   LINE      CODE     ---       #50
      010009D5H   LINE      CODE     ---       #51
      ---         BLOCKEND  ---      ---       LVL=0

      01000AAEH   BLOCK     CODE     ---       LVL=0
      00000007H   SYMBOL    DATA     BYTE      reg
      01000AAEH   BLOCK     CODE     NEAR LAB  LVL=1
      00000007H   SYMBOL    DATA     BYTE      reg_val
      ---         BLOCKEND  ---      ---       LVL=1
      01000AAEH   LINE      CODE     ---       #53
      01000AAEH   LINE      CODE     ---       #54
      01000AAEH   LINE      CODE     ---       #57
      01000AB0H   LINE      CODE     ---       #58
      01000AB3H   LINE      CODE     ---       #59
      01000AB8H   LINE      CODE     ---       #60
      01000ABAH   LINE      CODE     ---       #62
      01000ABAH   LINE      CODE     ---       #63
      ---         BLOCKEND  ---      ---       LVL=0

      0100083DH   BLOCK     CODE     ---       LVL=0
      00000007H   SYMBOL    DATA     BYTE      reg
      00000037H   SYMBOL    DATA     ---       pBuf
      0000003AH   SYMBOL    DATA     BYTE      bytes
      01000843H   BLOCK     CODE     NEAR LAB  LVL=1
      00000006H   SYMBOL    DATA     BYTE      status
      00000005H   SYMBOL    DATA     BYTE      byte_ctr
      ---         BLOCKEND  ---      ---       LVL=1
      0100083DH   LINE      CODE     ---       #65
      01000843H   LINE      CODE     ---       #66
      01000843H   LINE      CODE     ---       #69
      01000843H   LINE      CODE     ---       #70
      01000843H   LINE      CODE     ---       #72
      0100084CH   LINE      CODE     ---       #73
      01000863H   LINE      CODE     ---       #75
      01000865H   LINE      CODE     ---       #77
      01000867H   LINE      CODE     ---       #78
      ---         BLOCKEND  ---      ---       LVL=0

      010008FDH   BLOCK     CODE     ---       LVL=0
      00000007H   SYMBOL    DATA     BYTE      reg
      0000002AH   SYMBOL    DATA     ---       pBuf
      0000002DH   SYMBOL    DATA     BYTE      bytes
      01000903H   BLOCK     CODE     NEAR LAB  LVL=1
      00000006H   SYMBOL    DATA     BYTE      status
      00000005H   SYMBOL    DATA     BYTE      byte_ctr
      ---         BLOCKEND  ---      ---       LVL=1
      010008FDH   LINE      CODE     ---       #80
      01000903H   LINE      CODE     ---       #81
      01000903H   LINE      CODE     ---       #84
      01000903H   LINE      CODE     ---       #85
      01000903H   LINE      CODE     ---       #86
      0100090CH   LINE      CODE     ---       #87
      01000917H   LINE      CODE     ---       #88
      01000919H   LINE      CODE     ---       #89
      0100091BH   LINE      CODE     ---       #90
      ---         BLOCKEND  ---      ---       LVL=0

      01000A1FH   BLOCK     CODE     ---       LVL=0
      01000A1FH   LINE      CODE     ---       #93
      01000A1FH   LINE      CODE     ---       #94
      01000A1FH   LINE      CODE     ---       #95
      01000A22H   LINE      CODE     ---       #96
      01000A24H   LINE      CODE     ---       #97
      01000A26H   LINE      CODE     ---       #98
LX51 LINKER/LOCATER V4.66.62.0                                                        11/14/2016  16:59:38  PAGE 21


      01000A2DH   LINE      CODE     ---       #99
      01000A2FH   LINE      CODE     ---       #100
      ---         BLOCKEND  ---      ---       LVL=0

      01000811H   BLOCK     CODE     ---       LVL=0
      00000027H   SYMBOL    DATA     INT       payloadLength
      01000811H   LINE      CODE     ---       #102
      01000815H   LINE      CODE     ---       #103
      01000815H   LINE      CODE     ---       #104
      01000817H   LINE      CODE     ---       #105
      0100081EH   LINE      CODE     ---       #106
      01000826H   LINE      CODE     ---       #107
      01000834H   LINE      CODE     ---       #109
      01000836H   LINE      CODE     ---       #110
      0100083CH   LINE      CODE     ---       #111
      ---         BLOCKEND  ---      ---       LVL=0

      010002A7H   BLOCK     CODE     ---       LVL=0
      010002A7H   LINE      CODE     ---       #114
      010002C0H   LINE      CODE     ---       #116
      010002C7H   LINE      CODE     ---       #117
      010002CAH   LINE      CODE     ---       #118
      010002CAH   LINE      CODE     ---       #119
      010002D8H   LINE      CODE     ---       #120
      010002DFH   LINE      CODE     ---       #121
      010002E1H   LINE      CODE     ---       #122
      010002E8H   LINE      CODE     ---       #123
      010002EFH   LINE      CODE     ---       #124
      010002EFH   LINE      CODE     ---       #125
      010002F2H   LINE      CODE     ---       #126
      010002F9H   LINE      CODE     ---       #127
      010002FBH   LINE      CODE     ---       #128
      010002FBH   LINE      CODE     ---       #129
      010002FBH   LINE      CODE     ---       #130
      010002FEH   LINE      CODE     ---       #131
      01000305H   LINE      CODE     ---       #132
      01000308H   LINE      CODE     ---       #133
      0100030FH   LINE      CODE     ---       #134
      01000316H   LINE      CODE     ---       #135
      ---         BLOCKEND  ---      ---       LVL=0

      010006AFH   BLOCK     CODE     ---       LVL=0
      010006AFH   LINE      CODE     ---       #138
      010006AFH   LINE      CODE     ---       #139
      010006AFH   LINE      CODE     ---       #140
      010006B1H   LINE      CODE     ---       #141
      010006B3H   LINE      CODE     ---       #143
      010006BBH   LINE      CODE     ---       #144
      010006C3H   LINE      CODE     ---       #145
      010006CAH   LINE      CODE     ---       #147
      010006D1H   LINE      CODE     ---       #148
      010006D8H   LINE      CODE     ---       #149
      010006DFH   LINE      CODE     ---       #150
      010006E6H   LINE      CODE     ---       #152
      010006EDH   LINE      CODE     ---       #153
      ---         BLOCKEND  ---      ---       LVL=0

      01000AC7H   BLOCK     CODE     ---       LVL=0
      01000AC7H   LINE      CODE     ---       #157
      01000AC7H   LINE      CODE     ---       #159
      01000AC9H   LINE      CODE     ---       #160
      01000ACBH   LINE      CODE     ---       #161
      01000ACDH   LINE      CODE     ---       #162
      01000AD0H   LINE      CODE     ---       #163
      ---         BLOCKEND  ---      ---       LVL=0
LX51 LINKER/LOCATER V4.66.62.0                                                        11/14/2016  16:59:38  PAGE 22



      010009E9H   BLOCK     CODE     ---       LVL=0
      010009E9H   LINE      CODE     ---       #39
      010009E9H   LINE      CODE     ---       #41
      010009ECH   LINE      CODE     ---       #42
      010009EFH   LINE      CODE     ---       #43
      010009F2H   LINE      CODE     ---       #44
      010009F5H   LINE      CODE     ---       #46
      010009F8H   LINE      CODE     ---       #47
      010009FAH   LINE      CODE     ---       #48
      ---         BLOCKEND  ---      ---       LVL=0

      010004C7H   BLOCK     CODE     ---       LVL=0
      010004C7H   LINE      CODE     ---       #49
      010004C7H   LINE      CODE     ---       #50
      010004CAH   LINE      CODE     ---       #51
      010004CDH   LINE      CODE     ---       #52
      010004D2H   LINE      CODE     ---       #53
      010004D7H   LINE      CODE     ---       #55
      010004E0H   LINE      CODE     ---       #56
      010004E3H   LINE      CODE     ---       #57
      010004ECH   LINE      CODE     ---       #58
      010004F5H   LINE      CODE     ---       #64
      0100050AH   LINE      CODE     ---       #65
      ---         BLOCKEND  ---      ---       LVL=0

      01000056H   BLOCK     CODE     ---       LVL=0
      01000056H   LINE      CODE     ---       #68
      01000056H   LINE      CODE     ---       #69
      01000059H   LINE      CODE     ---       #70
      01000059H   LINE      CODE     ---       #71
      0100005CH   LINE      CODE     ---       #72
      0100005CH   LINE      CODE     ---       #73
      0100005FH   LINE      CODE     ---       #74
      01000062H   LINE      CODE     ---       #75
      01000065H   LINE      CODE     ---       #76
      01000068H   LINE      CODE     ---       #77
      01000068H   LINE      CODE     ---       #78
      0100006BH   LINE      CODE     ---       #79
      0100006EH   LINE      CODE     ---       #80
      01000074H   LINE      CODE     ---       #81
      01000077H   LINE      CODE     ---       #82
      0100007AH   LINE      CODE     ---       #83
      01000081H   LINE      CODE     ---       #84
      01000084H   LINE      CODE     ---       #85
      01000087H   LINE      CODE     ---       #86
      01000089H   LINE      CODE     ---       #87
      01000090H   LINE      CODE     ---       #88
      01000093H   LINE      CODE     ---       #89
      0100009AH   LINE      CODE     ---       #90
      0100009AH   LINE      CODE     ---       #91
      0100009DH   LINE      CODE     ---       #93
      010000A4H   LINE      CODE     ---       #94
      010000ADH   LINE      CODE     ---       #95
      010000ADH   LINE      CODE     ---       #96
      010000ADH   LINE      CODE     ---       #97
      010000B0H   LINE      CODE     ---       #98
      010000B2H   LINE      CODE     ---       #99
      010000B2H   LINE      CODE     ---       #100
      010000B5H   LINE      CODE     ---       #101
      010000B8H   LINE      CODE     ---       #102
      010000BAH   LINE      CODE     ---       #103
      010000BAH   LINE      CODE     ---       #104
      010000BAH   LINE      CODE     ---       #105
      010000BAH   LINE      CODE     ---       #106
LX51 LINKER/LOCATER V4.66.62.0                                                        11/14/2016  16:59:38  PAGE 23


      010000BDH   LINE      CODE     ---       #107
      010000BFH   LINE      CODE     ---       #108
      010000BFH   LINE      CODE     ---       #110
      010000CCH   LINE      CODE     ---       #111
      010000D5H   LINE      CODE     ---       #112
      010000D8H   LINE      CODE     ---       #113
      010000DEH   LINE      CODE     ---       #114
      010000DEH   LINE      CODE     ---       #115
      010000E1H   LINE      CODE     ---       #116
      ---         BLOCKEND  ---      ---       LVL=0

      0100091CH   BLOCK     CODE     ---       LVL=0
      0100091CH   LINE      CODE     ---       #117
      0100091CH   LINE      CODE     ---       #118
      0100091CH   LINE      CODE     ---       #119
      0100091CH   LINE      CODE     ---       #120
      0100091CH   LINE      CODE     ---       #121
      0100091FH   LINE      CODE     ---       #122
      0100091FH   LINE      CODE     ---       #123
      0100091FH   LINE      CODE     ---       #124
      0100091FH   LINE      CODE     ---       #125
      01000922H   LINE      CODE     ---       #126
      01000924H   LINE      CODE     ---       #127
      ---         BLOCKEND  ---      ---       LVL=0

      010007A8H   BLOCK     CODE     ---       LVL=0
      010007A8H   BLOCK     CODE     NEAR LAB  LVL=1
      00000006H   SYMBOL    DATA     WORD      i
      ---         BLOCKEND  ---      ---       LVL=1
      010007A8H   LINE      CODE     ---       #129
      010007A8H   LINE      CODE     ---       #131
      010007AEH   LINE      CODE     ---       #132
      010007B1H   LINE      CODE     ---       #133
      010007C9H   LINE      CODE     ---       #134
      010007D4H   LINE      CODE     ---       #136
      010007DBH   LINE      CODE     ---       #137
      ---         BLOCKEND  ---      ---       LVL=0

      0100061BH   BLOCK     CODE     ---       LVL=0
      00000022H   SYMBOL    DATA     ---       msg_to_send
      01000621H   BLOCK     CODE     NEAR LAB  LVL=1
      00000025H   SYMBOL    DATA     WORD      i
      ---         BLOCKEND  ---      ---       LVL=1
      0100061BH   LINE      CODE     ---       #140
      01000621H   LINE      CODE     ---       #142
      01000627H   LINE      CODE     ---       #143
      0100062DH   LINE      CODE     ---       #144
      01000638H   LINE      CODE     ---       #145
      01000647H   LINE      CODE     ---       #146
      01000654H   LINE      CODE     ---       #147
      01000654H   LINE      CODE     ---       #148
      01000654H   LINE      CODE     ---       #150
      0100065BH   LINE      CODE     ---       #151
      0100065EH   LINE      CODE     ---       #152
      ---         BLOCKEND  ---      ---       LVL=0

      01000665H   BLOCK     CODE     ---       LVL=0
      0000004EH   SYMBOL    DATA     ---       msg_to_send
      0100066BH   BLOCK     CODE     NEAR LAB  LVL=1
      00000051H   SYMBOL    DATA     WORD      i
      ---         BLOCKEND  ---      ---       LVL=1
      01000665H   LINE      CODE     ---       #155
      0100066BH   LINE      CODE     ---       #157
      01000671H   LINE      CODE     ---       #158
      01000677H   LINE      CODE     ---       #159
LX51 LINKER/LOCATER V4.66.62.0                                                        11/14/2016  16:59:38  PAGE 24


      01000682H   LINE      CODE     ---       #160
      01000691H   LINE      CODE     ---       #161
      0100069EH   LINE      CODE     ---       #162
      0100069EH   LINE      CODE     ---       #163
      0100069EH   LINE      CODE     ---       #165
      010006A5H   LINE      CODE     ---       #166
      010006A8H   LINE      CODE     ---       #167
      ---         BLOCKEND  ---      ---       LVL=0

      0100000EH   BLOCK     CODE     ---       LVL=0
      0100000EH   LINE      CODE     ---       #171
      0100002BH   LINE      CODE     ---       #172
      0100002EH   LINE      CODE     ---       #173
      ---         BLOCKEND  ---      ---       LVL=0

      ---         MODULE    ---      ---       HAL_W2_ISR
      00000057H   PUBLIC    DATA     BYTE      w2_status
      00000056H   PUBLIC    DATA     BYTE      data_ready
      00000024H   PUBLIC    DATA     BYTE      ?_i2c_mpu_writeWords?BYTE
      01000577H   PUBLIC    CODE     ---       _i2c_mpu_writeWords
      010009D6H   PUBLIC    CODE     ---       _i2c_mpu_writeWord
      00000008H   PUBLIC    DATA     BYTE      ?_i2c_mpu_readBits?BYTE
      0100051FH   PUBLIC    CODE     ---       _i2c_mpu_readBits
      0000003BH   PUBLIC    DATA     BYTE      ?_i2c_mpu_readBit?BYTE
      010008B8H   PUBLIC    CODE     ---       _i2c_mpu_readBit
      00000022H   PUBLIC    DATA     BYTE      ?_i2c_mpu_writeBits?BYTE
      01000407H   PUBLIC    CODE     ---       _i2c_mpu_writeBits
      00000022H   PUBLIC    DATA     BYTE      ?_i2c_mpu_writeBit?BYTE
      010005CDH   PUBLIC    CODE     ---       _i2c_mpu_writeBit
      0000002CH   PUBLIC    DATA     BYTE      ?_i2c_mpu_readBytes?BYTE
      0100046AH   PUBLIC    CODE     ---       _i2c_mpu_readBytes
      01000A0DH   PUBLIC    CODE     ---       _i2c_mpu_readByte
      0000002AH   PUBLIC    DATA     BYTE      ?_i2c_mpu_writeBytes?BYTE
      01000736H   PUBLIC    CODE     ---       _i2c_mpu_writeBytes
      01000A41H   PUBLIC    CODE     ---       _i2c_mpu_writeByte
      0100032DH   PUBLIC    CODE     ---       hal_w2_soft_reset
      00000048H   PUBLIC    DATA     BYTE      ?_hal_w2_read?BYTE
      010006F4H   PUBLIC    CODE     ---       _hal_w2_read
      00000042H   PUBLIC    DATA     BYTE      ?_hal_w2_write?BYTE
      01000770H   PUBLIC    CODE     ---       _hal_w2_write
      010009FBH   PUBLIC    CODE     ---       _hal_w2_init_transfer
      01000891H   PUBLIC    CODE     ---       hal_w2_wait_data_ready
      010008DCH   PUBLIC    CODE     ---       _hal_w2_configure_master
      01000B36H   PUBLIC    CODE     ---       _hal_w2_all_irq_enable
      01000B2BH   PUBLIC    CODE     ---       _hal_w2_enable
      01000B20H   PUBLIC    CODE     ---       _hal_w2_set_op_mode
      01000A92H   PUBLIC    CODE     ---       _hal_w2_set_clk_freq
      01000BB2H   PUBLIC    CODE     ---       _hal_w2_set_slave_address
      01000B15H   PUBLIC    CODE     ---       _hal_w2_irq_adr_match_enable
      01000B0AH   PUBLIC    CODE     ---       _hal_w2_irq_stop_cond_enable
      01000AFFH   PUBLIC    CODE     ---       _hal_w2_alter_clock
      01000AF4H   PUBLIC    CODE     ---       _hal_w2_respond_to_gen_adr
      01000B87H   PUBLIC    CODE     ---       I2C_IRQ_handler
      01000B7DH   PUBLIC    CODE     ---       hal_w2_wait_data_ready_ISR
      00000098H.3 SFRSYM    DATA     BIT       TB80
      000000BEH   SFRSYM    DATA     BYTE      SPISSTAT
      000000C8H   SFRSYM    DATA     BIT       T2I0
      000000C3H   SFRSYM    DATA     BYTE      CCH1
      00000080H   SFRSYM    DATA     BYTE      P0
      000000C8H.1 SFRSYM    DATA     BIT       T2I1
      000000DFH   SFRSYM    DATA     BYTE      CCPDATO
      000000C5H   SFRSYM    DATA     BYTE      CCH2
      00000090H   SFRSYM    DATA     BYTE      P1
      000000C7H   SFRSYM    DATA     BYTE      CCH3
      000000A0H   SFRSYM    DATA     BYTE      P2
LX51 LINKER/LOCATER V4.66.62.0                                                        11/14/2016  16:59:38  PAGE 25


      00000098H.5 SFRSYM    DATA     BIT       SM20
      000000B0H   SFRSYM    DATA     BYTE      P3
      000000D0H.6 SFRSYM    DATA     BIT       AC
      000000C2H   SFRSYM    DATA     BYTE      CCL1
      000000C4H   SFRSYM    DATA     BYTE      CCL2
      000000D8H.7 SFRSYM    DATA     BIT       BD
      000000B8H   SFRSYM    DATA     BIT       RFSPI
      000000A8H.7 SFRSYM    DATA     BIT       EA
      000000CCH   SFRSYM    DATA     WORD      T2
      000000C6H   SFRSYM    DATA     BYTE      CCL3
      000000B7H   SFRSYM    DATA     BYTE      SPISRDSZ
      000000C8H.3 SFRSYM    DATA     BIT       T2R0
      000000C8H.4 SFRSYM    DATA     BIT       T2R1
      000000A8H   SFRSYM    DATA     BYTE      IEN0
      000000B8H   SFRSYM    DATA     BYTE      IEN1
      000000A5H   SFRSYM    DATA     BYTE      WUCON
      00000085H   SFRSYM    DATA     BYTE      DPH1
      000000DBH   SFRSYM    DATA     BYTE      COMPCON
      000000A3H   SFRSYM    DATA     BYTE      CLKCTRL
      00000084H   SFRSYM    DATA     BYTE      DPL1
      000000C8H.5 SFRSYM    DATA     BIT       I2FR
      000000B8H.3 SFRSYM    DATA     BIT       WUPIN
      000000C8H.6 SFRSYM    DATA     BIT       I3FR
      000000FFH   SFRSYM    DATA     BYTE      SPIMDAT
      000000C0H.7 SFRSYM    DATA     BIT       EXF2
      00000098H.4 SFRSYM    DATA     BIT       REN0
      000000C8H.2 SFRSYM    DATA     BIT       T2CM
      000000B8H.1 SFRSYM    DATA     BIT       RF
      000000B8H.5 SFRSYM    DATA     BIT       WUIRQ
      000000E7H   SFRSYM    DATA     BYTE      SPIRDAT
      000000C1H   SFRSYM    DATA     BYTE      CCEN
      000000E2H   SFRSYM    DATA     BYTE      W2CON0
      000000BFH   SFRSYM    DATA     BYTE      SPISDAT
      000000D0H.7 SFRSYM    DATA     BIT       CY
      000000E1H   SFRSYM    DATA     BYTE      W2CON1
      000000FBH   SFRSYM    DATA     BYTE      FDCR
      000000E8H   SFRSYM    DATA     BIT       RFCE
      000000CBH   SFRSYM    DATA     BYTE      CRCH
      00000081H   SFRSYM    DATA     BYTE      SP
      000000D0H.2 SFRSYM    DATA     BIT       OV
      000000CAH   SFRSYM    DATA     BYTE      CRCL
      000000ADH   SFRSYM    DATA     BYTE      CLKLFCTRL
      000000B1H   SFRSYM    DATA     BYTE      RSTREAS
      000000C8H.7 SFRSYM    DATA     BIT       T2PS
      000000F9H   SFRSYM    DATA     BYTE      FPCR
      000000B8H.4 SFRSYM    DATA     BIT       MISC
      000000A1H   SFRSYM    DATA     BYTE      PWMDC0
      000000B4H   SFRSYM    DATA     BYTE      RTC2CMP0
      000000A2H   SFRSYM    DATA     BYTE      PWMDC1
      000000B5H   SFRSYM    DATA     BYTE      RTC2CMP1
      00000080H   SFRSYM    DATA     BIT       P00
      000000BAH   SFRSYM    DATA     BYTE      S0RELH
      00000090H   SFRSYM    DATA     BIT       P10
      00000080H.1 SFRSYM    DATA     BIT       P01
      00000087H   SFRSYM    DATA     BYTE      PCON
      000000A0H   SFRSYM    DATA     BIT       P20
      00000090H.1 SFRSYM    DATA     BIT       P11
      00000080H.2 SFRSYM    DATA     BIT       P02
      000000B0H   SFRSYM    DATA     BIT       P30
      000000A0H.1 SFRSYM    DATA     BIT       P21
      00000090H.2 SFRSYM    DATA     BIT       P12
      00000080H.3 SFRSYM    DATA     BIT       P03
      000000C0H.2 SFRSYM    DATA     BIT       SPIF
      000000F8H.2 SFRSYM    DATA     BIT       RDIS
      000000B0H.1 SFRSYM    DATA     BIT       P31
LX51 LINKER/LOCATER V4.66.62.0                                                        11/14/2016  16:59:38  PAGE 26


      000000A0H.2 SFRSYM    DATA     BIT       P22
      00000090H.3 SFRSYM    DATA     BIT       P13
      00000080H.4 SFRSYM    DATA     BIT       P04
      000000AAH   SFRSYM    DATA     BYTE      S0RELL
      000000B0H.2 SFRSYM    DATA     BIT       P32
      000000A0H.3 SFRSYM    DATA     BIT       P23
      00000090H.4 SFRSYM    DATA     BIT       P14
      00000080H.5 SFRSYM    DATA     BIT       P05
      000000D9H   SFRSYM    DATA     BYTE      W2SADR
      00000089H   SFRSYM    DATA     BYTE      TMOD
      00000088H   SFRSYM    DATA     BYTE      TCON
      000000B0H.3 SFRSYM    DATA     BIT       P33
      000000A0H.4 SFRSYM    DATA     BIT       P24
      00000090H.5 SFRSYM    DATA     BIT       P15
      00000080H.6 SFRSYM    DATA     BIT       P06
      000000B0H.4 SFRSYM    DATA     BIT       P34
      000000A0H.5 SFRSYM    DATA     BIT       P25
      00000090H.6 SFRSYM    DATA     BIT       P16
      00000080H.7 SFRSYM    DATA     BIT       P07
      000000C2H   SFRSYM    DATA     WORD      CC1
      000000B0H.5 SFRSYM    DATA     BIT       P35
      000000A0H.6 SFRSYM    DATA     BIT       P26
      00000090H.7 SFRSYM    DATA     BIT       P17
      000000C4H   SFRSYM    DATA     WORD      CC2
      000000B0H.6 SFRSYM    DATA     BIT       P36
      000000A0H.7 SFRSYM    DATA     BIT       P27
      000000C6H   SFRSYM    DATA     WORD      CC3
      000000B0H.7 SFRSYM    DATA     BIT       P37
      000000E8H.2 SFRSYM    DATA     BIT       RFCKEN
      000000F8H   SFRSYM    DATA     BIT       WPEN
      000000DDH   SFRSYM    DATA     BYTE      CCPDATIA
      000000DEH   SFRSYM    DATA     BYTE      CCPDATIB
      00000088H.1 SFRSYM    DATA     BIT       IE0
      000000F8H.4 SFRSYM    DATA     BIT       RDYN
      00000088H.3 SFRSYM    DATA     BIT       IE1
      000000CFH   SFRSYM    DATA     BYTE      WUOPC0
      000000F0H   SFRSYM    DATA     BYTE      B
      000000E9H   SFRSYM    DATA     BYTE      MD0
      000000CEH   SFRSYM    DATA     BYTE      WUOPC1
      000000A7H   SFRSYM    DATA     BYTE      MEMCON
      000000EAH   SFRSYM    DATA     BYTE      MD1
      000000D7H   SFRSYM    DATA     BYTE      RNGDAT
      000000EBH   SFRSYM    DATA     BYTE      MD2
      000000ECH   SFRSYM    DATA     BYTE      MD3
      000000EDH   SFRSYM    DATA     BYTE      MD4
      000000AFH   SFRSYM    DATA     BYTE      WDSV
      000000EEH   SFRSYM    DATA     BYTE      MD5
      000000E0H   SFRSYM    DATA     BYTE      ACC
      000000DCH   SFRSYM    DATA     BYTE      POFCON
      000000A8H.4 SFRSYM    DATA     BIT       ES0
      000000A8H.1 SFRSYM    DATA     BIT       ET0
      000000A9H   SFRSYM    DATA     BYTE      IP0
      000000A8H.3 SFRSYM    DATA     BIT       ET1
      00000088H.5 SFRSYM    DATA     BIT       TF0
      000000B9H   SFRSYM    DATA     BYTE      IP1
      000000A8H.5 SFRSYM    DATA     BIT       ET2
      00000098H   SFRSYM    DATA     BIT       RI0
      00000088H.7 SFRSYM    DATA     BIT       TF1
      000000C0H   SFRSYM    DATA     BIT       RFSPIF
      000000C0H.6 SFRSYM    DATA     BIT       TF2
      000000FCH   SFRSYM    DATA     BYTE      SPIMCON0
      000000D6H   SFRSYM    DATA     BYTE      RNGCTL
      0000008CH   SFRSYM    DATA     BYTE      TH0
      000000A8H   SFRSYM    DATA     BIT       EX0
      00000098H.1 SFRSYM    DATA     BIT       TI0
LX51 LINKER/LOCATER V4.66.62.0                                                        11/14/2016  16:59:38  PAGE 27


      00000088H   SFRSYM    DATA     BIT       IT0
      000000FDH   SFRSYM    DATA     BYTE      SPIMCON1
      0000008DH   SFRSYM    DATA     BYTE      TH1
      000000A8H.2 SFRSYM    DATA     BIT       EX1
      00000088H.2 SFRSYM    DATA     BIT       IT1
      000000CDH   SFRSYM    DATA     BYTE      TH2
      000000AEH   SFRSYM    DATA     BYTE      OPMCON
      000000D0H   SFRSYM    DATA     BIT       P
      00000098H.7 SFRSYM    DATA     BIT       SM0
      0000008AH   SFRSYM    DATA     BYTE      TL0
      00000098H.6 SFRSYM    DATA     BIT       SM1
      000000E4H   SFRSYM    DATA     BYTE      SPIRCON0
      0000008BH   SFRSYM    DATA     BYTE      TL1
      000000E5H   SFRSYM    DATA     BYTE      SPIRCON1
      000000CCH   SFRSYM    DATA     BYTE      TL2
      000000BCH   SFRSYM    DATA     BYTE      SPISCON0
      000000BDH   SFRSYM    DATA     BYTE      SPISCON1
      000000D0H.3 SFRSYM    DATA     BIT       RS0
      00000088H.4 SFRSYM    DATA     BIT       TR0
      000000D0H.4 SFRSYM    DATA     BIT       RS1
      000000B2H   SFRSYM    DATA     BYTE      PWMCON
      00000088H.6 SFRSYM    DATA     BIT       TR1
      000000CAH   SFRSYM    DATA     WORD      CRC
      000000A6H   SFRSYM    DATA     BYTE      INTEXP
      000000C0H.3 SFRSYM    DATA     BIT       WUPINF
      000000FAH   SFRSYM    DATA     BYTE      FCR
      000000D3H   SFRSYM    DATA     BYTE      ADCCON1
      000000D2H   SFRSYM    DATA     BYTE      ADCCON2
      00000083H   SFRSYM    DATA     BYTE      DPH
      000000D1H   SFRSYM    DATA     BYTE      ADCCON3
      000000C0H.1 SFRSYM    DATA     BIT       RFF
      00000093H   SFRSYM    DATA     BYTE      P0DIR
      00000082H   SFRSYM    DATA     BYTE      DPL
      0000009EH   SFRSYM    DATA     BYTE      P0CON
      00000099H   SFRSYM    DATA     BYTE      S0BUF
      00000094H   SFRSYM    DATA     BYTE      P1DIR
      0000009FH   SFRSYM    DATA     BYTE      P1CON
      00000095H   SFRSYM    DATA     BYTE      P2DIR
      000000B8H.7 SFRSYM    DATA     BIT       EXEN2
      000000DAH   SFRSYM    DATA     BYTE      W2DAT
      00000097H   SFRSYM    DATA     BYTE      P2CON
      00000096H   SFRSYM    DATA     BYTE      P3DIR
      000000A4H   SFRSYM    DATA     BYTE      PWRDWN
      00000098H   SFRSYM    DATA     BYTE      S0CON
      0000008FH   SFRSYM    DATA     BYTE      P3CON
      000000B6H   SFRSYM    DATA     BYTE      RTC2CPT00
      000000D8H   SFRSYM    DATA     BYTE      ADCON
      000000ACH   SFRSYM    DATA     BYTE      RTC2CPT10
      000000ABH   SFRSYM    DATA     BYTE      RTC2CPT01
      000000C8H   SFRSYM    DATA     BYTE      T2CON
      00000092H   SFRSYM    DATA     BYTE      DPS
      000000F8H.5 SFRSYM    DATA     BIT       WEN
      000000F8H   SFRSYM    DATA     BYTE      FSR
      000000D4H   SFRSYM    DATA     BYTE      ADCDATH
      000000C9H   SFRSYM    DATA     BYTE      MPAGE
      000000B8H.2 SFRSYM    DATA     BIT       SPI
      000000F8H.1 SFRSYM    DATA     BIT       RDEND
      000000D5H   SFRSYM    DATA     BYTE      ADCDATL
      000000F8H.3 SFRSYM    DATA     BIT       INFEN
      000000F8H.7 SFRSYM    DATA     BIT       MCDIS
      000000C0H.5 SFRSYM    DATA     BIT       WUF
      000000C0H.4 SFRSYM    DATA     BIT       MISCF
      000000EFH   SFRSYM    DATA     BYTE      ARCON
      000000D0H.5 SFRSYM    DATA     BIT       F0
      000000F8H.6 SFRSYM    DATA     BIT       STP
LX51 LINKER/LOCATER V4.66.62.0                                                        11/14/2016  16:59:38  PAGE 28


      000000FEH   SFRSYM    DATA     BYTE      SPIMSTAT
      000000E8H   SFRSYM    DATA     BYTE      RFCON
      000000D0H   SFRSYM    DATA     BYTE      PSW
      00000098H.2 SFRSYM    DATA     BIT       RB80
      000000C0H   SFRSYM    DATA     BYTE      IRCON
      000000E8H.1 SFRSYM    DATA     BIT       RFCSN
      000000E6H   SFRSYM    DATA     BYTE      SPIRSTAT
      000000B3H   SFRSYM    DATA     BYTE      RTC2CON

      01000AA0H   BLOCK     CODE     ---       LVL=0
      ---         BLOCKEND  ---      ---       LVL=0

      01000B7DH   BLOCK     CODE     ---       LVL=0
      01000B7DH   LINE      CODE     ---       #39
      01000B7DH   LINE      CODE     ---       #40
      01000B7DH   LINE      CODE     ---       #41
      01000B80H   LINE      CODE     ---       #42
      01000B84H   LINE      CODE     ---       #43
      01000B86H   LINE      CODE     ---       #44
      ---         BLOCKEND  ---      ---       LVL=0

      01000B87H   BLOCK     CODE     ---       LVL=0
      01000B87H   LINE      CODE     ---       #45
      01000B87H   LINE      CODE     ---       #46
      01000B87H   LINE      CODE     ---       #48
      01000B8AH   LINE      CODE     ---       #49
      01000B90H   LINE      CODE     ---       #51
      ---         BLOCKEND  ---      ---       LVL=0

      01000AF4H   BLOCK     CODE     ---       LVL=0
      00000007H   SYMBOL    DATA     BYTE      resp_gen
      01000AF4H   LINE      CODE     ---       #52
      01000AF4H   LINE      CODE     ---       #53
      01000AF4H   LINE      CODE     ---       #54
      01000AF7H   LINE      CODE     ---       #55
      01000AF7H   LINE      CODE     ---       #56
      01000AFAH   LINE      CODE     ---       #57
      01000AFBH   LINE      CODE     ---       #59
      01000AFBH   LINE      CODE     ---       #60
      01000AFEH   LINE      CODE     ---       #61
      01000AFEH   LINE      CODE     ---       #62
      ---         BLOCKEND  ---      ---       LVL=0

      01000AFFH   BLOCK     CODE     ---       LVL=0
      00000007H   SYMBOL    DATA     BYTE      alt_clk
      01000AFFH   LINE      CODE     ---       #64
      01000AFFH   LINE      CODE     ---       #65
      01000AFFH   LINE      CODE     ---       #66
      01000B02H   LINE      CODE     ---       #67
      01000B02H   LINE      CODE     ---       #68
      01000B05H   LINE      CODE     ---       #69
      01000B06H   LINE      CODE     ---       #71
      01000B06H   LINE      CODE     ---       #72
      01000B09H   LINE      CODE     ---       #73
      01000B09H   LINE      CODE     ---       #74
      ---         BLOCKEND  ---      ---       LVL=0

      01000B0AH   BLOCK     CODE     ---       LVL=0
      00000007H   SYMBOL    DATA     BYTE      stop_cond
      01000B0AH   LINE      CODE     ---       #76
      01000B0AH   LINE      CODE     ---       #77
      01000B0AH   LINE      CODE     ---       #78
      01000B0DH   LINE      CODE     ---       #79
      01000B0DH   LINE      CODE     ---       #80
      01000B10H   LINE      CODE     ---       #81
LX51 LINKER/LOCATER V4.66.62.0                                                        11/14/2016  16:59:38  PAGE 29


      01000B11H   LINE      CODE     ---       #83
      01000B11H   LINE      CODE     ---       #84
      01000B14H   LINE      CODE     ---       #85
      01000B14H   LINE      CODE     ---       #86
      ---         BLOCKEND  ---      ---       LVL=0

      01000B15H   BLOCK     CODE     ---       LVL=0
      00000007H   SYMBOL    DATA     BYTE      addr_match
      01000B15H   LINE      CODE     ---       #88
      01000B15H   LINE      CODE     ---       #89
      01000B15H   LINE      CODE     ---       #90
      01000B18H   LINE      CODE     ---       #91
      01000B18H   LINE      CODE     ---       #92
      01000B1BH   LINE      CODE     ---       #93
      01000B1CH   LINE      CODE     ---       #95
      01000B1CH   LINE      CODE     ---       #96
      01000B1FH   LINE      CODE     ---       #97
      01000B1FH   LINE      CODE     ---       #98
      ---         BLOCKEND  ---      ---       LVL=0

      01000BB2H   BLOCK     CODE     ---       LVL=0
      00000007H   SYMBOL    DATA     BYTE      address
      01000BB2H   LINE      CODE     ---       #100
      01000BB2H   LINE      CODE     ---       #101
      01000BB2H   LINE      CODE     ---       #102
      01000BB7H   LINE      CODE     ---       #103
      ---         BLOCKEND  ---      ---       LVL=0

      01000A92H   BLOCK     CODE     ---       LVL=0
      00000007H   SYMBOL    DATA     BYTE      freq
      01000A92H   LINE      CODE     ---       #107
      01000A92H   LINE      CODE     ---       #108
      01000A92H   LINE      CODE     ---       #109
      01000A9FH   LINE      CODE     ---       #110
      ---         BLOCKEND  ---      ---       LVL=0

      01000B20H   BLOCK     CODE     ---       LVL=0
      00000007H   SYMBOL    DATA     BYTE      mode
      01000B20H   LINE      CODE     ---       #112
      01000B20H   LINE      CODE     ---       #113
      01000B20H   LINE      CODE     ---       #114
      01000B23H   LINE      CODE     ---       #115
      01000B23H   LINE      CODE     ---       #116
      01000B26H   LINE      CODE     ---       #117
      01000B27H   LINE      CODE     ---       #119
      01000B27H   LINE      CODE     ---       #120
      01000B2AH   LINE      CODE     ---       #121
      01000B2AH   LINE      CODE     ---       #122
      ---         BLOCKEND  ---      ---       LVL=0

      01000B2BH   BLOCK     CODE     ---       LVL=0
      00000007H   SYMBOL    DATA     BYTE      en
      01000B2BH   LINE      CODE     ---       #124
      01000B2BH   LINE      CODE     ---       #125
      01000B2BH   LINE      CODE     ---       #126
      01000B2EH   LINE      CODE     ---       #127
      01000B2EH   LINE      CODE     ---       #128
      01000B31H   LINE      CODE     ---       #129
      01000B32H   LINE      CODE     ---       #131
      01000B32H   LINE      CODE     ---       #132
      01000B35H   LINE      CODE     ---       #133
      01000B35H   LINE      CODE     ---       #134
      ---         BLOCKEND  ---      ---       LVL=0

      01000B36H   BLOCK     CODE     ---       LVL=0
LX51 LINKER/LOCATER V4.66.62.0                                                        11/14/2016  16:59:38  PAGE 30


      00000007H   SYMBOL    DATA     BYTE      irq
      01000B36H   LINE      CODE     ---       #136
      01000B36H   LINE      CODE     ---       #137
      01000B36H   LINE      CODE     ---       #140
      01000B39H   LINE      CODE     ---       #141
      01000B39H   LINE      CODE     ---       #142
      01000B3CH   LINE      CODE     ---       #143
      01000B3DH   LINE      CODE     ---       #145
      01000B3DH   LINE      CODE     ---       #146
      01000B40H   LINE      CODE     ---       #147
      01000B40H   LINE      CODE     ---       #148
      ---         BLOCKEND  ---      ---       LVL=0

      010008DCH   BLOCK     CODE     ---       LVL=0
      00000006H   SYMBOL    DATA     BYTE      mode
      010008DCH   LINE      CODE     ---       #150
      010008DEH   LINE      CODE     ---       #151
      010008DEH   LINE      CODE     ---       #152
      010008E3H   LINE      CODE     ---       #153
      010008E8H   LINE      CODE     ---       #154
      010008EDH   LINE      CODE     ---       #156
      010008F0H   LINE      CODE     ---       #157
      010008F3H   LINE      CODE     ---       #158
      010008F6H   LINE      CODE     ---       #160
      010008FAH   LINE      CODE     ---       #161
      010008FCH   LINE      CODE     ---       #162
      ---         BLOCKEND  ---      ---       LVL=0

      01000891H   BLOCK     CODE     ---       LVL=0
      01000891H   BLOCK     CODE     NEAR LAB  LVL=1
      00000019H   SYMBOL    DATA     DWORD     timeout_counter
      0000001DH   SYMBOL    DATA     BYTE      w2_status
      0000001EH   SYMBOL    DATA     BYTE      data_ready
      0000001FH   SYMBOL    DATA     BYTE      nack_received
      ---         BLOCKEND  ---      ---       LVL=1
      01000891H   LINE      CODE     ---       #164
      01000891H   LINE      CODE     ---       #165
      01000891H   LINE      CODE     ---       #166
      0100089BH   LINE      CODE     ---       #172
      0100089BH   LINE      CODE     ---       #173
      0100089EH   LINE      CODE     ---       #174
      010008A4H   LINE      CODE     ---       #175
      010008AAH   LINE      CODE     ---       #176
      010008B1H   LINE      CODE     ---       #177
      010008B5H   LINE      CODE     ---       #180
      010008B7H   LINE      CODE     ---       #181
      ---         BLOCKEND  ---      ---       LVL=0

      010009FBH   BLOCK     CODE     ---       LVL=0
      00000007H   SYMBOL    DATA     BYTE      address
      00000005H   SYMBOL    DATA     BYTE      direction
      010009FBH   BLOCK     CODE     NEAR LAB  LVL=1
      00000007H   SYMBOL    DATA     BYTE      w2_status
      ---         BLOCKEND  ---      ---       LVL=1
      010009FBH   LINE      CODE     ---       #183
      010009FBH   LINE      CODE     ---       #184
      010009FBH   LINE      CODE     ---       #187
      010009FEH   LINE      CODE     ---       #188
      01000A02H   LINE      CODE     ---       #190
      01000A02H   LINE      CODE     ---       #192
      01000A0AH   LINE      CODE     ---       #193
      01000A0AH   LINE      CODE     ---       #194
      01000A0CH   LINE      CODE     ---       #195
      01000A0CH   LINE      CODE     ---       #197
      01000A0CH   LINE      CODE     ---       #198
LX51 LINKER/LOCATER V4.66.62.0                                                        11/14/2016  16:59:38  PAGE 31


      01000A0CH   LINE      CODE     ---       #199
      01000A0CH   LINE      CODE     ---       #200
      ---         BLOCKEND  ---      ---       LVL=0

      01000770H   BLOCK     CODE     ---       LVL=0
      00000007H   SYMBOL    DATA     BYTE      address
      00000043H   SYMBOL    DATA     ---       data_ptr
      00000046H   SYMBOL    DATA     BYTE      data_len
      01000776H   BLOCK     CODE     NEAR LAB  LVL=1
      00000006H   SYMBOL    DATA     BYTE      ack_received
      0100078AH   BLOCK     CODE     NEAR LAB  LVL=2
      00000047H   SYMBOL    DATA     BYTE      w2_status
      ---         BLOCKEND  ---      ---       LVL=2
      ---         BLOCKEND  ---      ---       LVL=1
      01000770H   LINE      CODE     ---       #202
      01000776H   LINE      CODE     ---       #203
      01000776H   LINE      CODE     ---       #205
      0100077DH   LINE      CODE     ---       #207
      0100078AH   LINE      CODE     ---       #208
      0100078AH   LINE      CODE     ---       #210
      01000794H   LINE      CODE     ---       #211
      01000799H   LINE      CODE     ---       #212
      0100079EH   LINE      CODE     ---       #213
      0100079EH   LINE      CODE     ---       #214
      010007A0H   LINE      CODE     ---       #215
      010007A0H   LINE      CODE     ---       #216
      010007A2H   LINE      CODE     ---       #218
      010007A5H   LINE      CODE     ---       #220
      010007A7H   LINE      CODE     ---       #221
      ---         BLOCKEND  ---      ---       LVL=0

      010006F4H   BLOCK     CODE     ---       LVL=0
      00000007H   SYMBOL    DATA     BYTE      address
      00000049H   SYMBOL    DATA     ---       data_ptr
      0000004CH   SYMBOL    DATA     BYTE      data_len
      010006FAH   BLOCK     CODE     NEAR LAB  LVL=1
      00000007H   SYMBOL    DATA     BYTE      w2_status
      0000004DH   SYMBOL    DATA     BYTE      ack_received
      ---         BLOCKEND  ---      ---       LVL=1
      010006F4H   LINE      CODE     ---       #223
      010006FAH   LINE      CODE     ---       #224
      010006FAH   LINE      CODE     ---       #228
      01000701H   LINE      CODE     ---       #230
      01000705H   LINE      CODE     ---       #231
      01000705H   LINE      CODE     ---       #233
      01000708H   LINE      CODE     ---       #234
      01000708H   LINE      CODE     ---       #237
      01000713H   LINE      CODE     ---       #238
      01000713H   LINE      CODE     ---       #239
      01000717H   LINE      CODE     ---       #240
      01000717H   LINE      CODE     ---       #241
      0100071AH   LINE      CODE     ---       #242
      0100071AH   LINE      CODE     ---       #244
      0100071DH   LINE      CODE     ---       #246
      01000727H   LINE      CODE     ---       #247
      01000731H   LINE      CODE     ---       #248
      01000733H   LINE      CODE     ---       #250
      01000735H   LINE      CODE     ---       #251
      ---         BLOCKEND  ---      ---       LVL=0

      0100032DH   BLOCK     CODE     ---       LVL=0
      0100032DH   BLOCK     CODE     NEAR LAB  LVL=1
      00000034H   SYMBOL    DATA     BYTE      pulsecount
      00000035H   SYMBOL    DATA     BYTE      w2_freq
      ---         BLOCKEND  ---      ---       LVL=1
LX51 LINKER/LOCATER V4.66.62.0                                                        11/14/2016  16:59:38  PAGE 32


      0100032DH   LINE      CODE     ---       #253
      0100032DH   LINE      CODE     ---       #254
      0100032DH   LINE      CODE     ---       #259
      01000333H   LINE      CODE     ---       #261
      01000336H   LINE      CODE     ---       #262
      0100033EH   LINE      CODE     ---       #266
      01000341H   LINE      CODE     ---       #267
      01000344H   LINE      CODE     ---       #270
      01000347H   LINE      CODE     ---       #275
      0100034DH   LINE      CODE     ---       #278
      0100034DH   LINE      CODE     ---       #280
      0100034DH   LINE      CODE     ---       #284
      01000350H   LINE      CODE     ---       #285
      01000353H   LINE      CODE     ---       #286
      01000353H   LINE      CODE     ---       #288
      01000359H   LINE      CODE     ---       #289
      01000359H   LINE      CODE     ---       #291
      01000359H   LINE      CODE     ---       #292
      0100035CH   LINE      CODE     ---       #293
      01000365H   LINE      CODE     ---       #296
      01000365H   LINE      CODE     ---       #298
      0100036CH   LINE      CODE     ---       #301
      0100036CH   LINE      CODE     ---       #303
      01000373H   LINE      CODE     ---       #306
      01000376H   LINE      CODE     ---       #309
      01000379H   LINE      CODE     ---       #310
      0100037FH   LINE      CODE     ---       #312
      ---         BLOCKEND  ---      ---       LVL=0

      01000A41H   BLOCK     CODE     ---       LVL=0
      00000007H   SYMBOL    DATA     BYTE      devAddr
      00000005H   SYMBOL    DATA     BYTE      regAddr
      00000029H   SYMBOL    DATA     BYTE      data_to_write
      01000A41H   LINE      CODE     ---       #317
      01000A43H   LINE      CODE     ---       #318
      01000A51H   LINE      CODE     ---       #319
      ---         BLOCKEND  ---      ---       LVL=0

      01000736H   BLOCK     CODE     ---       LVL=0
      00000007H   SYMBOL    DATA     BYTE      devAddr
      00000004H   SYMBOL    DATA     BYTE      regAddr
      00000006H   SYMBOL    DATA     BYTE      data_len
      0000002DH   SYMBOL    DATA     ---       data_ptr
      0100073AH   BLOCK     CODE     NEAR LAB  LVL=1
      00000007H   SYMBOL    DATA     BYTE      w2_status
      00000005H   SYMBOL    DATA     BYTE      ack_received
      ---         BLOCKEND  ---      ---       LVL=1
      01000736H   LINE      CODE     ---       #321
      0100073AH   LINE      CODE     ---       #326
      01000741H   LINE      CODE     ---       #327
      01000743H   LINE      CODE     ---       #328
      01000746H   LINE      CODE     ---       #329
      0100074AH   LINE      CODE     ---       #330
      0100074AH   LINE      CODE     ---       #331
      0100074CH   LINE      CODE     ---       #332
      0100074CH   LINE      CODE     ---       #334
      01000758H   LINE      CODE     ---       #335
      01000758H   LINE      CODE     ---       #336
      01000760H   LINE      CODE     ---       #337
      01000760H   LINE      CODE     ---       #338
      01000766H   LINE      CODE     ---       #339
      01000766H   LINE      CODE     ---       #340
      01000768H   LINE      CODE     ---       #341
      01000768H   LINE      CODE     ---       #342
      0100076AH   LINE      CODE     ---       #343
LX51 LINKER/LOCATER V4.66.62.0                                                        11/14/2016  16:59:38  PAGE 33


      0100076DH   LINE      CODE     ---       #345
      0100076FH   LINE      CODE     ---       #346
      ---         BLOCKEND  ---      ---       LVL=0

      01000A0DH   BLOCK     CODE     ---       LVL=0
      00000007H   SYMBOL    DATA     BYTE      devAddr
      00000005H   SYMBOL    DATA     BYTE      regAddr
      00000029H   SYMBOL    DATA     ---       data_ptr
      01000A0DH   LINE      CODE     ---       #348
      01000A13H   LINE      CODE     ---       #349
      01000A1EH   LINE      CODE     ---       #350
      ---         BLOCKEND  ---      ---       LVL=0

      0100046AH   BLOCK     CODE     ---       LVL=0
      00000006H   SYMBOL    DATA     BYTE      devAddr
      00000004H   SYMBOL    DATA     BYTE      regAddr
      0000002EH   SYMBOL    DATA     BYTE      data_len
      0000002FH   SYMBOL    DATA     ---       data_ptr
      01000470H   BLOCK     CODE     NEAR LAB  LVL=1
      00000032H   SYMBOL    DATA     BYTE      w2_status
      00000033H   SYMBOL    DATA     BYTE      ack_received
      ---         BLOCKEND  ---      ---       LVL=1
      0100046AH   LINE      CODE     ---       #352
      01000470H   LINE      CODE     ---       #357
      01000477H   LINE      CODE     ---       #358
      01000479H   LINE      CODE     ---       #359
      0100047EH   LINE      CODE     ---       #360
      01000483H   LINE      CODE     ---       #361
      01000483H   LINE      CODE     ---       #362
      01000486H   LINE      CODE     ---       #363
      01000486H   LINE      CODE     ---       #367
      0100048FH   LINE      CODE     ---       #369
      01000493H   LINE      CODE     ---       #370
      01000493H   LINE      CODE     ---       #372
      01000496H   LINE      CODE     ---       #374
      01000496H   LINE      CODE     ---       #376
      010004A1H   LINE      CODE     ---       #377
      010004A1H   LINE      CODE     ---       #378
      010004A5H   LINE      CODE     ---       #379
      010004A5H   LINE      CODE     ---       #380
      010004A8H   LINE      CODE     ---       #381
      010004A8H   LINE      CODE     ---       #383
      010004ADH   LINE      CODE     ---       #385
      010004B7H   LINE      CODE     ---       #386
      010004C2H   LINE      CODE     ---       #387
      010004C4H   LINE      CODE     ---       #389
      010004C6H   LINE      CODE     ---       #390
      ---         BLOCKEND  ---      ---       LVL=0

      010005CDH   BLOCK     CODE     ---       LVL=0
      00000022H   SYMBOL    DATA     BYTE      devAddr
      00000023H   SYMBOL    DATA     BYTE      regAddr
      00000024H   SYMBOL    DATA     BYTE      bitNum
      00000025H   SYMBOL    DATA     BYTE      data_to_write
      010005D3H   BLOCK     CODE     NEAR LAB  LVL=1
      00000026H   SYMBOL    DATA     BYTE      b
      ---         BLOCKEND  ---      ---       LVL=1
      010005CDH   LINE      CODE     ---       #393
      010005D3H   LINE      CODE     ---       #395
      010005DCH   LINE      CODE     ---       #396
      01000611H   LINE      CODE     ---       #397
      0100061AH   LINE      CODE     ---       #398
      ---         BLOCKEND  ---      ---       LVL=0

      01000407H   BLOCK     CODE     ---       LVL=0
LX51 LINKER/LOCATER V4.66.62.0                                                        11/14/2016  16:59:38  PAGE 34


      00000022H   SYMBOL    DATA     BYTE      devAddr
      00000023H   SYMBOL    DATA     BYTE      regAddr
      00000024H   SYMBOL    DATA     BYTE      bitStart
      00000025H   SYMBOL    DATA     BYTE      data_length
      00000026H   SYMBOL    DATA     BYTE      data_to_write
      0100040DH   BLOCK     CODE     NEAR LAB  LVL=1
      00000027H   SYMBOL    DATA     BYTE      b
      01000419H   BLOCK     CODE     NEAR LAB  LVL=2
      00000028H   SYMBOL    DATA     BYTE      mask
      ---         BLOCKEND  ---      ---       LVL=2
      ---         BLOCKEND  ---      ---       LVL=1
      01000407H   LINE      CODE     ---       #399
      0100040DH   LINE      CODE     ---       #408
      01000419H   LINE      CODE     ---       #409
      01000446H   LINE      CODE     ---       #410
      01000453H   LINE      CODE     ---       #411
      01000457H   LINE      CODE     ---       #412
      0100045AH   LINE      CODE     ---       #413
      0100045EH   LINE      CODE     ---       #414
      01000467H   LINE      CODE     ---       #415
      01000467H   LINE      CODE     ---       #416
      01000469H   LINE      CODE     ---       #417
      01000469H   LINE      CODE     ---       #418
      ---         BLOCKEND  ---      ---       LVL=0

      010008B8H   BLOCK     CODE     ---       LVL=0
      00000007H   SYMBOL    DATA     BYTE      devAddr
      00000005H   SYMBOL    DATA     BYTE      regAddr
      0000003DH   SYMBOL    DATA     BYTE      bitNum
      0000003EH   SYMBOL    DATA     ---       data_ptr
      010008BAH   BLOCK     CODE     NEAR LAB  LVL=1
      00000041H   SYMBOL    DATA     BYTE      b
      00000007H   SYMBOL    DATA     BYTE      count
      ---         BLOCKEND  ---      ---       LVL=1
      010008B8H   LINE      CODE     ---       #419
      010008BAH   LINE      CODE     ---       #421
      010008C3H   LINE      CODE     ---       #422
      010008DBH   LINE      CODE     ---       #423
      010008DBH   LINE      CODE     ---       #424
      ---         BLOCKEND  ---      ---       LVL=0

      0100051FH   BLOCK     CODE     ---       LVL=0
      00000007H   SYMBOL    DATA     BYTE      devAddr
      00000005H   SYMBOL    DATA     BYTE      regAddr
      0000000AH   SYMBOL    DATA     BYTE      bitStart
      0000000BH   SYMBOL    DATA     BYTE      data_length
      0000000CH   SYMBOL    DATA     ---       data_ptr
      01000521H   BLOCK     CODE     NEAR LAB  LVL=1
      00000005H   SYMBOL    DATA     BYTE      count
      0000000FH   SYMBOL    DATA     BYTE      b
      0100052FH   BLOCK     CODE     NEAR LAB  LVL=2
      00000010H   SYMBOL    DATA     BYTE      mask
      ---         BLOCKEND  ---      ---       LVL=2
      ---         BLOCKEND  ---      ---       LVL=1
      0100051FH   LINE      CODE     ---       #425
      01000521H   LINE      CODE     ---       #432
      0100052FH   LINE      CODE     ---       #433
      0100055CH   LINE      CODE     ---       #434
      0100055EH   LINE      CODE     ---       #435
      0100056BH   LINE      CODE     ---       #436
      01000574H   LINE      CODE     ---       #437
      01000574H   LINE      CODE     ---       #438
      01000576H   LINE      CODE     ---       #439
      ---         BLOCKEND  ---      ---       LVL=0

LX51 LINKER/LOCATER V4.66.62.0                                                        11/14/2016  16:59:38  PAGE 35


      010009D6H   BLOCK     CODE     ---       LVL=0
      00000007H   SYMBOL    DATA     BYTE      devAddr
      00000005H   SYMBOL    DATA     BYTE      regAddr
      00000022H   SYMBOL    DATA     WORD      data_to_write
      010009D6H   LINE      CODE     ---       #442
      010009DAH   LINE      CODE     ---       #443
      010009E8H   LINE      CODE     ---       #444
      ---         BLOCKEND  ---      ---       LVL=0

      01000577H   BLOCK     CODE     ---       LVL=0
      00000007H   SYMBOL    DATA     BYTE      devAddr
      00000006H   SYMBOL    DATA     BYTE      regAddr
      00000004H   SYMBOL    DATA     BYTE      data_length
      00000027H   SYMBOL    DATA     ---       data_ptr
      0100057BH   BLOCK     CODE     NEAR LAB  LVL=1
      00000007H   SYMBOL    DATA     BYTE      w2_status
      00000005H   SYMBOL    DATA     BYTE      ack_received
      ---         BLOCKEND  ---      ---       LVL=1
      01000577H   LINE      CODE     ---       #445
      0100057BH   LINE      CODE     ---       #456
      01000582H   LINE      CODE     ---       #457
      01000584H   LINE      CODE     ---       #458
      01000587H   LINE      CODE     ---       #459
      0100058BH   LINE      CODE     ---       #460
      0100058BH   LINE      CODE     ---       #461
      0100058DH   LINE      CODE     ---       #462
      0100058DH   LINE      CODE     ---       #464
      0100059BH   LINE      CODE     ---       #465
      0100059BH   LINE      CODE     ---       #466
      010005A6H   LINE      CODE     ---       #467
      010005A6H   LINE      CODE     ---       #468
      010005ACH   LINE      CODE     ---       #469
      010005ACH   LINE      CODE     ---       #470
      010005AEH   LINE      CODE     ---       #471
      010005AEH   LINE      CODE     ---       #472
      010005B1H   LINE      CODE     ---       #473
      010005BDH   LINE      CODE     ---       #474
      010005BDH   LINE      CODE     ---       #475
      010005C3H   LINE      CODE     ---       #476
      010005C3H   LINE      CODE     ---       #477
      010005C5H   LINE      CODE     ---       #478
      010005C5H   LINE      CODE     ---       #479
      010005C7H   LINE      CODE     ---       #480
      010005C7H   LINE      CODE     ---       #481
      010005C7H   LINE      CODE     ---       #482
      010005C7H   LINE      CODE     ---       #483
      010005CAH   LINE      CODE     ---       #485
      010005CCH   LINE      CODE     ---       #486
      ---         BLOCKEND  ---      ---       LVL=0

      ---         MODULE    ---      ---       HAL_DELAY
      0100099CH   PUBLIC    CODE     ---       _delay_ms
      0100095EH   PUBLIC    CODE     ---       _delay_us

      01000953H   BLOCK     CODE     ---       LVL=0
      ---         BLOCKEND  ---      ---       LVL=0

      0100095EH   BLOCK     CODE     ---       LVL=0
      00000006H   SYMBOL    DATA     WORD      us
      0100095EH   LINE      CODE     ---       #37
      0100095EH   LINE      CODE     ---       #38
      0100095EH   LINE      CODE     ---       #40
      0100095EH   LINE      CODE     ---       #41
      0100095FH   LINE      CODE     ---       #42
      01000960H   LINE      CODE     ---       #43
LX51 LINKER/LOCATER V4.66.62.0                                                        11/14/2016  16:59:38  PAGE 36


      01000961H   LINE      CODE     ---       #44
      01000962H   LINE      CODE     ---       #45
      01000963H   LINE      CODE     ---       #46
      0100096CH   LINE      CODE     ---       #47
      ---         BLOCKEND  ---      ---       LVL=0

      0100099CH   BLOCK     CODE     ---       LVL=0
      00000004H   SYMBOL    DATA     WORD      ms
      0100099CH   LINE      CODE     ---       #49
      010009A0H   LINE      CODE     ---       #50
      010009A0H   LINE      CODE     ---       #52
      010009A0H   LINE      CODE     ---       #53
      010009A0H   LINE      CODE     ---       #54
      010009A3H   LINE      CODE     ---       #55
      010009A3H   LINE      CODE     ---       #56
      010009A6H   LINE      CODE     ---       #57
      010009AFH   LINE      CODE     ---       #58
      ---         BLOCKEND  ---      ---       LVL=0

      ---         MODULE    ---      ---       ?C_INIT
      010001DAH   PUBLIC    CODE     ---       ?C_START

      ---         MODULE    ---      ---       ?C?CLDPTR
      0100021FH   PUBLIC    CODE     ---       ?C?CLDPTR

      ---         MODULE    ---      ---       ?C?CSTPTR
      01000238H   PUBLIC    CODE     ---       ?C?CSTPTR

      ---         MODULE    ---      ---       ?C?CSTOPTR
      0100024AH   PUBLIC    CODE     ---       ?C?CSTOPTR

      ---         MODULE    ---      ---       ?C?ILDPTR
      0100026CH   PUBLIC    CODE     ---       ?C?ILDPTR

      ---         MODULE    ---      ---       ?C?PLDIIDATA
      01000297H   PUBLIC    CODE     ---       ?C?PLDIIDATA



*** WARNING L57: UNCALLED FUNCTION, IGNORED FOR OVERLAY PROCESS
    NAME:    MPU_TESTCONNECTION/MAIN

*** WARNING L57: UNCALLED FUNCTION, IGNORED FOR OVERLAY PROCESS
    NAME:    _SETMEMORYBANK/MAIN

*** WARNING L57: UNCALLED FUNCTION, IGNORED FOR OVERLAY PROCESS
    NAME:    GETFIFOCOUNT/MAIN

*** WARNING L57: UNCALLED FUNCTION, IGNORED FOR OVERLAY PROCESS
    NAME:    GETINTSTATUS/MAIN

*** WARNING L57: UNCALLED FUNCTION, IGNORED FOR OVERLAY PROCESS
    NAME:    _SETDMPENABLED/MAIN

*** WARNING L57: UNCALLED FUNCTION, IGNORED FOR OVERLAY PROCESS
    NAME:    RESETFIFO/MAIN

*** WARNING L57: UNCALLED FUNCTION, IGNORED FOR OVERLAY PROCESS
    NAME:    DMPGETFIFOPACKETSIZE/MAIN

*** WARNING L57: UNCALLED FUNCTION, IGNORED FOR OVERLAY PROCESS
    NAME:    _GETFIFOBYTES/MAIN

*** WARNING L57: UNCALLED FUNCTION, IGNORED FOR OVERLAY PROCESS
    NAME:    GETXGYROOFFSETTC/MAIN
LX51 LINKER/LOCATER V4.66.62.0                                                        11/14/2016  16:59:38  PAGE 37



*** WARNING L57: UNCALLED FUNCTION, IGNORED FOR OVERLAY PROCESS
    NAME:    _SETXGYROOFFSETTC/MAIN

*** WARNING L57: UNCALLED FUNCTION, IGNORED FOR OVERLAY PROCESS
    NAME:    GETYGYROOFFSETTC/MAIN

*** WARNING L57: UNCALLED FUNCTION, IGNORED FOR OVERLAY PROCESS
    NAME:    _SETYGYROOFFSETTC/MAIN

*** WARNING L57: UNCALLED FUNCTION, IGNORED FOR OVERLAY PROCESS
    NAME:    GETZGYROOFFSETTC/MAIN

*** WARNING L57: UNCALLED FUNCTION, IGNORED FOR OVERLAY PROCESS
    NAME:    _SETZGYROOFFSETTC/MAIN

*** WARNING L57: UNCALLED FUNCTION, IGNORED FOR OVERLAY PROCESS
    NAME:    _ENVIAR_MSG_TO_HOST_HEX/MAIN

*** WARNING L57: UNCALLED FUNCTION, IGNORED FOR OVERLAY PROCESS
    NAME:    _HAL_W2_RESPOND_TO_GEN_ADR/HAL_W2_ISR

*** WARNING L57: UNCALLED FUNCTION, IGNORED FOR OVERLAY PROCESS
    NAME:    _HAL_W2_ALTER_CLOCK/HAL_W2_ISR

*** WARNING L57: UNCALLED FUNCTION, IGNORED FOR OVERLAY PROCESS
    NAME:    _HAL_W2_IRQ_STOP_COND_ENABLE/HAL_W2_ISR

*** WARNING L57: UNCALLED FUNCTION, IGNORED FOR OVERLAY PROCESS
    NAME:    _HAL_W2_IRQ_ADR_MATCH_ENABLE/HAL_W2_ISR

*** WARNING L57: UNCALLED FUNCTION, IGNORED FOR OVERLAY PROCESS
    NAME:    _HAL_W2_SET_SLAVE_ADDRESS/HAL_W2_ISR

*** WARNING L57: UNCALLED FUNCTION, IGNORED FOR OVERLAY PROCESS
    NAME:    HAL_W2_WAIT_DATA_READY/HAL_W2_ISR

*** WARNING L57: UNCALLED FUNCTION, IGNORED FOR OVERLAY PROCESS
    NAME:    _HAL_W2_WRITE/HAL_W2_ISR

*** WARNING L57: UNCALLED FUNCTION, IGNORED FOR OVERLAY PROCESS
    NAME:    _HAL_W2_READ/HAL_W2_ISR

*** WARNING L57: UNCALLED FUNCTION, IGNORED FOR OVERLAY PROCESS
    NAME:    _I2C_MPU_READBIT/HAL_W2_ISR

Program Size: data=88.1 xdata=92 const=80 code=2993
LX51 RUN COMPLETE.  24 WARNING(S),  0 ERROR(S)
