LX51 LINKER/LOCATER V4.66.62.0                                                          11/15/2016  16:40:07  PAGE 1


LX51 LINKER/LOCATER V4.66.62.0, INVOKED BY:
C:\KEIL_V5\C51\BIN\LX51.EXE STARTUP.obj, main.obj, .\hal_w2_isr.obj, .\hal_delay.obj TO FProject DISABLEWARNING (16)


CPU MODE:     8051 MODE
MEMORY MODEL: SMALL


INPUT MODULES INCLUDED:
  STARTUP.obj (?C_STARTUP)
         COMMENT TYPE 1: A51 / ASM51 Assembler
  main.obj (MAIN)
         COMMENT TYPE 0: C51 V9.55
  .\hal_w2_isr.obj (HAL_W2_ISR)
         COMMENT TYPE 0: C51 V9.55
  .\hal_delay.obj (HAL_DELAY)
         COMMENT TYPE 0: C51 V9.55
  C:\KEIL_V5\C51\LIB\C51S.LIB (?C_INIT)
         COMMENT TYPE 1: A51 / ASM51 Assembler
  C:\KEIL_V5\C51\LIB\C51S.LIB (?C?CLDPTR)
         COMMENT TYPE 1: A51 / ASM51 Assembler
  C:\KEIL_V5\C51\LIB\C51S.LIB (?C?CLDOPTR)
         COMMENT TYPE 1: A51 / ASM51 Assembler
  C:\KEIL_V5\C51\LIB\C51S.LIB (?C?CSTPTR)
         COMMENT TYPE 1: A51 / ASM51 Assembler
  C:\KEIL_V5\C51\LIB\C51S.LIB (?C?CSTOPTR)
         COMMENT TYPE 1: A51 / ASM51 Assembler
  C:\KEIL_V5\C51\LIB\C51S.LIB (?C?ILDPTR)
         COMMENT TYPE 1: A51 / ASM51 Assembler
  C:\KEIL_V5\C51\LIB\C51S.LIB (?C?PLDIIDATA)
         COMMENT TYPE 1: A51 / ASM51 Assembler


ACTIVE MEMORY CLASSES OF MODULE:  FProject (?C_STARTUP)

BASE        START       END         USED      MEMORY CLASS
==========================================================
C:000000H   C:000000H   C:00FFFFH   000C52H   CODE
I:000000H   I:000000H   I:0000FFH   000001H   IDATA
I:000000H   I:000000H   I:00007FH   000058H   DATA
C:000000H   C:000000H   C:00FFFFH   000052H   CONST
X:000000H   X:000000H   X:00FFFFH   00005CH   XDATA
I:000020H.0 I:000020H.0 I:00002FH.7 000000H.1 BIT


MEMORY MAP OF MODULE:  FProject (?C_STARTUP)


START     STOP      LENGTH    ALIGN  RELOC    MEMORY CLASS   SEGMENT NAME
=========================================================================

* * * * * * * * * * *   D A T A   M E M O R Y   * * * * * * * * * * * * *
000000H   000007H   000008H   ---    AT..     DATA           "REG BANK 0"
000008H   00000FH   000008H   BYTE   UNIT     DATA           ?DT?MAIN
000010H   000016H   000007H   BYTE   UNIT     DATA           ?DT?HAL_W2_WAIT_DATA_READY?HAL_W2_ISR
000017H   00001DH   000007H   BYTE   UNIT     DATA           ?DT?_I2C_MPU_READBIT?HAL_W2_ISR
00001EH   00001FH   000002H   BYTE   UNIT     DATA           ?DT?HAL_W2_ISR
000020H   000020H   000001H   BYTE   BITADDR  DATA           ?BA?MAIN
000021H.0 000021H.0 000000H.1 BIT    UNIT     BIT            ?BI?MAIN
000021H.1 000021H   000000H.7 ---    ---      **GAP**
000022H   00003CH   00001BH   BYTE   UNIT     DATA           _DATA_GROUP_
00003DH   000042H   000006H   BYTE   UNIT     DATA           ?DT?_HAL_W2_WRITE?HAL_W2_ISR
000043H   000048H   000006H   BYTE   UNIT     DATA           ?DT?_HAL_W2_READ?HAL_W2_ISR
000049H   00004DH   000005H   BYTE   UNIT     DATA           ?DT?_SEND_PACKET_TO_COMPUTER?MAIN
00004EH   000052H   000005H   BYTE   UNIT     DATA           ?DT?_SEND_PACKET_FROM_HOST_TO_COMPUTER?MAIN
000053H   000055H   000003H   BYTE   UNIT     DATA           ?DT?_GETFIFOBYTES?MAIN
LX51 LINKER/LOCATER V4.66.62.0                                                        11/15/2016  16:40:07  PAGE 2


000056H   000058H   000003H   BYTE   UNIT     DATA           ?DT?_PUTSTRING?MAIN
000059H   000059H   000001H   BYTE   UNIT     IDATA          ?STACK

* * * * * * * * * * *   C O D E   M E M O R Y   * * * * * * * * * * * * *
000000H   000002H   000003H   ---    OFFS..   CODE           ?CO??C_STARTUP?0
000003H   00000AH   000008H   BYTE   UNIT     CODE           ?PR?_SETXACCELOFFSET?MAIN
00000BH   00000DH   000003H   BYTE   OFFS..   CODE           ?MAIN?0000B
00000EH   000048H   00003BH   BYTE   UNIT     CODE           ?PR?I2C_IRQ?MAIN
000049H   00004AH   000002H   ---    ---      **GAP**
00004BH   00004DH   000003H   BYTE   OFFS..   CODE           ?MAIN?0004B
00004EH   000052H   000005H   ---    ---      **GAP**
000053H   000055H   000003H   BYTE   OFFS..   CODE           ?MAIN?00053
000056H   00010AH   0000B5H   BYTE   UNIT     CODE           ?C?LIB_CODE
00010BH   0001BEH   0000B4H   BYTE   UNIT     CODE           ?PR?MAIN?MAIN
0001BFH   000251H   000093H   BYTE   UNIT     CODE           ?PR?_GETMOTION6_PACKET?MAIN
000252H   0002DDH   00008CH   BYTE   UNIT     CODE           ?C_C51STARTUP
0002DEH   000363H   000086H   BYTE   UNIT     CODE           ?PR?RF_IRQ?MAIN
000364H   0003E9H   000086H   BYTE   UNIT     CODE           ?PR?SETUP?MAIN
0003EAH   00045CH   000073H   BYTE   UNIT     CODE           ?PR?HAL_W2_SOFT_RESET?HAL_W2_ISR
00045DH   0004C2H   000066H   BYTE   UNIT     CODE           ?PR?MAIN
0004C3H   000525H   000063H   BYTE   UNIT     CODE           ?PR?_I2C_MPU_WRITEBITS?HAL_W2_ISR
000526H   000582H   00005DH   BYTE   UNIT     CODE           ?PR?_I2C_MPU_READBYTES?HAL_W2_ISR
000583H   0005DAH   000058H   BYTE   UNIT     CODE           ?PR?_I2C_MPU_READBITS?HAL_W2_ISR
0005DBH   000630H   000056H   BYTE   UNIT     CODE           ?PR?_SEND_PACKET_TO_HOST?MAIN
000631H   000686H   000056H   BYTE   UNIT     CODE           ?PR?_I2C_MPU_WRITEWORDS?HAL_W2_ISR
000687H   0006D4H   00004EH   BYTE   UNIT     CODE           ?PR?_I2C_MPU_WRITEBIT?HAL_W2_ISR
0006D5H   000719H   000045H   BYTE   UNIT     CODE           ?PR?RF_INIT?MAIN
00071AH   00075BH   000042H   BYTE   UNIT     CODE           ?PR?_HAL_W2_READ?HAL_W2_ISR
00075CH   000795H   00003AH   BYTE   UNIT     CODE           ?PR?_I2C_MPU_WRITEBYTES?HAL_W2_ISR
000796H   0007CDH   000038H   BYTE   UNIT     CODE           ?PR?_HAL_W2_WRITE?HAL_W2_ISR
0007CEH   000802H   000035H   BYTE   UNIT     CODE           ?PR?_SEND_PACKET_TO_COMPUTER?MAIN
000803H   000837H   000035H   BYTE   UNIT     CODE           ?PR?_SEND_PACKET_FROM_HOST_TO_COMPUTER?MAIN
000838H   00086AH   000033H   BYTE   UNIT     CODE           ?PR?MPU_INITIALIZE?MAIN
00086BH   000896H   00002CH   BYTE   UNIT     CODE           ?PR?_TX_MODE_NOACK?MAIN
000897H   0008C1H   00002BH   BYTE   UNIT     CODE           ?PR?_SPI_READ_BUF?MAIN
0008C2H   0008EAH   000029H   BYTE   UNIT     CODE           ?PR?_GETFIFOBYTES?MAIN
0008EBH   000911H   000027H   BYTE   UNIT     CODE           ?PR?HAL_W2_WAIT_DATA_READY?HAL_W2_ISR
000912H   000935H   000024H   BYTE   UNIT     CODE           ?PR?_I2C_MPU_READBIT?HAL_W2_ISR
000936H   000956H   000021H   BYTE   UNIT     CODE           ?PR?_HAL_W2_CONFIGURE_MASTER?HAL_W2_ISR
000957H   000975H   00001FH   BYTE   UNIT     CODE           ?PR?_SPI_WRITE_BUF?MAIN
000976H   000991H   00001CH   BYTE   UNIT     CODE           ?PR?_PUTSTRING?MAIN
000992H   0009ADH   00001CH   BYTE   UNIT     CODE           ?PR?LUZES_INICIAIS?MAIN
0009AEH   0009C8H   00001BH   BYTE   UNIT     CODE           ?PR?MPU_TESTCONNECTION?MAIN
0009C9H   0009E2H   00001AH   BYTE   UNIT     CODE           ?PR?UART_INIT?MAIN
0009E3H   0009FCH   00001AH   BYTE   UNIT     CODE           ?PR?_DELAY_US?HAL_DELAY
0009FDH   000A14H   000018H   BYTE   UNIT     CODE           ?PR?_SETMEMORYBANK?MAIN
000A15H   000A2BH   000017H   BYTE   UNIT     CODE           ?PR?GETFIFOCOUNT?MAIN
000A2CH   000A3FH   000014H   BYTE   UNIT     CODE           ?PR?_DELAY_MS?HAL_DELAY
000A40H   000A52H   000013H   BYTE   UNIT     CODE           ?PR?GETINTSTATUS?MAIN
000A53H   000A65H   000013H   BYTE   UNIT     CODE           ?PR?_SPI_RW_REG?MAIN
000A66H   000A78H   000013H   BYTE   UNIT     CODE           ?PR?_I2C_MPU_WRITEWORD?HAL_W2_ISR
000A79H   000A8AH   000012H   BYTE   UNIT     CODE           ?PR?INICIARIO?MAIN
000A8BH   000A9CH   000012H   BYTE   UNIT     CODE           ?PR?_HAL_W2_INIT_TRANSFER?HAL_W2_ISR
000A9DH   000AAEH   000012H   BYTE   UNIT     CODE           ?PR?_I2C_MPU_READBYTE?HAL_W2_ISR
000AAFH   000ABFH   000011H   BYTE   UNIT     CODE           ?PR?RX_MODE?MAIN
000AC0H   000AD0H   000011H   BYTE   UNIT     CODE           ?PR?_UART_PUTCHAR?MAIN
000AD1H   000AE1H   000011H   BYTE   UNIT     CODE           ?C_INITSEG
000AE2H   000AF2H   000011H   BYTE   UNIT     CODE           ?PR?_I2C_MPU_WRITEBYTE?HAL_W2_ISR
000AF3H   000B02H   000010H   BYTE   UNIT     CODE           ?PR?GETXGYROOFFSETTC?MAIN
000B03H   000B12H   000010H   BYTE   UNIT     CODE           ?PR?GETYGYROOFFSETTC?MAIN
000B13H   000B22H   000010H   BYTE   UNIT     CODE           ?PR?GETZGYROOFFSETTC?MAIN
000B23H   000B32H   000010H   BYTE   UNIT     CODE           ?PR?TMR0_IRQ?MAIN
000B33H   000B40H   00000EH   BYTE   UNIT     CODE           ?PR?_HAL_W2_SET_CLK_FREQ?HAL_W2_ISR
000B41H   000B4EH   00000EH   BYTE   UNIT     CODE           ?PR?HAL_W2_ISR
000B4FH   000B5BH   00000DH   BYTE   UNIT     CODE           ?PR?_SPI_READ?MAIN
LX51 LINKER/LOCATER V4.66.62.0                                                        11/15/2016  16:40:07  PAGE 3


000B5CH   000B67H   00000CH   BYTE   UNIT     CODE           ?PR?RESETFIFO?MAIN
000B68H   000B73H   00000CH   BYTE   UNIT     CODE           ?PR?INICIARRF?MAIN
000B74H   000B7EH   00000BH   BYTE   UNIT     CODE           ?PR?_SETYGYROOFFSET?MAIN
000B7FH   000B89H   00000BH   BYTE   UNIT     CODE           ?PR?_SETZGYROOFFSET?MAIN
000B8AH   000B94H   00000BH   BYTE   UNIT     CODE           ?PR?_SETDMPENABLED?MAIN
000B95H   000B9FH   00000BH   BYTE   UNIT     CODE           ?PR?_HAL_W2_RESPOND_TO_GEN_ADR?HAL_W2_ISR
000BA0H   000BAAH   00000BH   BYTE   UNIT     CODE           ?PR?_HAL_W2_ALTER_CLOCK?HAL_W2_ISR
000BABH   000BB5H   00000BH   BYTE   UNIT     CODE           ?PR?_HAL_W2_IRQ_STOP_COND_ENABLE?HAL_W2_ISR
000BB6H   000BC0H   00000BH   BYTE   UNIT     CODE           ?PR?_HAL_W2_IRQ_ADR_MATCH_ENABLE?HAL_W2_ISR
000BC1H   000BCBH   00000BH   BYTE   UNIT     CODE           ?PR?_HAL_W2_SET_OP_MODE?HAL_W2_ISR
000BCCH   000BD6H   00000BH   BYTE   UNIT     CODE           ?PR?_HAL_W2_ENABLE?HAL_W2_ISR
000BD7H   000BE1H   00000BH   BYTE   UNIT     CODE           ?PR?_HAL_W2_ALL_IRQ_ENABLE?HAL_W2_ISR
000BE2H   000BEBH   00000AH   BYTE   UNIT     CODE           ?PR?_SETXGYROOFFSETTC?MAIN
000BECH   000BF5H   00000AH   BYTE   UNIT     CODE           ?PR?_SETYGYROOFFSETTC?MAIN
000BF6H   000BFFH   00000AH   BYTE   UNIT     CODE           ?PR?_SETZGYROOFFSETTC?MAIN
000C00H   000C09H   00000AH   BYTE   UNIT     CODE           ?PR?START_T0?MAIN
000C0AH   000C13H   00000AH   BYTE   UNIT     CODE           ?PR?STOP_T0?MAIN
000C14H   000C1DH   00000AH   BYTE   UNIT     CODE           ?PR?_SPI_RW?MAIN
000C1EH   000C27H   00000AH   BYTE   UNIT     CODE           ?PR?HAL_W2_WAIT_DATA_READY_ISR?HAL_W2_ISR
000C28H   000C31H   00000AH   BYTE   UNIT     CODE           ?PR?I2C_IRQ_HANDLER?HAL_W2_ISR
000C32H   000C3AH   000009H   BYTE   UNIT     CODE           ?PR?DMPGETFIFOPACKETSIZE?MAIN
000C3BH   000C42H   000008H   BYTE   UNIT     CODE           ?PR?_SETYACCELOFFSET?MAIN
000C43H   000C4AH   000008H   BYTE   UNIT     CODE           ?PR?_SETZACCELOFFSET?MAIN
000C4BH   000C52H   000008H   BYTE   UNIT     CODE           ?PR?_SETXGYROOFFSET?MAIN
000C53H   000C58H   000006H   BYTE   UNIT     CODE           ?PR?_HAL_W2_SET_SLAVE_ADDRESS?HAL_W2_ISR
000C59H   000CAAH   000052H   BYTE   UNIT     CONST          ?CO?MAIN

* * * * * * * * * * *  X D A T A   M E M O R Y  * * * * * * * * * * * * *
000000H   00005BH   00005CH   BYTE   UNIT     XDATA          ?XD?MAIN



OVERLAY MAP OF MODULE:   FProject (?C_STARTUP)


FUNCTION/MODULE                               BIT_GROUP   DATA_GROUP 
--> CALLED FUNCTION/MODULE                   START  STOP  START  STOP
=====================================================================
?C_C51STARTUP                                ----- -----  ----- -----
  +--> MAIN/MAIN
  +--> ?C_INITSEG

MAIN/MAIN                                    ----- -----  ----- -----
  +--> SETUP/MAIN
  +--> _DELAY_MS/HAL_DELAY
  +--> _GETMOTION6_PACKET/MAIN
  +--> _SEND_PACKET_TO_HOST/MAIN
  +--> STOP_T0/MAIN
  +--> ?CO?MAIN
  +--> START_T0/MAIN

SETUP/MAIN                                   ----- -----  ----- -----
  +--> INICIARIO/MAIN
  +--> INICIARRF/MAIN
  +--> _HAL_W2_CONFIGURE_MASTER/HAL_W2_ISR
  +--> LUZES_INICIAIS/MAIN
  +--> ?CO?MAIN
  +--> MPU_INITIALIZE/MAIN
  +--> MPU_TESTCONNECTION/MAIN
  +--> _SEND_PACKET_TO_HOST/MAIN
  +--> _DELAY_MS/HAL_DELAY
  +--> _SETXACCELOFFSET/MAIN
  +--> _SETYACCELOFFSET/MAIN
  +--> _SETZACCELOFFSET/MAIN
  +--> _SETXGYROOFFSET/MAIN
LX51 LINKER/LOCATER V4.66.62.0                                                        11/15/2016  16:40:07  PAGE 4


  +--> _SETYGYROOFFSET/MAIN
  +--> _SETZGYROOFFSET/MAIN

INICIARIO/MAIN                               ----- -----  ----- -----

INICIARRF/MAIN                               ----- -----  ----- -----
  +--> RF_INIT/MAIN
  +--> RX_MODE/MAIN

RF_INIT/MAIN                                 ----- -----  ----- -----
  +--> MAIN
  +--> _SPI_WRITE_BUF/MAIN
  +--> _SPI_RW_REG/MAIN

MAIN                                         ----- -----  ----- -----
  +--> _UART_PUTCHAR/MAIN
  +--> _SPI_RW/MAIN

_UART_PUTCHAR/MAIN                           ----- -----  ----- -----

_SPI_RW/MAIN                                 ----- -----  ----- -----

_SPI_WRITE_BUF/MAIN                          ----- -----  0029H 002DH
  +--> MAIN
  +--> _SPI_RW/MAIN

_SPI_RW_REG/MAIN                             ----- -----  ----- -----
  +--> _SPI_RW/MAIN

RX_MODE/MAIN                                 ----- -----  ----- -----
  +--> _SPI_RW_REG/MAIN

_HAL_W2_CONFIGURE_MASTER/HAL_W2_ISR          ----- -----  ----- -----
  +--> _HAL_W2_ENABLE/HAL_W2_ISR
  +--> _HAL_W2_SET_CLK_FREQ/HAL_W2_ISR
  +--> _HAL_W2_SET_OP_MODE/HAL_W2_ISR
  +--> _HAL_W2_ALL_IRQ_ENABLE/HAL_W2_ISR

_HAL_W2_ENABLE/HAL_W2_ISR                    ----- -----  ----- -----

_HAL_W2_SET_CLK_FREQ/HAL_W2_ISR              ----- -----  ----- -----

_HAL_W2_SET_OP_MODE/HAL_W2_ISR               ----- -----  ----- -----

_HAL_W2_ALL_IRQ_ENABLE/HAL_W2_ISR            ----- -----  ----- -----

LUZES_INICIAIS/MAIN                          ----- -----  ----- -----
  +--> _DELAY_MS/HAL_DELAY

_DELAY_MS/HAL_DELAY                          ----- -----  ----- -----
  +--> _DELAY_US/HAL_DELAY

_DELAY_US/HAL_DELAY                          ----- -----  ----- -----

?CO?MAIN                                     ----- -----  ----- -----

MPU_INITIALIZE/MAIN                          ----- -----  ----- -----
  +--> _I2C_MPU_WRITEBITS/HAL_W2_ISR
  +--> _I2C_MPU_WRITEBIT/HAL_W2_ISR

_I2C_MPU_WRITEBITS/HAL_W2_ISR                ----- -----  0022H 0028H
  +--> _I2C_MPU_READBYTE/HAL_W2_ISR
  +--> _I2C_MPU_WRITEBYTE/HAL_W2_ISR

_I2C_MPU_READBYTE/HAL_W2_ISR                 ----- -----  002BH 002DH
LX51 LINKER/LOCATER V4.66.62.0                                                        11/15/2016  16:40:07  PAGE 5


  +--> _I2C_MPU_READBYTES/HAL_W2_ISR

_I2C_MPU_READBYTES/HAL_W2_ISR                ----- -----  002EH 0035H
  +--> _HAL_W2_INIT_TRANSFER/HAL_W2_ISR
  +--> HAL_W2_WAIT_DATA_READY_ISR/HAL_W2_ISR
  +--> HAL_W2_SOFT_RESET/HAL_W2_ISR
  +--> HAL_W2_ISR

_HAL_W2_INIT_TRANSFER/HAL_W2_ISR             ----- -----  ----- -----
  +--> HAL_W2_ISR

HAL_W2_ISR                                   ----- -----  ----- -----
  +--> HAL_W2_WAIT_DATA_READY_ISR/HAL_W2_ISR

HAL_W2_WAIT_DATA_READY_ISR/HAL_W2_ISR        ----- -----  ----- -----

HAL_W2_SOFT_RESET/HAL_W2_ISR                 ----- -----  0036H 0037H
  +--> _DELAY_US/HAL_DELAY

_I2C_MPU_WRITEBYTE/HAL_W2_ISR                ----- -----  0029H 0029H
  +--> _I2C_MPU_WRITEBYTES/HAL_W2_ISR

_I2C_MPU_WRITEBYTES/HAL_W2_ISR               ----- -----  002AH 002FH
  +--> _HAL_W2_INIT_TRANSFER/HAL_W2_ISR
  +--> HAL_W2_WAIT_DATA_READY_ISR/HAL_W2_ISR
  +--> HAL_W2_ISR

_I2C_MPU_WRITEBIT/HAL_W2_ISR                 ----- -----  0022H 0026H
  +--> _I2C_MPU_READBYTE/HAL_W2_ISR
  +--> _I2C_MPU_WRITEBYTE/HAL_W2_ISR

MPU_TESTCONNECTION/MAIN                      ----- -----  ----- -----
  +--> MAIN
  +--> _I2C_MPU_READBITS/HAL_W2_ISR

_I2C_MPU_READBITS/HAL_W2_ISR                 ----- -----  0022H 002AH
  +--> _I2C_MPU_READBYTE/HAL_W2_ISR

_SEND_PACKET_TO_HOST/MAIN                    ----- -----  0022H 0026H
  +--> _TX_MODE_NOACK/MAIN
  +--> RX_MODE/MAIN

_TX_MODE_NOACK/MAIN                          ----- -----  0027H 0028H
  +--> _SPI_RW_REG/MAIN
  +--> MAIN
  +--> _SPI_WRITE_BUF/MAIN

_SETXACCELOFFSET/MAIN                        ----- -----  ----- -----
  +--> MAIN
  +--> _I2C_MPU_WRITEWORD/HAL_W2_ISR

_I2C_MPU_WRITEWORD/HAL_W2_ISR                ----- -----  0022H 0023H
  +--> _I2C_MPU_WRITEWORDS/HAL_W2_ISR

_I2C_MPU_WRITEWORDS/HAL_W2_ISR               ----- -----  0024H 0029H
  +--> _HAL_W2_INIT_TRANSFER/HAL_W2_ISR
  +--> HAL_W2_WAIT_DATA_READY_ISR/HAL_W2_ISR
  +--> HAL_W2_ISR

_SETYACCELOFFSET/MAIN                        ----- -----  ----- -----
  +--> MAIN
  +--> _I2C_MPU_WRITEWORD/HAL_W2_ISR

_SETZACCELOFFSET/MAIN                        ----- -----  ----- -----
  +--> MAIN
LX51 LINKER/LOCATER V4.66.62.0                                                        11/15/2016  16:40:07  PAGE 6


  +--> _I2C_MPU_WRITEWORD/HAL_W2_ISR

_SETXGYROOFFSET/MAIN                         ----- -----  ----- -----
  +--> MAIN
  +--> _I2C_MPU_WRITEWORD/HAL_W2_ISR

_SETYGYROOFFSET/MAIN                         ----- -----  ----- -----
  +--> _I2C_MPU_WRITEWORD/HAL_W2_ISR

_SETZGYROOFFSET/MAIN                         ----- -----  ----- -----
  +--> _I2C_MPU_WRITEWORD/HAL_W2_ISR

_GETMOTION6_PACKET/MAIN                      ----- -----  0022H 0024H
  +--> MAIN
  +--> _I2C_MPU_READBYTES/HAL_W2_ISR

STOP_T0/MAIN                                 ----- -----  ----- -----
  +--> MAIN

START_T0/MAIN                                ----- -----  ----- -----
  +--> MAIN

?C_INITSEG                                   ----- -----  ----- -----

*** NEW ROOT *******************************

TMR0_IRQ/MAIN                                ----- -----  ----- -----
  +--> MAIN

*** NEW ROOT *******************************

RF_IRQ/MAIN                                  ----- -----  ----- -----
  +--> _SPI_READ/MAIN
  +--> _SPI_READ_BUF/MAIN
  +--> _SPI_RW_REG/MAIN

_SPI_READ/MAIN                               ----- -----  ----- -----
  +--> _SPI_RW/MAIN

_SPI_READ_BUF/MAIN                           ----- -----  0038H 003CH
  +--> MAIN
  +--> _SPI_RW/MAIN

*** NEW ROOT *******************************

I2C_IRQ/MAIN                                 ----- -----  ----- -----
  +--> I2C_IRQ_HANDLER/HAL_W2_ISR

I2C_IRQ_HANDLER/HAL_W2_ISR                   ----- -----  ----- -----



PUBLIC SYMBOLS OF MODULE:  FProject (?C_STARTUP)


      VALUE       CLASS    TYPE      PUBLIC SYMBOL NAME
      =================================================
      00000043H   DATA     BYTE      ?_hal_w2_read?BYTE
      0000003DH   DATA     BYTE      ?_hal_w2_write?BYTE
      00000017H   DATA     BYTE      ?_i2c_mpu_readBit?BYTE
      00000022H   DATA     BYTE      ?_i2c_mpu_readBits?BYTE
      0000002EH   DATA     BYTE      ?_i2c_mpu_readBytes?BYTE
      00000022H   DATA     BYTE      ?_i2c_mpu_writeBit?BYTE
      00000022H   DATA     BYTE      ?_i2c_mpu_writeBits?BYTE
      0000002AH   DATA     BYTE      ?_i2c_mpu_writeBytes?BYTE
LX51 LINKER/LOCATER V4.66.62.0                                                        11/15/2016  16:40:07  PAGE 7


      00000024H   DATA     BYTE      ?_i2c_mpu_writeWords?BYTE
      0000004EH   DATA     BYTE      ?_send_packet_from_host_to_computer?BYTE
      00000049H   DATA     BYTE      ?_send_packet_to_computer?BYTE
      00000022H   DATA     BYTE      ?_send_packet_to_host?BYTE
      00000038H   DATA     BYTE      ?_SPI_Read_Buf?BYTE
      00000029H   DATA     BYTE      ?_SPI_Write_Buf?BYTE
      0100006FH   CODE     ---       ?C?CLDOPTR
      01000056H   CODE     ---       ?C?CLDPTR
      00000000H   NUMBER   ---       ?C?CODESEG
      010000AEH   CODE     ---       ?C?CSTOPTR
      0100009CH   CODE     ---       ?C?CSTPTR
      010000D0H   CODE     ---       ?C?ILDPTR
      010000FBH   CODE     ---       ?C?PLDIIDATA
      00000000H   NUMBER   ---       ?C?XDATASEG
      01000299H   CODE     ---       ?C_START
      01000000H   CODE     ---       ?C_STARTUP
      01000A2CH   CODE     ---       _delay_ms
      010009EEH   CODE     ---       _delay_us
      010008C2H   CODE     ---       _getFIFOBytes
      010001BFH   CODE     ---       _getMotion6_packet
      01000BD7H   CODE     ---       _hal_w2_all_irq_enable
      01000BA0H   CODE     ---       _hal_w2_alter_clock
      01000936H   CODE     ---       _hal_w2_configure_master
      01000BCCH   CODE     ---       _hal_w2_enable
      01000A8BH   CODE     ---       _hal_w2_init_transfer
      01000BB6H   CODE     ---       _hal_w2_irq_adr_match_enable
      01000BABH   CODE     ---       _hal_w2_irq_stop_cond_enable
      0100071AH   CODE     ---       _hal_w2_read
      01000B95H   CODE     ---       _hal_w2_respond_to_gen_adr
      01000B33H   CODE     ---       _hal_w2_set_clk_freq
      01000BC1H   CODE     ---       _hal_w2_set_op_mode
      01000C53H   CODE     ---       _hal_w2_set_slave_address
      01000796H   CODE     ---       _hal_w2_write
      01000912H   CODE     ---       _i2c_mpu_readBit
      01000583H   CODE     ---       _i2c_mpu_readBits
      01000A9DH   CODE     ---       _i2c_mpu_readByte
      01000526H   CODE     ---       _i2c_mpu_readBytes
      01000687H   CODE     ---       _i2c_mpu_writeBit
      010004C3H   CODE     ---       _i2c_mpu_writeBits
      01000AE2H   CODE     ---       _i2c_mpu_writeByte
      0100075CH   CODE     ---       _i2c_mpu_writeBytes
      01000A66H   CODE     ---       _i2c_mpu_writeWord
      01000631H   CODE     ---       _i2c_mpu_writeWords
      01000976H   CODE     ---       _putstring
      01000803H   CODE     ---       _send_packet_from_host_to_computer
      010007CEH   CODE     ---       _send_packet_to_computer
      010005DBH   CODE     ---       _send_packet_to_host
      01000B8AH   CODE     ---       _setDMPEnabled
      010009FDH   CODE     ---       _setMemoryBank
      01000003H   CODE     ---       _setXAccelOffset
      01000C4BH   CODE     ---       _setXGyroOffset
      01000BE2H   CODE     ---       _setXGyroOffsetTC
      01000C3BH   CODE     ---       _setYAccelOffset
      01000B74H   CODE     ---       _setYGyroOffset
      01000BECH   CODE     ---       _setYGyroOffsetTC
      01000C43H   CODE     ---       _setZAccelOffset
      01000B7FH   CODE     ---       _setZGyroOffset
      01000BF6H   CODE     ---       _setZGyroOffsetTC
      01000B4FH   CODE     ---       _SPI_Read
      01000897H   CODE     ---       _SPI_Read_Buf
      01000C14H   CODE     ---       _SPI_RW
      01000A53H   CODE     ---       _SPI_RW_Reg
      01000957H   CODE     ---       _SPI_Write_Buf
      0100086BH   CODE     ---       _TX_Mode_NOACK
      01000AC9H   CODE     ---       _uart_putchar
LX51 LINKER/LOCATER V4.66.62.0                                                        11/15/2016  16:40:07  PAGE 8


*SFR* 000000D0H.6 DATA     BIT       AC
*SFR* 000000E0H   DATA     BYTE      ACC
*SFR* 000000D3H   DATA     BYTE      ADCCON1
*SFR* 000000D2H   DATA     BYTE      ADCCON2
*SFR* 000000D1H   DATA     BYTE      ADCCON3
*SFR* 000000D4H   DATA     BYTE      ADCDATH
*SFR* 000000D5H   DATA     BYTE      ADCDATL
*SFR* 000000D8H   DATA     BYTE      ADCON
      0000000AH   DATA     ---       ADDR_HOST
*SFR* 000000EFH   DATA     BYTE      ARCON
*SFR* 000000F0H   DATA     BYTE      B
*SFR* 000000D8H.7 DATA     BIT       BD
      0200004EH   XDATA    ---       buffer
*SFR* 000000C2H   DATA     WORD      CC1
*SFR* 000000C4H   DATA     WORD      CC2
*SFR* 000000C6H   DATA     WORD      CC3
*SFR* 000000C1H   DATA     BYTE      CCEN
*SFR* 000000C3H   DATA     BYTE      CCH1
*SFR* 000000C5H   DATA     BYTE      CCH2
*SFR* 000000C7H   DATA     BYTE      CCH3
*SFR* 000000C2H   DATA     BYTE      CCL1
*SFR* 000000C4H   DATA     BYTE      CCL2
*SFR* 000000C6H   DATA     BYTE      CCL3
*SFR* 000000DDH   DATA     BYTE      CCPDATIA
*SFR* 000000DEH   DATA     BYTE      CCPDATIB
*SFR* 000000DFH   DATA     BYTE      CCPDATO
*SFR* 000000A3H   DATA     BYTE      CLKCTRL
*SFR* 000000ADH   DATA     BYTE      CLKLFCTRL
*SFR* 000000DBH   DATA     BYTE      COMPCON
*SFR* 000000CAH   DATA     WORD      CRC
*SFR* 000000CBH   DATA     BYTE      CRCH
*SFR* 000000CAH   DATA     BYTE      CRCL
*SFR* 000000D0H.7 DATA     BIT       CY
      0000001EH   DATA     BYTE      data_ready
      01000C32H   CODE     ---       dmpGetFIFOPacketSize
      0200004CH   XDATA    WORD      dmpPacketSize
*SFR* 00000083H   DATA     BYTE      DPH
*SFR* 00000085H   DATA     BYTE      DPH1
*SFR* 00000082H   DATA     BYTE      DPL
*SFR* 00000084H   DATA     BYTE      DPL1
*SFR* 00000092H   DATA     BYTE      DPS
*SFR* 000000A8H.7 DATA     BIT       EA
*SFR* 000000A8H.4 DATA     BIT       ES0
*SFR* 000000A8H.1 DATA     BIT       ET0
*SFR* 000000A8H.3 DATA     BIT       ET1
*SFR* 000000A8H.5 DATA     BIT       ET2
*SFR* 000000A8H   DATA     BIT       EX0
*SFR* 000000A8H.2 DATA     BIT       EX1
*SFR* 000000B8H.7 DATA     BIT       EXEN2
*SFR* 000000C0H.7 DATA     BIT       EXF2
*SFR* 000000D0H.5 DATA     BIT       F0
*SFR* 000000FAH   DATA     BYTE      FCR
*SFR* 000000FBH   DATA     BYTE      FDCR
*SFR* 000000F9H   DATA     BYTE      FPCR
*SFR* 000000F8H   DATA     BYTE      FSR
      01000A15H   CODE     ---       getFIFOCount
      01000A40H   CODE     ---       getIntStatus
      01000AF3H   CODE     ---       getXGyroOffsetTC
      01000B03H   CODE     ---       getYGyroOffsetTC
      01000B13H   CODE     ---       getZGyroOffsetTC
      010003EAH   CODE     ---       hal_w2_soft_reset
      010008EBH   CODE     ---       hal_w2_wait_data_ready
      01000C1EH   CODE     ---       hal_w2_wait_data_ready_ISR
      0100000EH   CODE     ---       I2C_IRQ
      01000C28H   CODE     ---       I2C_IRQ_handler
LX51 LINKER/LOCATER V4.66.62.0                                                        11/15/2016  16:40:07  PAGE 9


*SFR* 000000C8H.5 DATA     BIT       I2FR
*SFR* 000000C8H.6 DATA     BIT       I3FR
*SFR* 00000088H.1 DATA     BIT       IE0
*SFR* 00000088H.3 DATA     BIT       IE1
*SFR* 000000A8H   DATA     BYTE      IEN0
*SFR* 000000B8H   DATA     BYTE      IEN1
*SFR* 000000F8H.3 DATA     BIT       INFEN
      01000A79H   CODE     ---       iniciarIO
      01000B68H   CODE     ---       iniciarRF
*SFR* 000000A6H   DATA     BYTE      INTEXP
*SFR* 000000A9H   DATA     BYTE      IP0
*SFR* 000000B9H   DATA     BYTE      IP1
*SFR* 000000C0H   DATA     BYTE      IRCON
*SFR* 00000088H   DATA     BIT       IT0
*SFR* 00000088H.2 DATA     BIT       IT1
*SFR* 00000080H.3 DATA     BIT       LEDVM
      01000992H   CODE     ---       luzes_iniciais
      0100010BH   CODE     ---       main
      00000020H.4 DATA     BIT       MAX_RT
*SFR* 000000F8H.7 DATA     BIT       MCDIS
*SFR* 000000E9H   DATA     BYTE      MD0
*SFR* 000000EAH   DATA     BYTE      MD1
*SFR* 000000EBH   DATA     BYTE      MD2
*SFR* 000000ECH   DATA     BYTE      MD3
*SFR* 000000EDH   DATA     BYTE      MD4
*SFR* 000000EEH   DATA     BYTE      MD5
*SFR* 000000A7H   DATA     BYTE      MEMCON
*SFR* 000000B8H.4 DATA     BIT       MISC
*SFR* 000000C0H.4 DATA     BIT       MISCF
*SFR* 000000C9H   DATA     BYTE      MPAGE
      01000838H   CODE     ---       mpu_initialize
      010009AEH   CODE     ---       mpu_testConnection
      00000021H.0 BIT      BIT       newPayload
*SFR* 000000AEH   DATA     BYTE      OPMCON
*SFR* 000000D0H.2 DATA     BIT       OV
*SFR* 000000D0H   DATA     BIT       P
*SFR* 00000080H   DATA     BYTE      P0
*SFR* 00000080H   DATA     BIT       P00
*SFR* 00000080H.1 DATA     BIT       P01
*SFR* 00000080H.2 DATA     BIT       P02
*SFR* 00000080H.3 DATA     BIT       P03
*SFR* 00000080H.4 DATA     BIT       P04
*SFR* 00000080H.5 DATA     BIT       P05
*SFR* 00000080H.6 DATA     BIT       P06
*SFR* 00000080H.7 DATA     BIT       P07
*SFR* 0000009EH   DATA     BYTE      P0CON
*SFR* 00000093H   DATA     BYTE      P0DIR
*SFR* 00000090H   DATA     BYTE      P1
*SFR* 00000090H   DATA     BIT       P10
*SFR* 00000090H.1 DATA     BIT       P11
*SFR* 00000090H.2 DATA     BIT       P12
*SFR* 00000090H.3 DATA     BIT       P13
*SFR* 00000090H.4 DATA     BIT       P14
*SFR* 00000090H.5 DATA     BIT       P15
*SFR* 00000090H.6 DATA     BIT       P16
*SFR* 00000090H.7 DATA     BIT       P17
*SFR* 0000009FH   DATA     BYTE      P1CON
*SFR* 00000094H   DATA     BYTE      P1DIR
*SFR* 000000A0H   DATA     BYTE      P2
*SFR* 000000A0H   DATA     BIT       P20
*SFR* 000000A0H.1 DATA     BIT       P21
*SFR* 000000A0H.2 DATA     BIT       P22
*SFR* 000000A0H.3 DATA     BIT       P23
*SFR* 000000A0H.4 DATA     BIT       P24
*SFR* 000000A0H.5 DATA     BIT       P25
LX51 LINKER/LOCATER V4.66.62.0                                                        11/15/2016  16:40:07  PAGE 10


*SFR* 000000A0H.6 DATA     BIT       P26
*SFR* 000000A0H.7 DATA     BIT       P27
*SFR* 00000097H   DATA     BYTE      P2CON
*SFR* 00000095H   DATA     BYTE      P2DIR
*SFR* 000000B0H   DATA     BYTE      P3
*SFR* 000000B0H   DATA     BIT       P30
*SFR* 000000B0H.1 DATA     BIT       P31
*SFR* 000000B0H.2 DATA     BIT       P32
*SFR* 000000B0H.3 DATA     BIT       P33
*SFR* 000000B0H.4 DATA     BIT       P34
*SFR* 000000B0H.5 DATA     BIT       P35
*SFR* 000000B0H.6 DATA     BIT       P36
*SFR* 000000B0H.7 DATA     BIT       P37
*SFR* 0000008FH   DATA     BYTE      P3CON
*SFR* 00000096H   DATA     BYTE      P3DIR
      02000040H   XDATA    ---       packet_motion6
      0000000FH   DATA     BYTE      payloadWidth
*SFR* 00000087H   DATA     BYTE      PCON
*SFR* 000000DCH   DATA     BYTE      POFCON
*SFR* 000000D0H   DATA     BYTE      PSW
*SFR* 000000B2H   DATA     BYTE      PWMCON
*SFR* 000000A1H   DATA     BYTE      PWMDC0
*SFR* 000000A2H   DATA     BYTE      PWMDC1
*SFR* 000000A4H   DATA     BYTE      PWRDWN
*SFR* 00000098H.2 DATA     BIT       RB80
*SFR* 000000F8H.1 DATA     BIT       RDEND
*SFR* 000000F8H.2 DATA     BIT       RDIS
*SFR* 000000F8H.4 DATA     BIT       RDYN
*SFR* 00000098H.4 DATA     BIT       REN0
      01000B5CH   CODE     ---       resetFIFO
*SFR* 000000B8H.1 DATA     BIT       RF
      010006D5H   CODE     ---       rf_init
      010002DEH   CODE     ---       RF_IRQ
*SFR* 000000E8H   DATA     BIT       RFCE
*SFR* 000000E8H.2 DATA     BIT       RFCKEN
*SFR* 000000E8H   DATA     BYTE      RFCON
*SFR* 000000E8H.1 DATA     BIT       RFCSN
*SFR* 000000C0H.1 DATA     BIT       RFF
*SFR* 000000B8H   DATA     BIT       RFSPI
*SFR* 000000C0H   DATA     BIT       RFSPIF
*SFR* 00000098H   DATA     BIT       RI0
*SFR* 000000D6H   DATA     BYTE      RNGCTL
*SFR* 000000D7H   DATA     BYTE      RNGDAT
*SFR* 000000D0H.3 DATA     BIT       RS0
*SFR* 000000D0H.4 DATA     BIT       RS1
*SFR* 000000B1H   DATA     BYTE      RSTREAS
*SFR* 000000B4H   DATA     BYTE      RTC2CMP0
*SFR* 000000B5H   DATA     BYTE      RTC2CMP1
*SFR* 000000B3H   DATA     BYTE      RTC2CON
*SFR* 000000B6H   DATA     BYTE      RTC2CPT00
*SFR* 000000ABH   DATA     BYTE      RTC2CPT01
*SFR* 000000ACH   DATA     BYTE      RTC2CPT10
      02000000H   XDATA    ---       rx_buf
      00000020H.6 DATA     BIT       RX_DR
      01000AAFH   CODE     ---       RX_Mode
*SFR* 00000099H   DATA     BYTE      S0BUF
*SFR* 00000098H   DATA     BYTE      S0CON
*SFR* 000000BAH   DATA     BYTE      S0RELH
*SFR* 000000AAH   DATA     BYTE      S0RELL
*SFR* 00000080H.2 DATA     BIT       S1
*SFR* 00000090H.4 DATA     BIT       S2
      01000364H   CODE     ---       setup
*SFR* 00000098H.7 DATA     BIT       SM0
*SFR* 00000098H.6 DATA     BIT       SM1
*SFR* 00000098H.5 DATA     BIT       SM20
LX51 LINKER/LOCATER V4.66.62.0                                                        11/15/2016  16:40:07  PAGE 11


*SFR* 00000081H   DATA     BYTE      SP
*SFR* 000000B8H.2 DATA     BIT       SPI
*SFR* 000000C0H.2 DATA     BIT       SPIF
*SFR* 000000FCH   DATA     BYTE      SPIMCON0
*SFR* 000000FDH   DATA     BYTE      SPIMCON1
*SFR* 000000FFH   DATA     BYTE      SPIMDAT
*SFR* 000000FEH   DATA     BYTE      SPIMSTAT
*SFR* 000000E4H   DATA     BYTE      SPIRCON0
*SFR* 000000E5H   DATA     BYTE      SPIRCON1
*SFR* 000000E7H   DATA     BYTE      SPIRDAT
*SFR* 000000E6H   DATA     BYTE      SPIRSTAT
*SFR* 000000BCH   DATA     BYTE      SPISCON0
*SFR* 000000BDH   DATA     BYTE      SPISCON1
*SFR* 000000BFH   DATA     BYTE      SPISDAT
*SFR* 000000B7H   DATA     BYTE      SPISRDSZ
*SFR* 000000BEH   DATA     BYTE      SPISSTAT
      00000020H   DATA     BYTE      sta
      01000C00H   CODE     ---       start_T0
      01000C0AH   CODE     ---       stop_T0
*SFR* 000000F8H.6 DATA     BIT       STP
*SFR* 000000CCH   DATA     WORD      T2
*SFR* 000000C8H.2 DATA     BIT       T2CM
*SFR* 000000C8H   DATA     BYTE      T2CON
*SFR* 000000C8H   DATA     BIT       T2I0
*SFR* 000000C8H.1 DATA     BIT       T2I1
*SFR* 000000C8H.7 DATA     BIT       T2PS
*SFR* 000000C8H.3 DATA     BIT       T2R0
*SFR* 000000C8H.4 DATA     BIT       T2R1
*SFR* 00000098H.3 DATA     BIT       TB80
*SFR* 00000088H   DATA     BYTE      TCON
*SFR* 00000088H.5 DATA     BIT       TF0
*SFR* 00000088H.7 DATA     BIT       TF1
*SFR* 000000C0H.6 DATA     BIT       TF2
*SFR* 0000008CH   DATA     BYTE      TH0
*SFR* 0000008DH   DATA     BYTE      TH1
*SFR* 000000CDH   DATA     BYTE      TH2
*SFR* 00000098H.1 DATA     BIT       TI0
      00000008H   DATA     INT       timer_flag
*SFR* 0000008AH   DATA     BYTE      TL0
*SFR* 0000008BH   DATA     BYTE      TL1
*SFR* 000000CCH   DATA     BYTE      TL2
*SFR* 00000089H   DATA     BYTE      TMOD
      01000B23H   CODE     ---       TMR0_IRQ
*SFR* 00000088H.4 DATA     BIT       TR0
*SFR* 00000088H.6 DATA     BIT       TR1
      02000020H   XDATA    ---       tx_buf
      00000020H.5 DATA     BIT       TX_DS
      010009C9H   CODE     ---       uart_init
      0000001FH   DATA     BYTE      w2_status
*SFR* 000000E2H   DATA     BYTE      W2CON0
*SFR* 000000E1H   DATA     BYTE      W2CON1
*SFR* 000000DAH   DATA     BYTE      W2DAT
*SFR* 000000D9H   DATA     BYTE      W2SADR
*SFR* 000000AFH   DATA     BYTE      WDSV
*SFR* 000000F8H.5 DATA     BIT       WEN
*SFR* 000000F8H   DATA     BIT       WPEN
*SFR* 000000A5H   DATA     BYTE      WUCON
*SFR* 000000C0H.5 DATA     BIT       WUF
*SFR* 000000B8H.5 DATA     BIT       WUIRQ
*SFR* 000000CFH   DATA     BYTE      WUOPC0
*SFR* 000000CEH   DATA     BYTE      WUOPC1
*SFR* 000000B8H.3 DATA     BIT       WUPIN
*SFR* 000000C0H.3 DATA     BIT       WUPINF


LX51 LINKER/LOCATER V4.66.62.0                                                        11/15/2016  16:40:07  PAGE 12



SYMBOL TABLE OF MODULE:  FProject (?C_STARTUP)

      VALUE       REP       CLASS    TYPE      SYMBOL NAME
      ====================================================
      ---         MODULE    ---      ---       ?C_STARTUP
      01000000H   PUBLIC    CODE     ---       ?C_STARTUP
      000000E0H   SYMBOL    DATA     ---       ACC
      000000F0H   SYMBOL    DATA     ---       B
      00000083H   SYMBOL    DATA     ---       DPH
      00000082H   SYMBOL    DATA     ---       DPL
      00000000H   SYMBOL    NUMBER   ---       IBPSTACK
      00000100H   SYMBOL    NUMBER   ---       IBPSTACKTOP
      00000080H   SYMBOL    NUMBER   ---       IDATALEN
      01000255H   SYMBOL    CODE     ---       IDATALOOP
      00000000H   SYMBOL    NUMBER   ---       PBPSTACK
      00000100H   SYMBOL    NUMBER   ---       PBPSTACKTOP
      00000000H   SYMBOL    NUMBER   ---       PDATALEN
      00000000H   SYMBOL    NUMBER   ---       PDATASTART
      00000000H   SYMBOL    NUMBER   ---       PPAGE
      00000000H   SYMBOL    NUMBER   ---       PPAGEENABLE
      000000A0H   SYMBOL    DATA     ---       PPAGE_SFR
      00000081H   SYMBOL    DATA     ---       SP
      01000252H   SYMBOL    CODE     ---       STARTUP1
      00000000H   SYMBOL    NUMBER   ---       XBPSTACK
      00000000H   SYMBOL    NUMBER   ---       XBPSTACKTOP
      00000000H   SYMBOL    NUMBER   ---       XDATALEN
      00000000H   SYMBOL    NUMBER   ---       XDATASTART
      01000000H   LINE      CODE     ---       #126
      01000252H   LINE      CODE     ---       #133
      01000254H   LINE      CODE     ---       #134
      01000255H   LINE      CODE     ---       #135
      01000256H   LINE      CODE     ---       #136
      01000258H   LINE      CODE     ---       #185
      0100025BH   LINE      CODE     ---       #196

      ---         MODULE    ---      ---       MAIN
      0200004EH   PUBLIC    XDATA    ---       buffer
      0000000FH   PUBLIC    DATA     BYTE      payloadWidth
      00000020H.4 PUBLIC    DATA     BIT       MAX_RT
      0200004CH   PUBLIC    XDATA    WORD      dmpPacketSize
      0000000AH   PUBLIC    DATA     ---       ADDR_HOST
      02000040H   PUBLIC    XDATA    ---       packet_motion6
      00000020H.5 PUBLIC    DATA     BIT       TX_DS
      00000008H   PUBLIC    DATA     INT       timer_flag
      00000020H.6 PUBLIC    DATA     BIT       RX_DR
      00000020H   PUBLIC    DATA     BYTE      sta
      00000021H.0 PUBLIC    BIT      BIT       newPayload
      02000020H   PUBLIC    XDATA    ---       tx_buf
      02000000H   PUBLIC    XDATA    ---       rx_buf
      0100000EH   PUBLIC    CODE     ---       I2C_IRQ
      01000992H   PUBLIC    CODE     ---       luzes_iniciais
      0100010BH   PUBLIC    CODE     ---       main
      01000364H   PUBLIC    CODE     ---       setup
      01000A79H   PUBLIC    CODE     ---       iniciarIO
      0000004EH   PUBLIC    DATA     BYTE      ?_send_packet_from_host_to_computer?BYTE
      01000803H   PUBLIC    CODE     ---       _send_packet_from_host_to_computer
      00000049H   PUBLIC    DATA     BYTE      ?_send_packet_to_computer?BYTE
      010007CEH   PUBLIC    CODE     ---       _send_packet_to_computer
      00000022H   PUBLIC    DATA     BYTE      ?_send_packet_to_host?BYTE
      010005DBH   PUBLIC    CODE     ---       _send_packet_to_host
      01000976H   PUBLIC    CODE     ---       _putstring
      01000AC9H   PUBLIC    CODE     ---       _uart_putchar
      010009C9H   PUBLIC    CODE     ---       uart_init
      01000B68H   PUBLIC    CODE     ---       iniciarRF
LX51 LINKER/LOCATER V4.66.62.0                                                        11/15/2016  16:40:07  PAGE 13


      010006D5H   PUBLIC    CODE     ---       rf_init
      010002DEH   PUBLIC    CODE     ---       RF_IRQ
      0100086BH   PUBLIC    CODE     ---       _TX_Mode_NOACK
      01000AAFH   PUBLIC    CODE     ---       RX_Mode
      00000029H   PUBLIC    DATA     BYTE      ?_SPI_Write_Buf?BYTE
      01000957H   PUBLIC    CODE     ---       _SPI_Write_Buf
      00000038H   PUBLIC    DATA     BYTE      ?_SPI_Read_Buf?BYTE
      01000897H   PUBLIC    CODE     ---       _SPI_Read_Buf
      01000B4FH   PUBLIC    CODE     ---       _SPI_Read
      01000A53H   PUBLIC    CODE     ---       _SPI_RW_Reg
      01000C14H   PUBLIC    CODE     ---       _SPI_RW
      01000C0AH   PUBLIC    CODE     ---       stop_T0
      01000C00H   PUBLIC    CODE     ---       start_T0
      01000B23H   PUBLIC    CODE     ---       TMR0_IRQ
      01000BF6H   PUBLIC    CODE     ---       _setZGyroOffsetTC
      01000B13H   PUBLIC    CODE     ---       getZGyroOffsetTC
      01000BECH   PUBLIC    CODE     ---       _setYGyroOffsetTC
      01000B03H   PUBLIC    CODE     ---       getYGyroOffsetTC
      01000BE2H   PUBLIC    CODE     ---       _setXGyroOffsetTC
      01000AF3H   PUBLIC    CODE     ---       getXGyroOffsetTC
      010008C2H   PUBLIC    CODE     ---       _getFIFOBytes
      01000C32H   PUBLIC    CODE     ---       dmpGetFIFOPacketSize
      01000B5CH   PUBLIC    CODE     ---       resetFIFO
      01000B8AH   PUBLIC    CODE     ---       _setDMPEnabled
      01000A40H   PUBLIC    CODE     ---       getIntStatus
      01000A15H   PUBLIC    CODE     ---       getFIFOCount
      010009FDH   PUBLIC    CODE     ---       _setMemoryBank
      01000B7FH   PUBLIC    CODE     ---       _setZGyroOffset
      01000B74H   PUBLIC    CODE     ---       _setYGyroOffset
      01000C4BH   PUBLIC    CODE     ---       _setXGyroOffset
      01000C43H   PUBLIC    CODE     ---       _setZAccelOffset
      01000C3BH   PUBLIC    CODE     ---       _setYAccelOffset
      01000003H   PUBLIC    CODE     ---       _setXAccelOffset
      010001BFH   PUBLIC    CODE     ---       _getMotion6_packet
      010009AEH   PUBLIC    CODE     ---       mpu_testConnection
      01000838H   PUBLIC    CODE     ---       mpu_initialize
      00000098H.3 SFRSYM    DATA     BIT       TB80
      000000BEH   SFRSYM    DATA     BYTE      SPISSTAT
      000000C8H   SFRSYM    DATA     BIT       T2I0
      000000C3H   SFRSYM    DATA     BYTE      CCH1
      00000080H   SFRSYM    DATA     BYTE      P0
      000000C8H.1 SFRSYM    DATA     BIT       T2I1
      000000DFH   SFRSYM    DATA     BYTE      CCPDATO
      000000C5H   SFRSYM    DATA     BYTE      CCH2
      00000090H   SFRSYM    DATA     BYTE      P1
      000000C7H   SFRSYM    DATA     BYTE      CCH3
      000000A0H   SFRSYM    DATA     BYTE      P2
      00000098H.5 SFRSYM    DATA     BIT       SM20
      000000B0H   SFRSYM    DATA     BYTE      P3
      00000080H.2 SFRSYM    DATA     BIT       S1
      000000D0H.6 SFRSYM    DATA     BIT       AC
      000000C2H   SFRSYM    DATA     BYTE      CCL1
      00000090H.4 SFRSYM    DATA     BIT       S2
      000000C4H   SFRSYM    DATA     BYTE      CCL2
      000000D8H.7 SFRSYM    DATA     BIT       BD
      000000B8H   SFRSYM    DATA     BIT       RFSPI
      000000A8H.7 SFRSYM    DATA     BIT       EA
      000000CCH   SFRSYM    DATA     WORD      T2
      000000C6H   SFRSYM    DATA     BYTE      CCL3
      000000B7H   SFRSYM    DATA     BYTE      SPISRDSZ
      000000C8H.3 SFRSYM    DATA     BIT       T2R0
      000000C8H.4 SFRSYM    DATA     BIT       T2R1
      000000A8H   SFRSYM    DATA     BYTE      IEN0
      000000B8H   SFRSYM    DATA     BYTE      IEN1
      000000A5H   SFRSYM    DATA     BYTE      WUCON
LX51 LINKER/LOCATER V4.66.62.0                                                        11/15/2016  16:40:07  PAGE 14


      00000085H   SFRSYM    DATA     BYTE      DPH1
      000000DBH   SFRSYM    DATA     BYTE      COMPCON
      000000A3H   SFRSYM    DATA     BYTE      CLKCTRL
      00000084H   SFRSYM    DATA     BYTE      DPL1
      000000C8H.5 SFRSYM    DATA     BIT       I2FR
      000000B8H.3 SFRSYM    DATA     BIT       WUPIN
      000000C8H.6 SFRSYM    DATA     BIT       I3FR
      000000FFH   SFRSYM    DATA     BYTE      SPIMDAT
      000000C0H.7 SFRSYM    DATA     BIT       EXF2
      00000098H.4 SFRSYM    DATA     BIT       REN0
      000000C8H.2 SFRSYM    DATA     BIT       T2CM
      000000B8H.1 SFRSYM    DATA     BIT       RF
      000000B8H.5 SFRSYM    DATA     BIT       WUIRQ
      000000E7H   SFRSYM    DATA     BYTE      SPIRDAT
      000000C1H   SFRSYM    DATA     BYTE      CCEN
      000000E2H   SFRSYM    DATA     BYTE      W2CON0
      000000BFH   SFRSYM    DATA     BYTE      SPISDAT
      000000D0H.7 SFRSYM    DATA     BIT       CY
      000000E1H   SFRSYM    DATA     BYTE      W2CON1
      000000FBH   SFRSYM    DATA     BYTE      FDCR
      000000E8H   SFRSYM    DATA     BIT       RFCE
      000000CBH   SFRSYM    DATA     BYTE      CRCH
      00000081H   SFRSYM    DATA     BYTE      SP
      000000D0H.2 SFRSYM    DATA     BIT       OV
      000000CAH   SFRSYM    DATA     BYTE      CRCL
      000000ADH   SFRSYM    DATA     BYTE      CLKLFCTRL
      000000B1H   SFRSYM    DATA     BYTE      RSTREAS
      000000C8H.7 SFRSYM    DATA     BIT       T2PS
      000000F9H   SFRSYM    DATA     BYTE      FPCR
      000000B8H.4 SFRSYM    DATA     BIT       MISC
      000000A1H   SFRSYM    DATA     BYTE      PWMDC0
      000000B4H   SFRSYM    DATA     BYTE      RTC2CMP0
      000000A2H   SFRSYM    DATA     BYTE      PWMDC1
      000000B5H   SFRSYM    DATA     BYTE      RTC2CMP1
      00000080H   SFRSYM    DATA     BIT       P00
      000000BAH   SFRSYM    DATA     BYTE      S0RELH
      00000090H   SFRSYM    DATA     BIT       P10
      00000080H.1 SFRSYM    DATA     BIT       P01
      00000087H   SFRSYM    DATA     BYTE      PCON
      000000A0H   SFRSYM    DATA     BIT       P20
      00000090H.1 SFRSYM    DATA     BIT       P11
      00000080H.2 SFRSYM    DATA     BIT       P02
      000000B0H   SFRSYM    DATA     BIT       P30
      000000A0H.1 SFRSYM    DATA     BIT       P21
      00000090H.2 SFRSYM    DATA     BIT       P12
      00000080H.3 SFRSYM    DATA     BIT       P03
      000000C0H.2 SFRSYM    DATA     BIT       SPIF
      000000F8H.2 SFRSYM    DATA     BIT       RDIS
      000000B0H.1 SFRSYM    DATA     BIT       P31
      000000A0H.2 SFRSYM    DATA     BIT       P22
      00000090H.3 SFRSYM    DATA     BIT       P13
      00000080H.4 SFRSYM    DATA     BIT       P04
      000000AAH   SFRSYM    DATA     BYTE      S0RELL
      000000B0H.2 SFRSYM    DATA     BIT       P32
      000000A0H.3 SFRSYM    DATA     BIT       P23
      00000090H.4 SFRSYM    DATA     BIT       P14
      00000080H.5 SFRSYM    DATA     BIT       P05
      000000D9H   SFRSYM    DATA     BYTE      W2SADR
      00000089H   SFRSYM    DATA     BYTE      TMOD
      00000088H   SFRSYM    DATA     BYTE      TCON
      000000B0H.3 SFRSYM    DATA     BIT       P33
      000000A0H.4 SFRSYM    DATA     BIT       P24
      00000090H.5 SFRSYM    DATA     BIT       P15
      00000080H.6 SFRSYM    DATA     BIT       P06
      000000B0H.4 SFRSYM    DATA     BIT       P34
LX51 LINKER/LOCATER V4.66.62.0                                                        11/15/2016  16:40:07  PAGE 15


      000000A0H.5 SFRSYM    DATA     BIT       P25
      00000090H.6 SFRSYM    DATA     BIT       P16
      00000080H.7 SFRSYM    DATA     BIT       P07
      000000C2H   SFRSYM    DATA     WORD      CC1
      000000B0H.5 SFRSYM    DATA     BIT       P35
      000000A0H.6 SFRSYM    DATA     BIT       P26
      00000090H.7 SFRSYM    DATA     BIT       P17
      000000C4H   SFRSYM    DATA     WORD      CC2
      000000B0H.6 SFRSYM    DATA     BIT       P36
      000000A0H.7 SFRSYM    DATA     BIT       P27
      000000C6H   SFRSYM    DATA     WORD      CC3
      000000B0H.7 SFRSYM    DATA     BIT       P37
      000000E8H.2 SFRSYM    DATA     BIT       RFCKEN
      000000F8H   SFRSYM    DATA     BIT       WPEN
      000000DDH   SFRSYM    DATA     BYTE      CCPDATIA
      000000DEH   SFRSYM    DATA     BYTE      CCPDATIB
      00000088H.1 SFRSYM    DATA     BIT       IE0
      000000F8H.4 SFRSYM    DATA     BIT       RDYN
      00000088H.3 SFRSYM    DATA     BIT       IE1
      000000CFH   SFRSYM    DATA     BYTE      WUOPC0
      000000F0H   SFRSYM    DATA     BYTE      B
      000000E9H   SFRSYM    DATA     BYTE      MD0
      000000CEH   SFRSYM    DATA     BYTE      WUOPC1
      000000A7H   SFRSYM    DATA     BYTE      MEMCON
      000000EAH   SFRSYM    DATA     BYTE      MD1
      000000D7H   SFRSYM    DATA     BYTE      RNGDAT
      000000EBH   SFRSYM    DATA     BYTE      MD2
      000000ECH   SFRSYM    DATA     BYTE      MD3
      000000EDH   SFRSYM    DATA     BYTE      MD4
      000000AFH   SFRSYM    DATA     BYTE      WDSV
      000000EEH   SFRSYM    DATA     BYTE      MD5
      000000E0H   SFRSYM    DATA     BYTE      ACC
      000000DCH   SFRSYM    DATA     BYTE      POFCON
      000000A8H.4 SFRSYM    DATA     BIT       ES0
      000000A8H.1 SFRSYM    DATA     BIT       ET0
      000000A9H   SFRSYM    DATA     BYTE      IP0
      000000A8H.3 SFRSYM    DATA     BIT       ET1
      00000088H.5 SFRSYM    DATA     BIT       TF0
      000000B9H   SFRSYM    DATA     BYTE      IP1
      000000A8H.5 SFRSYM    DATA     BIT       ET2
      00000098H   SFRSYM    DATA     BIT       RI0
      00000088H.7 SFRSYM    DATA     BIT       TF1
      000000C0H   SFRSYM    DATA     BIT       RFSPIF
      000000C0H.6 SFRSYM    DATA     BIT       TF2
      000000FCH   SFRSYM    DATA     BYTE      SPIMCON0
      000000D6H   SFRSYM    DATA     BYTE      RNGCTL
      0000008CH   SFRSYM    DATA     BYTE      TH0
      000000A8H   SFRSYM    DATA     BIT       EX0
      00000098H.1 SFRSYM    DATA     BIT       TI0
      00000088H   SFRSYM    DATA     BIT       IT0
      000000FDH   SFRSYM    DATA     BYTE      SPIMCON1
      0000008DH   SFRSYM    DATA     BYTE      TH1
      000000A8H.2 SFRSYM    DATA     BIT       EX1
      00000088H.2 SFRSYM    DATA     BIT       IT1
      000000CDH   SFRSYM    DATA     BYTE      TH2
      000000AEH   SFRSYM    DATA     BYTE      OPMCON
      000000D0H   SFRSYM    DATA     BIT       P
      00000098H.7 SFRSYM    DATA     BIT       SM0
      0000008AH   SFRSYM    DATA     BYTE      TL0
      00000098H.6 SFRSYM    DATA     BIT       SM1
      000000E4H   SFRSYM    DATA     BYTE      SPIRCON0
      0000008BH   SFRSYM    DATA     BYTE      TL1
      000000E5H   SFRSYM    DATA     BYTE      SPIRCON1
      000000CCH   SFRSYM    DATA     BYTE      TL2
      000000BCH   SFRSYM    DATA     BYTE      SPISCON0
LX51 LINKER/LOCATER V4.66.62.0                                                        11/15/2016  16:40:07  PAGE 16


      000000BDH   SFRSYM    DATA     BYTE      SPISCON1
      000000D0H.3 SFRSYM    DATA     BIT       RS0
      00000088H.4 SFRSYM    DATA     BIT       TR0
      000000D0H.4 SFRSYM    DATA     BIT       RS1
      000000B2H   SFRSYM    DATA     BYTE      PWMCON
      00000088H.6 SFRSYM    DATA     BIT       TR1
      000000CAH   SFRSYM    DATA     WORD      CRC
      000000A6H   SFRSYM    DATA     BYTE      INTEXP
      000000C0H.3 SFRSYM    DATA     BIT       WUPINF
      000000FAH   SFRSYM    DATA     BYTE      FCR
      000000D3H   SFRSYM    DATA     BYTE      ADCCON1
      000000D2H   SFRSYM    DATA     BYTE      ADCCON2
      00000083H   SFRSYM    DATA     BYTE      DPH
      000000D1H   SFRSYM    DATA     BYTE      ADCCON3
      000000C0H.1 SFRSYM    DATA     BIT       RFF
      00000093H   SFRSYM    DATA     BYTE      P0DIR
      00000082H   SFRSYM    DATA     BYTE      DPL
      0000009EH   SFRSYM    DATA     BYTE      P0CON
      00000099H   SFRSYM    DATA     BYTE      S0BUF
      00000094H   SFRSYM    DATA     BYTE      P1DIR
      0000009FH   SFRSYM    DATA     BYTE      P1CON
      00000095H   SFRSYM    DATA     BYTE      P2DIR
      000000B8H.7 SFRSYM    DATA     BIT       EXEN2
      000000DAH   SFRSYM    DATA     BYTE      W2DAT
      00000097H   SFRSYM    DATA     BYTE      P2CON
      00000096H   SFRSYM    DATA     BYTE      P3DIR
      000000A4H   SFRSYM    DATA     BYTE      PWRDWN
      00000098H   SFRSYM    DATA     BYTE      S0CON
      0000008FH   SFRSYM    DATA     BYTE      P3CON
      000000B6H   SFRSYM    DATA     BYTE      RTC2CPT00
      000000D8H   SFRSYM    DATA     BYTE      ADCON
      000000ACH   SFRSYM    DATA     BYTE      RTC2CPT10
      000000ABH   SFRSYM    DATA     BYTE      RTC2CPT01
      000000C8H   SFRSYM    DATA     BYTE      T2CON
      00000092H   SFRSYM    DATA     BYTE      DPS
      000000F8H.5 SFRSYM    DATA     BIT       WEN
      000000F8H   SFRSYM    DATA     BYTE      FSR
      000000D4H   SFRSYM    DATA     BYTE      ADCDATH
      000000C9H   SFRSYM    DATA     BYTE      MPAGE
      000000B8H.2 SFRSYM    DATA     BIT       SPI
      000000F8H.1 SFRSYM    DATA     BIT       RDEND
      000000D5H   SFRSYM    DATA     BYTE      ADCDATL
      000000F8H.3 SFRSYM    DATA     BIT       INFEN
      000000F8H.7 SFRSYM    DATA     BIT       MCDIS
      000000C0H.5 SFRSYM    DATA     BIT       WUF
      000000C0H.4 SFRSYM    DATA     BIT       MISCF
      000000EFH   SFRSYM    DATA     BYTE      ARCON
      000000D0H.5 SFRSYM    DATA     BIT       F0
      000000F8H.6 SFRSYM    DATA     BIT       STP
      000000FEH   SFRSYM    DATA     BYTE      SPIMSTAT
      00000080H.3 SFRSYM    DATA     BIT       LEDVM
      000000E8H   SFRSYM    DATA     BYTE      RFCON
      000000D0H   SFRSYM    DATA     BYTE      PSW
      00000098H.2 SFRSYM    DATA     BIT       RB80
      000000C0H   SFRSYM    DATA     BYTE      IRCON
      000000E8H.1 SFRSYM    DATA     BIT       RFCSN
      000000E6H   SFRSYM    DATA     BYTE      SPIRSTAT
      000000B3H   SFRSYM    DATA     BYTE      RTC2CON

      0100045DH   BLOCK     CODE     ---       LVL=0
      ---         BLOCKEND  ---      ---       LVL=0

      01000838H   BLOCK     CODE     ---       LVL=0
      01000838H   LINE      CODE     ---       #37
      01000838H   LINE      CODE     ---       #38
LX51 LINKER/LOCATER V4.66.62.0                                                        11/15/2016  16:40:07  PAGE 17


      01000842H   LINE      CODE     ---       #39
      01000847H   LINE      CODE     ---       #40
      01000851H   LINE      CODE     ---       #41
      0100085DH   LINE      CODE     ---       #42
      ---         BLOCKEND  ---      ---       LVL=0

      010009AEH   BLOCK     CODE     ---       LVL=0
      010009AEH   LINE      CODE     ---       #43
      010009AEH   LINE      CODE     ---       #44
      010009B3H   LINE      CODE     ---       #45
      010009BDH   LINE      CODE     ---       #46
      010009C8H   LINE      CODE     ---       #47
      ---         BLOCKEND  ---      ---       LVL=0

      010001BFH   BLOCK     CODE     ---       LVL=0
      00000022H   SYMBOL    DATA     ---       packet6
      010001BFH   LINE      CODE     ---       #48
      010001C5H   LINE      CODE     ---       #49
      010001D1H   LINE      CODE     ---       #50
      010001DEH   LINE      CODE     ---       #51
      010001EEH   LINE      CODE     ---       #52
      010001F8H   LINE      CODE     ---       #53
      01000202H   LINE      CODE     ---       #54
      0100020CH   LINE      CODE     ---       #55
      01000216H   LINE      CODE     ---       #56
      01000220H   LINE      CODE     ---       #57
      0100022AH   LINE      CODE     ---       #58
      01000234H   LINE      CODE     ---       #59
      0100023EH   LINE      CODE     ---       #60
      01000248H   LINE      CODE     ---       #61
      ---         BLOCKEND  ---      ---       LVL=0

      01000003H   BLOCK     CODE     ---       LVL=0
      00000002H   SYMBOL    DATA     INT       offset
      01000003H   LINE      CODE     ---       #63
      01000003H   LINE      CODE     ---       #64
      ---         BLOCKEND  ---      ---       LVL=0

      01000C3BH   BLOCK     CODE     ---       LVL=0
      00000002H   SYMBOL    DATA     INT       offset
      01000C3BH   LINE      CODE     ---       #66
      01000C3BH   LINE      CODE     ---       #67
      ---         BLOCKEND  ---      ---       LVL=0

      01000C43H   BLOCK     CODE     ---       LVL=0
      00000002H   SYMBOL    DATA     INT       offset
      01000C43H   LINE      CODE     ---       #69
      01000C43H   LINE      CODE     ---       #70
      ---         BLOCKEND  ---      ---       LVL=0

      01000C4BH   BLOCK     CODE     ---       LVL=0
      00000002H   SYMBOL    DATA     INT       offset
      01000C4BH   LINE      CODE     ---       #72
      01000C4BH   LINE      CODE     ---       #73
      ---         BLOCKEND  ---      ---       LVL=0

      01000B74H   BLOCK     CODE     ---       LVL=0
      00000002H   SYMBOL    DATA     INT       offset
      01000B74H   LINE      CODE     ---       #75
      01000B78H   LINE      CODE     ---       #76
      ---         BLOCKEND  ---      ---       LVL=0

      01000B7FH   BLOCK     CODE     ---       LVL=0
      00000002H   SYMBOL    DATA     INT       offset
      01000B7FH   LINE      CODE     ---       #78
LX51 LINKER/LOCATER V4.66.62.0                                                        11/15/2016  16:40:07  PAGE 18


      01000B83H   LINE      CODE     ---       #79
      ---         BLOCKEND  ---      ---       LVL=0

      010009FDH   BLOCK     CODE     ---       LVL=0
      00000007H   SYMBOL    DATA     BYTE      bank
      00000005H   SYMBOL    DATA     BYTE      prefetchEnabled
      00000003H   SYMBOL    DATA     BYTE      userBank
      010009FDH   LINE      CODE     ---       #85
      010009FDH   LINE      CODE     ---       #86
      01000A00H   LINE      CODE     ---       #87
      01000A06H   LINE      CODE     ---       #88
      01000A0CH   LINE      CODE     ---       #89
      ---         BLOCKEND  ---      ---       LVL=0

      01000A15H   BLOCK     CODE     ---       LVL=0
      01000A15H   LINE      CODE     ---       #92
      01000A15H   LINE      CODE     ---       #93
      01000A21H   LINE      CODE     ---       #94
      01000A2BH   LINE      CODE     ---       #95
      ---         BLOCKEND  ---      ---       LVL=0

      01000A40H   BLOCK     CODE     ---       LVL=0
      01000A40H   LINE      CODE     ---       #97
      01000A40H   LINE      CODE     ---       #98
      01000A4DH   LINE      CODE     ---       #99
      01000A52H   LINE      CODE     ---       #100
      ---         BLOCKEND  ---      ---       LVL=0

      01000B8AH   BLOCK     CODE     ---       LVL=0
      00000007H   SYMBOL    DATA     BYTE      enabled
      01000B8AH   LINE      CODE     ---       #102
      01000B8AH   LINE      CODE     ---       #103
      ---         BLOCKEND  ---      ---       LVL=0

      01000B5CH   BLOCK     CODE     ---       LVL=0
      01000B5CH   LINE      CODE     ---       #106
      01000B5CH   LINE      CODE     ---       #107
      ---         BLOCKEND  ---      ---       LVL=0

      01000C32H   BLOCK     CODE     ---       LVL=0
      01000C32H   LINE      CODE     ---       #110
      01000C32H   LINE      CODE     ---       #111
      01000C3AH   LINE      CODE     ---       #112
      ---         BLOCKEND  ---      ---       LVL=0

      010008C2H   BLOCK     CODE     ---       LVL=0
      00000053H   SYMBOL    DATA     ---       data_ptr
      00000007H   SYMBOL    DATA     BYTE      data_len
      010008C2H   LINE      CODE     ---       #114
      010008CAH   LINE      CODE     ---       #115
      010008D0H   LINE      CODE     ---       #116
      010008E0H   LINE      CODE     ---       #117
      010008E0H   LINE      CODE     ---       #118
      010008EAH   LINE      CODE     ---       #119
      010008EAH   LINE      CODE     ---       #120
      ---         BLOCKEND  ---      ---       LVL=0

      01000AF3H   BLOCK     CODE     ---       LVL=0
      01000AF3H   LINE      CODE     ---       #122
      01000AF3H   LINE      CODE     ---       #123
      01000AFDH   LINE      CODE     ---       #124
      01000B02H   LINE      CODE     ---       #125
      ---         BLOCKEND  ---      ---       LVL=0

      01000BE2H   BLOCK     CODE     ---       LVL=0
LX51 LINKER/LOCATER V4.66.62.0                                                        11/15/2016  16:40:07  PAGE 19


      00000007H   SYMBOL    DATA     CHAR      offset
      01000BE2H   LINE      CODE     ---       #126
      01000BE2H   LINE      CODE     ---       #127
      ---         BLOCKEND  ---      ---       LVL=0

      01000B03H   BLOCK     CODE     ---       LVL=0
      01000B03H   LINE      CODE     ---       #132
      01000B03H   LINE      CODE     ---       #133
      01000B0DH   LINE      CODE     ---       #134
      01000B12H   LINE      CODE     ---       #135
      ---         BLOCKEND  ---      ---       LVL=0

      01000BECH   BLOCK     CODE     ---       LVL=0
      00000007H   SYMBOL    DATA     CHAR      offset
      01000BECH   LINE      CODE     ---       #136
      01000BECH   LINE      CODE     ---       #137
      ---         BLOCKEND  ---      ---       LVL=0

      01000B13H   BLOCK     CODE     ---       LVL=0
      01000B13H   LINE      CODE     ---       #142
      01000B13H   LINE      CODE     ---       #143
      01000B1DH   LINE      CODE     ---       #144
      01000B22H   LINE      CODE     ---       #145
      ---         BLOCKEND  ---      ---       LVL=0

      01000BF6H   BLOCK     CODE     ---       LVL=0
      00000007H   SYMBOL    DATA     CHAR      offset
      01000BF6H   LINE      CODE     ---       #146
      01000BF6H   LINE      CODE     ---       #147
      ---         BLOCKEND  ---      ---       LVL=0

      01000B23H   BLOCK     CODE     ---       LVL=0
      01000B23H   LINE      CODE     ---       #25
      01000B25H   LINE      CODE     ---       #27
      01000B25H   LINE      CODE     ---       #28
      01000B25H   LINE      CODE     ---       #29
      01000B2DH   LINE      CODE     ---       #30
      01000B2DH   LINE      CODE     ---       #31
      01000B30H   LINE      CODE     ---       #32
      01000B30H   LINE      CODE     ---       #33
      ---         BLOCKEND  ---      ---       LVL=0

      01000C00H   BLOCK     CODE     ---       LVL=0
      01000C00H   LINE      CODE     ---       #35
      01000C00H   LINE      CODE     ---       #36
      01000C00H   LINE      CODE     ---       #37
      01000C00H   LINE      CODE     ---       #38
      01000C00H   LINE      CODE     ---       #39
      01000C03H   LINE      CODE     ---       #40
      01000C05H   LINE      CODE     ---       #41
      01000C07H   LINE      CODE     ---       #42
      01000C09H   LINE      CODE     ---       #43
      ---         BLOCKEND  ---      ---       LVL=0

      01000C0AH   BLOCK     CODE     ---       LVL=0
      01000C0AH   LINE      CODE     ---       #45
      01000C0AH   LINE      CODE     ---       #46
      01000C0AH   LINE      CODE     ---       #47
      01000C0AH   LINE      CODE     ---       #48
      01000C0AH   LINE      CODE     ---       #49
      01000C0DH   LINE      CODE     ---       #50
      01000C0FH   LINE      CODE     ---       #51
      01000C11H   LINE      CODE     ---       #52
      01000C13H   LINE      CODE     ---       #53
      ---         BLOCKEND  ---      ---       LVL=0
LX51 LINKER/LOCATER V4.66.62.0                                                        11/15/2016  16:40:07  PAGE 20



      01000C14H   BLOCK     CODE     ---       LVL=0
      00000007H   SYMBOL    DATA     BYTE      value
      01000C14H   LINE      CODE     ---       #32
      01000C14H   LINE      CODE     ---       #33
      01000C14H   LINE      CODE     ---       #34
      01000C16H   LINE      CODE     ---       #36
      01000C1BH   LINE      CODE     ---       #38
      01000C1DH   LINE      CODE     ---       #39
      ---         BLOCKEND  ---      ---       LVL=0

      01000A53H   BLOCK     CODE     ---       LVL=0
      00000007H   SYMBOL    DATA     BYTE      reg
      00000006H   SYMBOL    DATA     BYTE      value
      01000A55H   BLOCK     CODE     NEAR LAB  LVL=1
      00000005H   SYMBOL    DATA     BYTE      status
      ---         BLOCKEND  ---      ---       LVL=1
      01000A53H   LINE      CODE     ---       #41
      01000A55H   LINE      CODE     ---       #42
      01000A55H   LINE      CODE     ---       #45
      01000A57H   LINE      CODE     ---       #46
      01000A5CH   LINE      CODE     ---       #47
      01000A61H   LINE      CODE     ---       #48
      01000A63H   LINE      CODE     ---       #50
      01000A65H   LINE      CODE     ---       #51
      ---         BLOCKEND  ---      ---       LVL=0

      01000B4FH   BLOCK     CODE     ---       LVL=0
      00000007H   SYMBOL    DATA     BYTE      reg
      01000B4FH   BLOCK     CODE     NEAR LAB  LVL=1
      00000007H   SYMBOL    DATA     BYTE      reg_val
      ---         BLOCKEND  ---      ---       LVL=1
      01000B4FH   LINE      CODE     ---       #53
      01000B4FH   LINE      CODE     ---       #54
      01000B4FH   LINE      CODE     ---       #57
      01000B51H   LINE      CODE     ---       #58
      01000B54H   LINE      CODE     ---       #59
      01000B59H   LINE      CODE     ---       #60
      01000B5BH   LINE      CODE     ---       #62
      01000B5BH   LINE      CODE     ---       #63
      ---         BLOCKEND  ---      ---       LVL=0

      01000897H   BLOCK     CODE     ---       LVL=0
      00000007H   SYMBOL    DATA     BYTE      reg
      00000039H   SYMBOL    DATA     ---       pBuf
      0000003CH   SYMBOL    DATA     BYTE      bytes
      0100089DH   BLOCK     CODE     NEAR LAB  LVL=1
      00000006H   SYMBOL    DATA     BYTE      status
      00000005H   SYMBOL    DATA     BYTE      byte_ctr
      ---         BLOCKEND  ---      ---       LVL=1
      01000897H   LINE      CODE     ---       #65
      0100089DH   LINE      CODE     ---       #66
      0100089DH   LINE      CODE     ---       #69
      0100089DH   LINE      CODE     ---       #70
      0100089DH   LINE      CODE     ---       #72
      010008A6H   LINE      CODE     ---       #73
      010008BDH   LINE      CODE     ---       #75
      010008BFH   LINE      CODE     ---       #77
      010008C1H   LINE      CODE     ---       #78
      ---         BLOCKEND  ---      ---       LVL=0

      01000957H   BLOCK     CODE     ---       LVL=0
      00000007H   SYMBOL    DATA     BYTE      reg
      0000002AH   SYMBOL    DATA     ---       pBuf
      0000002DH   SYMBOL    DATA     BYTE      bytes
LX51 LINKER/LOCATER V4.66.62.0                                                        11/15/2016  16:40:07  PAGE 21


      0100095DH   BLOCK     CODE     NEAR LAB  LVL=1
      00000006H   SYMBOL    DATA     BYTE      status
      00000005H   SYMBOL    DATA     BYTE      byte_ctr
      ---         BLOCKEND  ---      ---       LVL=1
      01000957H   LINE      CODE     ---       #80
      0100095DH   LINE      CODE     ---       #81
      0100095DH   LINE      CODE     ---       #84
      0100095DH   LINE      CODE     ---       #85
      0100095DH   LINE      CODE     ---       #86
      01000966H   LINE      CODE     ---       #87
      01000971H   LINE      CODE     ---       #88
      01000973H   LINE      CODE     ---       #89
      01000975H   LINE      CODE     ---       #90
      ---         BLOCKEND  ---      ---       LVL=0

      01000AAFH   BLOCK     CODE     ---       LVL=0
      01000AAFH   LINE      CODE     ---       #93
      01000AAFH   LINE      CODE     ---       #94
      01000AAFH   LINE      CODE     ---       #95
      01000AB2H   LINE      CODE     ---       #96
      01000AB4H   LINE      CODE     ---       #97
      01000AB6H   LINE      CODE     ---       #98
      01000ABDH   LINE      CODE     ---       #99
      01000ABFH   LINE      CODE     ---       #100
      ---         BLOCKEND  ---      ---       LVL=0

      0100086BH   BLOCK     CODE     ---       LVL=0
      00000027H   SYMBOL    DATA     INT       payloadLength
      0100086BH   LINE      CODE     ---       #102
      0100086FH   LINE      CODE     ---       #103
      0100086FH   LINE      CODE     ---       #104
      01000871H   LINE      CODE     ---       #105
      01000878H   LINE      CODE     ---       #106
      01000880H   LINE      CODE     ---       #107
      0100088EH   LINE      CODE     ---       #109
      01000890H   LINE      CODE     ---       #110
      01000896H   LINE      CODE     ---       #111
      ---         BLOCKEND  ---      ---       LVL=0

      010002DEH   BLOCK     CODE     ---       LVL=0
      010002DEH   LINE      CODE     ---       #114
      010002F7H   LINE      CODE     ---       #116
      010002FEH   LINE      CODE     ---       #117
      01000301H   LINE      CODE     ---       #118
      01000301H   LINE      CODE     ---       #119
      0100030FH   LINE      CODE     ---       #120
      01000316H   LINE      CODE     ---       #121
      01000318H   LINE      CODE     ---       #122
      0100031FH   LINE      CODE     ---       #123
      01000326H   LINE      CODE     ---       #124
      01000326H   LINE      CODE     ---       #125
      01000329H   LINE      CODE     ---       #126
      01000330H   LINE      CODE     ---       #127
      01000332H   LINE      CODE     ---       #128
      01000332H   LINE      CODE     ---       #129
      01000332H   LINE      CODE     ---       #130
      01000335H   LINE      CODE     ---       #131
      0100033CH   LINE      CODE     ---       #132
      0100033FH   LINE      CODE     ---       #133
      01000346H   LINE      CODE     ---       #134
      0100034DH   LINE      CODE     ---       #135
      ---         BLOCKEND  ---      ---       LVL=0

      010006D5H   BLOCK     CODE     ---       LVL=0
      010006D5H   LINE      CODE     ---       #138
LX51 LINKER/LOCATER V4.66.62.0                                                        11/15/2016  16:40:07  PAGE 22


      010006D5H   LINE      CODE     ---       #139
      010006D5H   LINE      CODE     ---       #140
      010006D7H   LINE      CODE     ---       #141
      010006D9H   LINE      CODE     ---       #143
      010006E1H   LINE      CODE     ---       #144
      010006E9H   LINE      CODE     ---       #145
      010006F0H   LINE      CODE     ---       #147
      010006F7H   LINE      CODE     ---       #148
      010006FEH   LINE      CODE     ---       #149
      01000705H   LINE      CODE     ---       #150
      0100070CH   LINE      CODE     ---       #152
      01000713H   LINE      CODE     ---       #153
      ---         BLOCKEND  ---      ---       LVL=0

      01000B68H   BLOCK     CODE     ---       LVL=0
      01000B68H   LINE      CODE     ---       #157
      01000B68H   LINE      CODE     ---       #159
      01000B6AH   LINE      CODE     ---       #160
      01000B6CH   LINE      CODE     ---       #161
      01000B6EH   LINE      CODE     ---       #162
      01000B71H   LINE      CODE     ---       #163
      ---         BLOCKEND  ---      ---       LVL=0

      010009C9H   BLOCK     CODE     ---       LVL=0
      010009C9H   LINE      CODE     ---       #8
      010009C9H   LINE      CODE     ---       #9
      010009CBH   LINE      CODE     ---       #10
      010009CDH   LINE      CODE     ---       #11
      010009CFH   LINE      CODE     ---       #12
      010009D1H   LINE      CODE     ---       #13
      010009D4H   LINE      CODE     ---       #14
      010009D7H   LINE      CODE     ---       #16
      010009DAH   LINE      CODE     ---       #17
      010009DDH   LINE      CODE     ---       #18
      010009DFH   LINE      CODE     ---       #19
      010009E2H   LINE      CODE     ---       #20
      ---         BLOCKEND  ---      ---       LVL=0

      01000AC0H   BLOCK     CODE     VOID      LVL=0
      ---         BLOCKEND  ---      ---       LVL=0

      01000AC9H   BLOCK     CODE     ---       LVL=0
      00000007H   SYMBOL    DATA     BYTE      x
      01000AC9H   LINE      CODE     ---       #22
      01000AC9H   LINE      CODE     ---       #23
      01000ACCH   LINE      CODE     ---       #24
      01000ACEH   LINE      CODE     ---       #25
      01000AD0H   LINE      CODE     ---       #26
      ---         BLOCKEND  ---      ---       LVL=0

      01000976H   BLOCK     CODE     ---       LVL=0
      00000056H   SYMBOL    DATA     ---       s
      01000976H   LINE      CODE     ---       #29
      0100097CH   LINE      CODE     ---       #30
      01000987H   LINE      CODE     ---       #31
      01000991H   LINE      CODE     ---       #32
      ---         BLOCKEND  ---      ---       LVL=0

      010005DBH   BLOCK     CODE     ---       LVL=0
      00000007H   SYMBOL    DATA     BYTE      packet_type
      00000023H   SYMBOL    DATA     ---       data_to_send
      00000026H   SYMBOL    DATA     BYTE      data_len
      010005E1H   BLOCK     CODE     NEAR LAB  LVL=1
      00000006H   SYMBOL    DATA     WORD      i
      ---         BLOCKEND  ---      ---       LVL=1
LX51 LINKER/LOCATER V4.66.62.0                                                        11/15/2016  16:40:07  PAGE 23


      010005DBH   LINE      CODE     ---       #33
      010005E1H   LINE      CODE     ---       #35
      010005E6H   LINE      CODE     ---       #36
      010005EAH   LINE      CODE     ---       #37
      010005FCH   LINE      CODE     ---       #38
      0100061CH   LINE      CODE     ---       #39
      01000623H   LINE      CODE     ---       #40
      0100062EH   LINE      CODE     ---       #41
      ---         BLOCKEND  ---      ---       LVL=0

      010007CEH   BLOCK     CODE     ---       LVL=0
      00000006H   SYMBOL    DATA     BYTE      packet_type
      0000004AH   SYMBOL    DATA     ---       data_to_send
      0000004DH   SYMBOL    DATA     BYTE      data_len
      010007D4H   BLOCK     CODE     NEAR LAB  LVL=1
      00000004H   SYMBOL    DATA     WORD      i
      ---         BLOCKEND  ---      ---       LVL=1
      010007CEH   LINE      CODE     ---       #46
      010007D4H   LINE      CODE     ---       #48
      010007D4H   LINE      CODE     ---       #49
      010007D7H   LINE      CODE     ---       #50
      010007DCH   LINE      CODE     ---       #51
      010007EFH   LINE      CODE     ---       #52
      010007F5H   LINE      CODE     ---       #53
      010007FEH   LINE      CODE     ---       #54
      ---         BLOCKEND  ---      ---       LVL=0

      01000803H   BLOCK     CODE     ---       LVL=0
      00000006H   SYMBOL    DATA     BYTE      packet_type
      0000004FH   SYMBOL    DATA     ---       data_to_send
      00000052H   SYMBOL    DATA     BYTE      data_len
      01000809H   BLOCK     CODE     NEAR LAB  LVL=1
      00000004H   SYMBOL    DATA     WORD      i
      ---         BLOCKEND  ---      ---       LVL=1
      01000803H   LINE      CODE     ---       #58
      01000809H   LINE      CODE     ---       #60
      01000809H   LINE      CODE     ---       #61
      0100080CH   LINE      CODE     ---       #62
      01000813H   LINE      CODE     ---       #63
      01000818H   LINE      CODE     ---       #64
      01000824H   LINE      CODE     ---       #65
      0100082AH   LINE      CODE     ---       #66
      01000833H   LINE      CODE     ---       #67
      ---         BLOCKEND  ---      ---       LVL=0

      01000A79H   BLOCK     CODE     ---       LVL=0
      01000A79H   LINE      CODE     ---       #35
      01000A79H   LINE      CODE     ---       #37
      01000A7CH   LINE      CODE     ---       #38
      01000A7FH   LINE      CODE     ---       #39
      01000A82H   LINE      CODE     ---       #40
      01000A85H   LINE      CODE     ---       #42
      01000A88H   LINE      CODE     ---       #43
      01000A8AH   LINE      CODE     ---       #44
      ---         BLOCKEND  ---      ---       LVL=0

      01000364H   BLOCK     CODE     ---       LVL=0
      01000364H   LINE      CODE     ---       #45
      01000364H   LINE      CODE     ---       #46
      01000367H   LINE      CODE     ---       #47
      0100036AH   LINE      CODE     ---       #48
      0100036FH   LINE      CODE     ---       #49
      01000374H   LINE      CODE     ---       #50
      01000380H   LINE      CODE     ---       #51
      01000383H   LINE      CODE     ---       #52
LX51 LINKER/LOCATER V4.66.62.0                                                        11/15/2016  16:40:07  PAGE 24


      0100038FH   LINE      CODE     ---       #53
      01000397H   LINE      CODE     ---       #54
      0100039EH   LINE      CODE     ---       #55
      010003A0H   LINE      CODE     ---       #56
      010003B3H   LINE      CODE     ---       #57
      010003B3H   LINE      CODE     ---       #58
      010003C8H   LINE      CODE     ---       #59
      010003DDH   LINE      CODE     ---       #60
      ---         BLOCKEND  ---      ---       LVL=0

      0100010BH   BLOCK     CODE     ---       LVL=0
      0100010BH   LINE      CODE     ---       #62
      0100010BH   LINE      CODE     ---       #63
      0100010EH   LINE      CODE     ---       #64
      0100010EH   LINE      CODE     ---       #65
      01000111H   LINE      CODE     ---       #66
      01000111H   LINE      CODE     ---       #67
      01000114H   LINE      CODE     ---       #68
      01000117H   LINE      CODE     ---       #69
      0100011AH   LINE      CODE     ---       #70
      0100011DH   LINE      CODE     ---       #71
      0100011DH   LINE      CODE     ---       #72
      01000120H   LINE      CODE     ---       #73
      01000120H   LINE      CODE     ---       #74
      01000123H   LINE      CODE     ---       #75
      01000125H   LINE      CODE     ---       #76
      0100012CH   LINE      CODE     ---       #77
      0100012FH   LINE      CODE     ---       #78
      01000136H   LINE      CODE     ---       #79
      01000136H   LINE      CODE     ---       #80
      01000139H   LINE      CODE     ---       #82
      01000141H   LINE      CODE     ---       #83
      0100014AH   LINE      CODE     ---       #84
      0100014AH   LINE      CODE     ---       #85
      0100014AH   LINE      CODE     ---       #86
      0100014DH   LINE      CODE     ---       #87
      0100014FH   LINE      CODE     ---       #88
      0100014FH   LINE      CODE     ---       #89
      0100014FH   LINE      CODE     ---       #90
      01000152H   LINE      CODE     ---       #91
      01000154H   LINE      CODE     ---       #92
      01000154H   LINE      CODE     ---       #93
      01000154H   LINE      CODE     ---       #94
      01000154H   LINE      CODE     ---       #95
      01000157H   LINE      CODE     ---       #96
      01000159H   LINE      CODE     ---       #97
      01000159H   LINE      CODE     ---       #99
      01000166H   LINE      CODE     ---       #100
      0100016FH   LINE      CODE     ---       #101
      0100017DH   LINE      CODE     ---       #102
      01000183H   LINE      CODE     ---       #103
      01000183H   LINE      CODE     ---       #104
      01000185H   LINE      CODE     ---       #105
      ---         BLOCKEND  ---      ---       LVL=0

      01000992H   BLOCK     CODE     ---       LVL=0
      01000992H   LINE      CODE     ---       #106
      01000992H   LINE      CODE     ---       #107
      01000992H   LINE      CODE     ---       #108
      01000992H   LINE      CODE     ---       #109
      01000992H   LINE      CODE     ---       #110
      01000995H   LINE      CODE     ---       #111
      01000995H   LINE      CODE     ---       #112
      01000995H   LINE      CODE     ---       #113
      01000995H   LINE      CODE     ---       #114
LX51 LINKER/LOCATER V4.66.62.0                                                        11/15/2016  16:40:07  PAGE 25


      01000998H   LINE      CODE     ---       #115
      0100099AH   LINE      CODE     ---       #116
      ---         BLOCKEND  ---      ---       LVL=0

      0100000EH   BLOCK     CODE     ---       LVL=0
      0100000EH   LINE      CODE     ---       #119
      0100002BH   LINE      CODE     ---       #120
      0100002EH   LINE      CODE     ---       #121
      ---         BLOCKEND  ---      ---       LVL=0

      ---         MODULE    ---      ---       HAL_W2_ISR
      0000001FH   PUBLIC    DATA     BYTE      w2_status
      0000001EH   PUBLIC    DATA     BYTE      data_ready
      00000024H   PUBLIC    DATA     BYTE      ?_i2c_mpu_writeWords?BYTE
      01000631H   PUBLIC    CODE     ---       _i2c_mpu_writeWords
      01000A66H   PUBLIC    CODE     ---       _i2c_mpu_writeWord
      00000022H   PUBLIC    DATA     BYTE      ?_i2c_mpu_readBits?BYTE
      01000583H   PUBLIC    CODE     ---       _i2c_mpu_readBits
      00000017H   PUBLIC    DATA     BYTE      ?_i2c_mpu_readBit?BYTE
      01000912H   PUBLIC    CODE     ---       _i2c_mpu_readBit
      00000022H   PUBLIC    DATA     BYTE      ?_i2c_mpu_writeBits?BYTE
      010004C3H   PUBLIC    CODE     ---       _i2c_mpu_writeBits
      00000022H   PUBLIC    DATA     BYTE      ?_i2c_mpu_writeBit?BYTE
      01000687H   PUBLIC    CODE     ---       _i2c_mpu_writeBit
      0000002EH   PUBLIC    DATA     BYTE      ?_i2c_mpu_readBytes?BYTE
      01000526H   PUBLIC    CODE     ---       _i2c_mpu_readBytes
      01000A9DH   PUBLIC    CODE     ---       _i2c_mpu_readByte
      0000002AH   PUBLIC    DATA     BYTE      ?_i2c_mpu_writeBytes?BYTE
      0100075CH   PUBLIC    CODE     ---       _i2c_mpu_writeBytes
      01000AE2H   PUBLIC    CODE     ---       _i2c_mpu_writeByte
      010003EAH   PUBLIC    CODE     ---       hal_w2_soft_reset
      00000043H   PUBLIC    DATA     BYTE      ?_hal_w2_read?BYTE
      0100071AH   PUBLIC    CODE     ---       _hal_w2_read
      0000003DH   PUBLIC    DATA     BYTE      ?_hal_w2_write?BYTE
      01000796H   PUBLIC    CODE     ---       _hal_w2_write
      01000A8BH   PUBLIC    CODE     ---       _hal_w2_init_transfer
      010008EBH   PUBLIC    CODE     ---       hal_w2_wait_data_ready
      01000936H   PUBLIC    CODE     ---       _hal_w2_configure_master
      01000BD7H   PUBLIC    CODE     ---       _hal_w2_all_irq_enable
      01000BCCH   PUBLIC    CODE     ---       _hal_w2_enable
      01000BC1H   PUBLIC    CODE     ---       _hal_w2_set_op_mode
      01000B33H   PUBLIC    CODE     ---       _hal_w2_set_clk_freq
      01000C53H   PUBLIC    CODE     ---       _hal_w2_set_slave_address
      01000BB6H   PUBLIC    CODE     ---       _hal_w2_irq_adr_match_enable
      01000BABH   PUBLIC    CODE     ---       _hal_w2_irq_stop_cond_enable
      01000BA0H   PUBLIC    CODE     ---       _hal_w2_alter_clock
      01000B95H   PUBLIC    CODE     ---       _hal_w2_respond_to_gen_adr
      01000C28H   PUBLIC    CODE     ---       I2C_IRQ_handler
      01000C1EH   PUBLIC    CODE     ---       hal_w2_wait_data_ready_ISR
      00000098H.3 SFRSYM    DATA     BIT       TB80
      000000BEH   SFRSYM    DATA     BYTE      SPISSTAT
      000000C8H   SFRSYM    DATA     BIT       T2I0
      000000C3H   SFRSYM    DATA     BYTE      CCH1
      00000080H   SFRSYM    DATA     BYTE      P0
      000000C8H.1 SFRSYM    DATA     BIT       T2I1
      000000DFH   SFRSYM    DATA     BYTE      CCPDATO
      000000C5H   SFRSYM    DATA     BYTE      CCH2
      00000090H   SFRSYM    DATA     BYTE      P1
      000000C7H   SFRSYM    DATA     BYTE      CCH3
      000000A0H   SFRSYM    DATA     BYTE      P2
      00000098H.5 SFRSYM    DATA     BIT       SM20
      000000B0H   SFRSYM    DATA     BYTE      P3
      000000D0H.6 SFRSYM    DATA     BIT       AC
      000000C2H   SFRSYM    DATA     BYTE      CCL1
      000000C4H   SFRSYM    DATA     BYTE      CCL2
LX51 LINKER/LOCATER V4.66.62.0                                                        11/15/2016  16:40:07  PAGE 26


      000000D8H.7 SFRSYM    DATA     BIT       BD
      000000B8H   SFRSYM    DATA     BIT       RFSPI
      000000A8H.7 SFRSYM    DATA     BIT       EA
      000000CCH   SFRSYM    DATA     WORD      T2
      000000C6H   SFRSYM    DATA     BYTE      CCL3
      000000B7H   SFRSYM    DATA     BYTE      SPISRDSZ
      000000C8H.3 SFRSYM    DATA     BIT       T2R0
      000000C8H.4 SFRSYM    DATA     BIT       T2R1
      000000A8H   SFRSYM    DATA     BYTE      IEN0
      000000B8H   SFRSYM    DATA     BYTE      IEN1
      000000A5H   SFRSYM    DATA     BYTE      WUCON
      00000085H   SFRSYM    DATA     BYTE      DPH1
      000000DBH   SFRSYM    DATA     BYTE      COMPCON
      000000A3H   SFRSYM    DATA     BYTE      CLKCTRL
      00000084H   SFRSYM    DATA     BYTE      DPL1
      000000C8H.5 SFRSYM    DATA     BIT       I2FR
      000000B8H.3 SFRSYM    DATA     BIT       WUPIN
      000000C8H.6 SFRSYM    DATA     BIT       I3FR
      000000FFH   SFRSYM    DATA     BYTE      SPIMDAT
      000000C0H.7 SFRSYM    DATA     BIT       EXF2
      00000098H.4 SFRSYM    DATA     BIT       REN0
      000000C8H.2 SFRSYM    DATA     BIT       T2CM
      000000B8H.1 SFRSYM    DATA     BIT       RF
      000000B8H.5 SFRSYM    DATA     BIT       WUIRQ
      000000E7H   SFRSYM    DATA     BYTE      SPIRDAT
      000000C1H   SFRSYM    DATA     BYTE      CCEN
      000000E2H   SFRSYM    DATA     BYTE      W2CON0
      000000BFH   SFRSYM    DATA     BYTE      SPISDAT
      000000D0H.7 SFRSYM    DATA     BIT       CY
      000000E1H   SFRSYM    DATA     BYTE      W2CON1
      000000FBH   SFRSYM    DATA     BYTE      FDCR
      000000E8H   SFRSYM    DATA     BIT       RFCE
      000000CBH   SFRSYM    DATA     BYTE      CRCH
      00000081H   SFRSYM    DATA     BYTE      SP
      000000D0H.2 SFRSYM    DATA     BIT       OV
      000000CAH   SFRSYM    DATA     BYTE      CRCL
      000000ADH   SFRSYM    DATA     BYTE      CLKLFCTRL
      000000B1H   SFRSYM    DATA     BYTE      RSTREAS
      000000C8H.7 SFRSYM    DATA     BIT       T2PS
      000000F9H   SFRSYM    DATA     BYTE      FPCR
      000000B8H.4 SFRSYM    DATA     BIT       MISC
      000000A1H   SFRSYM    DATA     BYTE      PWMDC0
      000000B4H   SFRSYM    DATA     BYTE      RTC2CMP0
      000000A2H   SFRSYM    DATA     BYTE      PWMDC1
      000000B5H   SFRSYM    DATA     BYTE      RTC2CMP1
      00000080H   SFRSYM    DATA     BIT       P00
      000000BAH   SFRSYM    DATA     BYTE      S0RELH
      00000090H   SFRSYM    DATA     BIT       P10
      00000080H.1 SFRSYM    DATA     BIT       P01
      00000087H   SFRSYM    DATA     BYTE      PCON
      000000A0H   SFRSYM    DATA     BIT       P20
      00000090H.1 SFRSYM    DATA     BIT       P11
      00000080H.2 SFRSYM    DATA     BIT       P02
      000000B0H   SFRSYM    DATA     BIT       P30
      000000A0H.1 SFRSYM    DATA     BIT       P21
      00000090H.2 SFRSYM    DATA     BIT       P12
      00000080H.3 SFRSYM    DATA     BIT       P03
      000000C0H.2 SFRSYM    DATA     BIT       SPIF
      000000F8H.2 SFRSYM    DATA     BIT       RDIS
      000000B0H.1 SFRSYM    DATA     BIT       P31
      000000A0H.2 SFRSYM    DATA     BIT       P22
      00000090H.3 SFRSYM    DATA     BIT       P13
      00000080H.4 SFRSYM    DATA     BIT       P04
      000000AAH   SFRSYM    DATA     BYTE      S0RELL
      000000B0H.2 SFRSYM    DATA     BIT       P32
LX51 LINKER/LOCATER V4.66.62.0                                                        11/15/2016  16:40:07  PAGE 27


      000000A0H.3 SFRSYM    DATA     BIT       P23
      00000090H.4 SFRSYM    DATA     BIT       P14
      00000080H.5 SFRSYM    DATA     BIT       P05
      000000D9H   SFRSYM    DATA     BYTE      W2SADR
      00000089H   SFRSYM    DATA     BYTE      TMOD
      00000088H   SFRSYM    DATA     BYTE      TCON
      000000B0H.3 SFRSYM    DATA     BIT       P33
      000000A0H.4 SFRSYM    DATA     BIT       P24
      00000090H.5 SFRSYM    DATA     BIT       P15
      00000080H.6 SFRSYM    DATA     BIT       P06
      000000B0H.4 SFRSYM    DATA     BIT       P34
      000000A0H.5 SFRSYM    DATA     BIT       P25
      00000090H.6 SFRSYM    DATA     BIT       P16
      00000080H.7 SFRSYM    DATA     BIT       P07
      000000C2H   SFRSYM    DATA     WORD      CC1
      000000B0H.5 SFRSYM    DATA     BIT       P35
      000000A0H.6 SFRSYM    DATA     BIT       P26
      00000090H.7 SFRSYM    DATA     BIT       P17
      000000C4H   SFRSYM    DATA     WORD      CC2
      000000B0H.6 SFRSYM    DATA     BIT       P36
      000000A0H.7 SFRSYM    DATA     BIT       P27
      000000C6H   SFRSYM    DATA     WORD      CC3
      000000B0H.7 SFRSYM    DATA     BIT       P37
      000000E8H.2 SFRSYM    DATA     BIT       RFCKEN
      000000F8H   SFRSYM    DATA     BIT       WPEN
      000000DDH   SFRSYM    DATA     BYTE      CCPDATIA
      000000DEH   SFRSYM    DATA     BYTE      CCPDATIB
      00000088H.1 SFRSYM    DATA     BIT       IE0
      000000F8H.4 SFRSYM    DATA     BIT       RDYN
      00000088H.3 SFRSYM    DATA     BIT       IE1
      000000CFH   SFRSYM    DATA     BYTE      WUOPC0
      000000F0H   SFRSYM    DATA     BYTE      B
      000000E9H   SFRSYM    DATA     BYTE      MD0
      000000CEH   SFRSYM    DATA     BYTE      WUOPC1
      000000A7H   SFRSYM    DATA     BYTE      MEMCON
      000000EAH   SFRSYM    DATA     BYTE      MD1
      000000D7H   SFRSYM    DATA     BYTE      RNGDAT
      000000EBH   SFRSYM    DATA     BYTE      MD2
      000000ECH   SFRSYM    DATA     BYTE      MD3
      000000EDH   SFRSYM    DATA     BYTE      MD4
      000000AFH   SFRSYM    DATA     BYTE      WDSV
      000000EEH   SFRSYM    DATA     BYTE      MD5
      000000E0H   SFRSYM    DATA     BYTE      ACC
      000000DCH   SFRSYM    DATA     BYTE      POFCON
      000000A8H.4 SFRSYM    DATA     BIT       ES0
      000000A8H.1 SFRSYM    DATA     BIT       ET0
      000000A9H   SFRSYM    DATA     BYTE      IP0
      000000A8H.3 SFRSYM    DATA     BIT       ET1
      00000088H.5 SFRSYM    DATA     BIT       TF0
      000000B9H   SFRSYM    DATA     BYTE      IP1
      000000A8H.5 SFRSYM    DATA     BIT       ET2
      00000098H   SFRSYM    DATA     BIT       RI0
      00000088H.7 SFRSYM    DATA     BIT       TF1
      000000C0H   SFRSYM    DATA     BIT       RFSPIF
      000000C0H.6 SFRSYM    DATA     BIT       TF2
      000000FCH   SFRSYM    DATA     BYTE      SPIMCON0
      000000D6H   SFRSYM    DATA     BYTE      RNGCTL
      0000008CH   SFRSYM    DATA     BYTE      TH0
      000000A8H   SFRSYM    DATA     BIT       EX0
      00000098H.1 SFRSYM    DATA     BIT       TI0
      00000088H   SFRSYM    DATA     BIT       IT0
      000000FDH   SFRSYM    DATA     BYTE      SPIMCON1
      0000008DH   SFRSYM    DATA     BYTE      TH1
      000000A8H.2 SFRSYM    DATA     BIT       EX1
      00000088H.2 SFRSYM    DATA     BIT       IT1
LX51 LINKER/LOCATER V4.66.62.0                                                        11/15/2016  16:40:07  PAGE 28


      000000CDH   SFRSYM    DATA     BYTE      TH2
      000000AEH   SFRSYM    DATA     BYTE      OPMCON
      000000D0H   SFRSYM    DATA     BIT       P
      00000098H.7 SFRSYM    DATA     BIT       SM0
      0000008AH   SFRSYM    DATA     BYTE      TL0
      00000098H.6 SFRSYM    DATA     BIT       SM1
      000000E4H   SFRSYM    DATA     BYTE      SPIRCON0
      0000008BH   SFRSYM    DATA     BYTE      TL1
      000000E5H   SFRSYM    DATA     BYTE      SPIRCON1
      000000CCH   SFRSYM    DATA     BYTE      TL2
      000000BCH   SFRSYM    DATA     BYTE      SPISCON0
      000000BDH   SFRSYM    DATA     BYTE      SPISCON1
      000000D0H.3 SFRSYM    DATA     BIT       RS0
      00000088H.4 SFRSYM    DATA     BIT       TR0
      000000D0H.4 SFRSYM    DATA     BIT       RS1
      000000B2H   SFRSYM    DATA     BYTE      PWMCON
      00000088H.6 SFRSYM    DATA     BIT       TR1
      000000CAH   SFRSYM    DATA     WORD      CRC
      000000A6H   SFRSYM    DATA     BYTE      INTEXP
      000000C0H.3 SFRSYM    DATA     BIT       WUPINF
      000000FAH   SFRSYM    DATA     BYTE      FCR
      000000D3H   SFRSYM    DATA     BYTE      ADCCON1
      000000D2H   SFRSYM    DATA     BYTE      ADCCON2
      00000083H   SFRSYM    DATA     BYTE      DPH
      000000D1H   SFRSYM    DATA     BYTE      ADCCON3
      000000C0H.1 SFRSYM    DATA     BIT       RFF
      00000093H   SFRSYM    DATA     BYTE      P0DIR
      00000082H   SFRSYM    DATA     BYTE      DPL
      0000009EH   SFRSYM    DATA     BYTE      P0CON
      00000099H   SFRSYM    DATA     BYTE      S0BUF
      00000094H   SFRSYM    DATA     BYTE      P1DIR
      0000009FH   SFRSYM    DATA     BYTE      P1CON
      00000095H   SFRSYM    DATA     BYTE      P2DIR
      000000B8H.7 SFRSYM    DATA     BIT       EXEN2
      000000DAH   SFRSYM    DATA     BYTE      W2DAT
      00000097H   SFRSYM    DATA     BYTE      P2CON
      00000096H   SFRSYM    DATA     BYTE      P3DIR
      000000A4H   SFRSYM    DATA     BYTE      PWRDWN
      00000098H   SFRSYM    DATA     BYTE      S0CON
      0000008FH   SFRSYM    DATA     BYTE      P3CON
      000000B6H   SFRSYM    DATA     BYTE      RTC2CPT00
      000000D8H   SFRSYM    DATA     BYTE      ADCON
      000000ACH   SFRSYM    DATA     BYTE      RTC2CPT10
      000000ABH   SFRSYM    DATA     BYTE      RTC2CPT01
      000000C8H   SFRSYM    DATA     BYTE      T2CON
      00000092H   SFRSYM    DATA     BYTE      DPS
      000000F8H.5 SFRSYM    DATA     BIT       WEN
      000000F8H   SFRSYM    DATA     BYTE      FSR
      000000D4H   SFRSYM    DATA     BYTE      ADCDATH
      000000C9H   SFRSYM    DATA     BYTE      MPAGE
      000000B8H.2 SFRSYM    DATA     BIT       SPI
      000000F8H.1 SFRSYM    DATA     BIT       RDEND
      000000D5H   SFRSYM    DATA     BYTE      ADCDATL
      000000F8H.3 SFRSYM    DATA     BIT       INFEN
      000000F8H.7 SFRSYM    DATA     BIT       MCDIS
      000000C0H.5 SFRSYM    DATA     BIT       WUF
      000000C0H.4 SFRSYM    DATA     BIT       MISCF
      000000EFH   SFRSYM    DATA     BYTE      ARCON
      000000D0H.5 SFRSYM    DATA     BIT       F0
      000000F8H.6 SFRSYM    DATA     BIT       STP
      000000FEH   SFRSYM    DATA     BYTE      SPIMSTAT
      000000E8H   SFRSYM    DATA     BYTE      RFCON
      000000D0H   SFRSYM    DATA     BYTE      PSW
      00000098H.2 SFRSYM    DATA     BIT       RB80
      000000C0H   SFRSYM    DATA     BYTE      IRCON
LX51 LINKER/LOCATER V4.66.62.0                                                        11/15/2016  16:40:07  PAGE 29


      000000E8H.1 SFRSYM    DATA     BIT       RFCSN
      000000E6H   SFRSYM    DATA     BYTE      SPIRSTAT
      000000B3H   SFRSYM    DATA     BYTE      RTC2CON

      01000B41H   BLOCK     CODE     ---       LVL=0
      ---         BLOCKEND  ---      ---       LVL=0

      01000C1EH   BLOCK     CODE     ---       LVL=0
      01000C1EH   LINE      CODE     ---       #39
      01000C1EH   LINE      CODE     ---       #40
      01000C1EH   LINE      CODE     ---       #41
      01000C21H   LINE      CODE     ---       #42
      01000C25H   LINE      CODE     ---       #43
      01000C27H   LINE      CODE     ---       #44
      ---         BLOCKEND  ---      ---       LVL=0

      01000C28H   BLOCK     CODE     ---       LVL=0
      01000C28H   LINE      CODE     ---       #45
      01000C28H   LINE      CODE     ---       #46
      01000C28H   LINE      CODE     ---       #48
      01000C2BH   LINE      CODE     ---       #49
      01000C31H   LINE      CODE     ---       #51
      ---         BLOCKEND  ---      ---       LVL=0

      01000B95H   BLOCK     CODE     ---       LVL=0
      00000007H   SYMBOL    DATA     BYTE      resp_gen
      01000B95H   LINE      CODE     ---       #52
      01000B95H   LINE      CODE     ---       #53
      01000B95H   LINE      CODE     ---       #54
      01000B98H   LINE      CODE     ---       #55
      01000B98H   LINE      CODE     ---       #56
      01000B9BH   LINE      CODE     ---       #57
      01000B9CH   LINE      CODE     ---       #59
      01000B9CH   LINE      CODE     ---       #60
      01000B9FH   LINE      CODE     ---       #61
      01000B9FH   LINE      CODE     ---       #62
      ---         BLOCKEND  ---      ---       LVL=0

      01000BA0H   BLOCK     CODE     ---       LVL=0
      00000007H   SYMBOL    DATA     BYTE      alt_clk
      01000BA0H   LINE      CODE     ---       #64
      01000BA0H   LINE      CODE     ---       #65
      01000BA0H   LINE      CODE     ---       #66
      01000BA3H   LINE      CODE     ---       #67
      01000BA3H   LINE      CODE     ---       #68
      01000BA6H   LINE      CODE     ---       #69
      01000BA7H   LINE      CODE     ---       #71
      01000BA7H   LINE      CODE     ---       #72
      01000BAAH   LINE      CODE     ---       #73
      01000BAAH   LINE      CODE     ---       #74
      ---         BLOCKEND  ---      ---       LVL=0

      01000BABH   BLOCK     CODE     ---       LVL=0
      00000007H   SYMBOL    DATA     BYTE      stop_cond
      01000BABH   LINE      CODE     ---       #76
      01000BABH   LINE      CODE     ---       #77
      01000BABH   LINE      CODE     ---       #78
      01000BAEH   LINE      CODE     ---       #79
      01000BAEH   LINE      CODE     ---       #80
      01000BB1H   LINE      CODE     ---       #81
      01000BB2H   LINE      CODE     ---       #83
      01000BB2H   LINE      CODE     ---       #84
      01000BB5H   LINE      CODE     ---       #85
      01000BB5H   LINE      CODE     ---       #86
      ---         BLOCKEND  ---      ---       LVL=0
LX51 LINKER/LOCATER V4.66.62.0                                                        11/15/2016  16:40:07  PAGE 30



      01000BB6H   BLOCK     CODE     ---       LVL=0
      00000007H   SYMBOL    DATA     BYTE      addr_match
      01000BB6H   LINE      CODE     ---       #88
      01000BB6H   LINE      CODE     ---       #89
      01000BB6H   LINE      CODE     ---       #90
      01000BB9H   LINE      CODE     ---       #91
      01000BB9H   LINE      CODE     ---       #92
      01000BBCH   LINE      CODE     ---       #93
      01000BBDH   LINE      CODE     ---       #95
      01000BBDH   LINE      CODE     ---       #96
      01000BC0H   LINE      CODE     ---       #97
      01000BC0H   LINE      CODE     ---       #98
      ---         BLOCKEND  ---      ---       LVL=0

      01000C53H   BLOCK     CODE     ---       LVL=0
      00000007H   SYMBOL    DATA     BYTE      address
      01000C53H   LINE      CODE     ---       #100
      01000C53H   LINE      CODE     ---       #101
      01000C53H   LINE      CODE     ---       #102
      01000C58H   LINE      CODE     ---       #103
      ---         BLOCKEND  ---      ---       LVL=0

      01000B33H   BLOCK     CODE     ---       LVL=0
      00000007H   SYMBOL    DATA     BYTE      freq
      01000B33H   LINE      CODE     ---       #107
      01000B33H   LINE      CODE     ---       #108
      01000B33H   LINE      CODE     ---       #109
      01000B40H   LINE      CODE     ---       #110
      ---         BLOCKEND  ---      ---       LVL=0

      01000BC1H   BLOCK     CODE     ---       LVL=0
      00000007H   SYMBOL    DATA     BYTE      mode
      01000BC1H   LINE      CODE     ---       #112
      01000BC1H   LINE      CODE     ---       #113
      01000BC1H   LINE      CODE     ---       #114
      01000BC4H   LINE      CODE     ---       #115
      01000BC4H   LINE      CODE     ---       #116
      01000BC7H   LINE      CODE     ---       #117
      01000BC8H   LINE      CODE     ---       #119
      01000BC8H   LINE      CODE     ---       #120
      01000BCBH   LINE      CODE     ---       #121
      01000BCBH   LINE      CODE     ---       #122
      ---         BLOCKEND  ---      ---       LVL=0

      01000BCCH   BLOCK     CODE     ---       LVL=0
      00000007H   SYMBOL    DATA     BYTE      en
      01000BCCH   LINE      CODE     ---       #124
      01000BCCH   LINE      CODE     ---       #125
      01000BCCH   LINE      CODE     ---       #126
      01000BCFH   LINE      CODE     ---       #127
      01000BCFH   LINE      CODE     ---       #128
      01000BD2H   LINE      CODE     ---       #129
      01000BD3H   LINE      CODE     ---       #131
      01000BD3H   LINE      CODE     ---       #132
      01000BD6H   LINE      CODE     ---       #133
      01000BD6H   LINE      CODE     ---       #134
      ---         BLOCKEND  ---      ---       LVL=0

      01000BD7H   BLOCK     CODE     ---       LVL=0
      00000007H   SYMBOL    DATA     BYTE      irq
      01000BD7H   LINE      CODE     ---       #136
      01000BD7H   LINE      CODE     ---       #137
      01000BD7H   LINE      CODE     ---       #140
      01000BDAH   LINE      CODE     ---       #141
LX51 LINKER/LOCATER V4.66.62.0                                                        11/15/2016  16:40:07  PAGE 31


      01000BDAH   LINE      CODE     ---       #142
      01000BDDH   LINE      CODE     ---       #143
      01000BDEH   LINE      CODE     ---       #145
      01000BDEH   LINE      CODE     ---       #146
      01000BE1H   LINE      CODE     ---       #147
      01000BE1H   LINE      CODE     ---       #148
      ---         BLOCKEND  ---      ---       LVL=0

      01000936H   BLOCK     CODE     ---       LVL=0
      00000006H   SYMBOL    DATA     BYTE      mode
      01000936H   LINE      CODE     ---       #150
      01000938H   LINE      CODE     ---       #151
      01000938H   LINE      CODE     ---       #152
      0100093DH   LINE      CODE     ---       #153
      01000942H   LINE      CODE     ---       #154
      01000947H   LINE      CODE     ---       #156
      0100094AH   LINE      CODE     ---       #157
      0100094DH   LINE      CODE     ---       #158
      01000950H   LINE      CODE     ---       #160
      01000954H   LINE      CODE     ---       #161
      01000956H   LINE      CODE     ---       #162
      ---         BLOCKEND  ---      ---       LVL=0

      010008EBH   BLOCK     CODE     ---       LVL=0
      010008EBH   BLOCK     CODE     NEAR LAB  LVL=1
      00000010H   SYMBOL    DATA     DWORD     timeout_counter
      00000014H   SYMBOL    DATA     BYTE      w2_status
      00000015H   SYMBOL    DATA     BYTE      data_ready
      00000016H   SYMBOL    DATA     BYTE      nack_received
      ---         BLOCKEND  ---      ---       LVL=1
      010008EBH   LINE      CODE     ---       #164
      010008EBH   LINE      CODE     ---       #165
      010008EBH   LINE      CODE     ---       #166
      010008F5H   LINE      CODE     ---       #172
      010008F5H   LINE      CODE     ---       #173
      010008F8H   LINE      CODE     ---       #174
      010008FEH   LINE      CODE     ---       #175
      01000904H   LINE      CODE     ---       #176
      0100090BH   LINE      CODE     ---       #177
      0100090FH   LINE      CODE     ---       #180
      01000911H   LINE      CODE     ---       #181
      ---         BLOCKEND  ---      ---       LVL=0

      01000A8BH   BLOCK     CODE     ---       LVL=0
      00000007H   SYMBOL    DATA     BYTE      address
      00000005H   SYMBOL    DATA     BYTE      direction
      01000A8BH   BLOCK     CODE     NEAR LAB  LVL=1
      00000007H   SYMBOL    DATA     BYTE      w2_status
      ---         BLOCKEND  ---      ---       LVL=1
      01000A8BH   LINE      CODE     ---       #183
      01000A8BH   LINE      CODE     ---       #184
      01000A8BH   LINE      CODE     ---       #187
      01000A8EH   LINE      CODE     ---       #188
      01000A92H   LINE      CODE     ---       #190
      01000A92H   LINE      CODE     ---       #192
      01000A9AH   LINE      CODE     ---       #193
      01000A9AH   LINE      CODE     ---       #194
      01000A9CH   LINE      CODE     ---       #195
      01000A9CH   LINE      CODE     ---       #197
      01000A9CH   LINE      CODE     ---       #198
      01000A9CH   LINE      CODE     ---       #199
      01000A9CH   LINE      CODE     ---       #200
      ---         BLOCKEND  ---      ---       LVL=0

      01000796H   BLOCK     CODE     ---       LVL=0
LX51 LINKER/LOCATER V4.66.62.0                                                        11/15/2016  16:40:07  PAGE 32


      00000007H   SYMBOL    DATA     BYTE      address
      0000003EH   SYMBOL    DATA     ---       data_ptr
      00000041H   SYMBOL    DATA     BYTE      data_len
      0100079CH   BLOCK     CODE     NEAR LAB  LVL=1
      00000006H   SYMBOL    DATA     BYTE      ack_received
      010007B0H   BLOCK     CODE     NEAR LAB  LVL=2
      00000042H   SYMBOL    DATA     BYTE      w2_status
      ---         BLOCKEND  ---      ---       LVL=2
      ---         BLOCKEND  ---      ---       LVL=1
      01000796H   LINE      CODE     ---       #202
      0100079CH   LINE      CODE     ---       #203
      0100079CH   LINE      CODE     ---       #205
      010007A3H   LINE      CODE     ---       #207
      010007B0H   LINE      CODE     ---       #208
      010007B0H   LINE      CODE     ---       #210
      010007BAH   LINE      CODE     ---       #211
      010007BFH   LINE      CODE     ---       #212
      010007C4H   LINE      CODE     ---       #213
      010007C4H   LINE      CODE     ---       #214
      010007C6H   LINE      CODE     ---       #215
      010007C6H   LINE      CODE     ---       #216
      010007C8H   LINE      CODE     ---       #218
      010007CBH   LINE      CODE     ---       #220
      010007CDH   LINE      CODE     ---       #221
      ---         BLOCKEND  ---      ---       LVL=0

      0100071AH   BLOCK     CODE     ---       LVL=0
      00000007H   SYMBOL    DATA     BYTE      address
      00000044H   SYMBOL    DATA     ---       data_ptr
      00000047H   SYMBOL    DATA     BYTE      data_len
      01000720H   BLOCK     CODE     NEAR LAB  LVL=1
      00000007H   SYMBOL    DATA     BYTE      w2_status
      00000048H   SYMBOL    DATA     BYTE      ack_received
      ---         BLOCKEND  ---      ---       LVL=1
      0100071AH   LINE      CODE     ---       #223
      01000720H   LINE      CODE     ---       #224
      01000720H   LINE      CODE     ---       #228
      01000727H   LINE      CODE     ---       #230
      0100072BH   LINE      CODE     ---       #231
      0100072BH   LINE      CODE     ---       #233
      0100072EH   LINE      CODE     ---       #234
      0100072EH   LINE      CODE     ---       #237
      01000739H   LINE      CODE     ---       #238
      01000739H   LINE      CODE     ---       #239
      0100073DH   LINE      CODE     ---       #240
      0100073DH   LINE      CODE     ---       #241
      01000740H   LINE      CODE     ---       #242
      01000740H   LINE      CODE     ---       #244
      01000743H   LINE      CODE     ---       #246
      0100074DH   LINE      CODE     ---       #247
      01000757H   LINE      CODE     ---       #248
      01000759H   LINE      CODE     ---       #250
      0100075BH   LINE      CODE     ---       #251
      ---         BLOCKEND  ---      ---       LVL=0

      010003EAH   BLOCK     CODE     ---       LVL=0
      010003EAH   BLOCK     CODE     NEAR LAB  LVL=1
      00000036H   SYMBOL    DATA     BYTE      pulsecount
      00000037H   SYMBOL    DATA     BYTE      w2_freq
      ---         BLOCKEND  ---      ---       LVL=1
      010003EAH   LINE      CODE     ---       #253
      010003EAH   LINE      CODE     ---       #254
      010003EAH   LINE      CODE     ---       #259
      010003F0H   LINE      CODE     ---       #261
      010003F3H   LINE      CODE     ---       #262
LX51 LINKER/LOCATER V4.66.62.0                                                        11/15/2016  16:40:07  PAGE 33


      010003FBH   LINE      CODE     ---       #266
      010003FEH   LINE      CODE     ---       #267
      01000401H   LINE      CODE     ---       #270
      01000404H   LINE      CODE     ---       #275
      0100040AH   LINE      CODE     ---       #278
      0100040AH   LINE      CODE     ---       #280
      0100040AH   LINE      CODE     ---       #284
      0100040DH   LINE      CODE     ---       #285
      01000410H   LINE      CODE     ---       #286
      01000410H   LINE      CODE     ---       #288
      01000416H   LINE      CODE     ---       #289
      01000416H   LINE      CODE     ---       #291
      01000416H   LINE      CODE     ---       #292
      01000419H   LINE      CODE     ---       #293
      01000422H   LINE      CODE     ---       #296
      01000422H   LINE      CODE     ---       #298
      01000429H   LINE      CODE     ---       #301
      01000429H   LINE      CODE     ---       #303
      01000430H   LINE      CODE     ---       #306
      01000433H   LINE      CODE     ---       #309
      01000436H   LINE      CODE     ---       #310
      0100043CH   LINE      CODE     ---       #312
      ---         BLOCKEND  ---      ---       LVL=0

      01000AE2H   BLOCK     CODE     ---       LVL=0
      00000007H   SYMBOL    DATA     BYTE      devAddr
      00000005H   SYMBOL    DATA     BYTE      regAddr
      00000029H   SYMBOL    DATA     BYTE      data_to_write
      01000AE2H   LINE      CODE     ---       #317
      01000AE4H   LINE      CODE     ---       #318
      01000AF2H   LINE      CODE     ---       #319
      ---         BLOCKEND  ---      ---       LVL=0

      0100075CH   BLOCK     CODE     ---       LVL=0
      00000007H   SYMBOL    DATA     BYTE      devAddr
      00000004H   SYMBOL    DATA     BYTE      regAddr
      00000006H   SYMBOL    DATA     BYTE      data_len
      0000002DH   SYMBOL    DATA     ---       data_ptr
      01000760H   BLOCK     CODE     NEAR LAB  LVL=1
      00000007H   SYMBOL    DATA     BYTE      w2_status
      00000005H   SYMBOL    DATA     BYTE      ack_received
      ---         BLOCKEND  ---      ---       LVL=1
      0100075CH   LINE      CODE     ---       #321
      01000760H   LINE      CODE     ---       #326
      01000767H   LINE      CODE     ---       #327
      01000769H   LINE      CODE     ---       #328
      0100076CH   LINE      CODE     ---       #329
      01000770H   LINE      CODE     ---       #330
      01000770H   LINE      CODE     ---       #331
      01000772H   LINE      CODE     ---       #332
      01000772H   LINE      CODE     ---       #334
      0100077EH   LINE      CODE     ---       #335
      0100077EH   LINE      CODE     ---       #336
      01000786H   LINE      CODE     ---       #337
      01000786H   LINE      CODE     ---       #338
      0100078CH   LINE      CODE     ---       #339
      0100078CH   LINE      CODE     ---       #340
      0100078EH   LINE      CODE     ---       #341
      0100078EH   LINE      CODE     ---       #342
      01000790H   LINE      CODE     ---       #343
      01000793H   LINE      CODE     ---       #345
      01000795H   LINE      CODE     ---       #346
      ---         BLOCKEND  ---      ---       LVL=0

      01000A9DH   BLOCK     CODE     ---       LVL=0
LX51 LINKER/LOCATER V4.66.62.0                                                        11/15/2016  16:40:07  PAGE 34


      00000007H   SYMBOL    DATA     BYTE      devAddr
      00000005H   SYMBOL    DATA     BYTE      regAddr
      0000002BH   SYMBOL    DATA     ---       data_ptr
      01000A9DH   LINE      CODE     ---       #348
      01000AA3H   LINE      CODE     ---       #349
      01000AAEH   LINE      CODE     ---       #350
      ---         BLOCKEND  ---      ---       LVL=0

      01000526H   BLOCK     CODE     ---       LVL=0
      00000006H   SYMBOL    DATA     BYTE      devAddr
      00000004H   SYMBOL    DATA     BYTE      regAddr
      00000030H   SYMBOL    DATA     BYTE      data_len
      00000031H   SYMBOL    DATA     ---       data_ptr
      0100052CH   BLOCK     CODE     NEAR LAB  LVL=1
      00000034H   SYMBOL    DATA     BYTE      w2_status
      00000035H   SYMBOL    DATA     BYTE      ack_received
      ---         BLOCKEND  ---      ---       LVL=1
      01000526H   LINE      CODE     ---       #352
      0100052CH   LINE      CODE     ---       #357
      01000533H   LINE      CODE     ---       #358
      01000535H   LINE      CODE     ---       #359
      0100053AH   LINE      CODE     ---       #360
      0100053FH   LINE      CODE     ---       #361
      0100053FH   LINE      CODE     ---       #362
      01000542H   LINE      CODE     ---       #363
      01000542H   LINE      CODE     ---       #367
      0100054BH   LINE      CODE     ---       #369
      0100054FH   LINE      CODE     ---       #370
      0100054FH   LINE      CODE     ---       #372
      01000552H   LINE      CODE     ---       #374
      01000552H   LINE      CODE     ---       #376
      0100055DH   LINE      CODE     ---       #377
      0100055DH   LINE      CODE     ---       #378
      01000561H   LINE      CODE     ---       #379
      01000561H   LINE      CODE     ---       #380
      01000564H   LINE      CODE     ---       #381
      01000564H   LINE      CODE     ---       #383
      01000569H   LINE      CODE     ---       #385
      01000573H   LINE      CODE     ---       #386
      0100057EH   LINE      CODE     ---       #387
      01000580H   LINE      CODE     ---       #389
      01000582H   LINE      CODE     ---       #390
      ---         BLOCKEND  ---      ---       LVL=0

      01000687H   BLOCK     CODE     ---       LVL=0
      00000022H   SYMBOL    DATA     BYTE      devAddr
      00000023H   SYMBOL    DATA     BYTE      regAddr
      00000024H   SYMBOL    DATA     BYTE      bitNum
      00000025H   SYMBOL    DATA     BYTE      data_to_write
      0100068DH   BLOCK     CODE     NEAR LAB  LVL=1
      00000026H   SYMBOL    DATA     BYTE      b
      ---         BLOCKEND  ---      ---       LVL=1
      01000687H   LINE      CODE     ---       #393
      0100068DH   LINE      CODE     ---       #395
      01000696H   LINE      CODE     ---       #396
      010006CBH   LINE      CODE     ---       #397
      010006D4H   LINE      CODE     ---       #398
      ---         BLOCKEND  ---      ---       LVL=0

      010004C3H   BLOCK     CODE     ---       LVL=0
      00000022H   SYMBOL    DATA     BYTE      devAddr
      00000023H   SYMBOL    DATA     BYTE      regAddr
      00000024H   SYMBOL    DATA     BYTE      bitStart
      00000025H   SYMBOL    DATA     BYTE      data_length
      00000026H   SYMBOL    DATA     BYTE      data_to_write
LX51 LINKER/LOCATER V4.66.62.0                                                        11/15/2016  16:40:07  PAGE 35


      010004C9H   BLOCK     CODE     NEAR LAB  LVL=1
      00000027H   SYMBOL    DATA     BYTE      b
      010004D5H   BLOCK     CODE     NEAR LAB  LVL=2
      00000028H   SYMBOL    DATA     BYTE      mask
      ---         BLOCKEND  ---      ---       LVL=2
      ---         BLOCKEND  ---      ---       LVL=1
      010004C3H   LINE      CODE     ---       #399
      010004C9H   LINE      CODE     ---       #408
      010004D5H   LINE      CODE     ---       #409
      01000502H   LINE      CODE     ---       #410
      0100050FH   LINE      CODE     ---       #411
      01000513H   LINE      CODE     ---       #412
      01000516H   LINE      CODE     ---       #413
      0100051AH   LINE      CODE     ---       #414
      01000523H   LINE      CODE     ---       #415
      01000523H   LINE      CODE     ---       #416
      01000525H   LINE      CODE     ---       #417
      01000525H   LINE      CODE     ---       #418
      ---         BLOCKEND  ---      ---       LVL=0

      01000912H   BLOCK     CODE     ---       LVL=0
      00000007H   SYMBOL    DATA     BYTE      devAddr
      00000005H   SYMBOL    DATA     BYTE      regAddr
      00000019H   SYMBOL    DATA     BYTE      bitNum
      0000001AH   SYMBOL    DATA     ---       data_ptr
      01000914H   BLOCK     CODE     NEAR LAB  LVL=1
      0000001DH   SYMBOL    DATA     BYTE      b
      00000007H   SYMBOL    DATA     BYTE      count
      ---         BLOCKEND  ---      ---       LVL=1
      01000912H   LINE      CODE     ---       #419
      01000914H   LINE      CODE     ---       #421
      0100091DH   LINE      CODE     ---       #422
      01000935H   LINE      CODE     ---       #423
      01000935H   LINE      CODE     ---       #424
      ---         BLOCKEND  ---      ---       LVL=0

      01000583H   BLOCK     CODE     ---       LVL=0
      00000007H   SYMBOL    DATA     BYTE      devAddr
      00000005H   SYMBOL    DATA     BYTE      regAddr
      00000024H   SYMBOL    DATA     BYTE      bitStart
      00000025H   SYMBOL    DATA     BYTE      data_length
      00000026H   SYMBOL    DATA     ---       data_ptr
      01000585H   BLOCK     CODE     NEAR LAB  LVL=1
      00000005H   SYMBOL    DATA     BYTE      count
      00000029H   SYMBOL    DATA     BYTE      b
      01000593H   BLOCK     CODE     NEAR LAB  LVL=2
      0000002AH   SYMBOL    DATA     BYTE      mask
      ---         BLOCKEND  ---      ---       LVL=2
      ---         BLOCKEND  ---      ---       LVL=1
      01000583H   LINE      CODE     ---       #425
      01000585H   LINE      CODE     ---       #432
      01000593H   LINE      CODE     ---       #433
      010005C0H   LINE      CODE     ---       #434
      010005C2H   LINE      CODE     ---       #435
      010005CFH   LINE      CODE     ---       #436
      010005D8H   LINE      CODE     ---       #437
      010005D8H   LINE      CODE     ---       #438
      010005DAH   LINE      CODE     ---       #439
      ---         BLOCKEND  ---      ---       LVL=0

      01000A66H   BLOCK     CODE     ---       LVL=0
      00000007H   SYMBOL    DATA     BYTE      devAddr
      00000005H   SYMBOL    DATA     BYTE      regAddr
      00000022H   SYMBOL    DATA     WORD      data_to_write
      01000A66H   LINE      CODE     ---       #442
LX51 LINKER/LOCATER V4.66.62.0                                                        11/15/2016  16:40:07  PAGE 36


      01000A6AH   LINE      CODE     ---       #443
      01000A78H   LINE      CODE     ---       #444
      ---         BLOCKEND  ---      ---       LVL=0

      01000631H   BLOCK     CODE     ---       LVL=0
      00000007H   SYMBOL    DATA     BYTE      devAddr
      00000006H   SYMBOL    DATA     BYTE      regAddr
      00000004H   SYMBOL    DATA     BYTE      data_length
      00000027H   SYMBOL    DATA     ---       data_ptr
      01000635H   BLOCK     CODE     NEAR LAB  LVL=1
      00000007H   SYMBOL    DATA     BYTE      w2_status
      00000005H   SYMBOL    DATA     BYTE      ack_received
      ---         BLOCKEND  ---      ---       LVL=1
      01000631H   LINE      CODE     ---       #445
      01000635H   LINE      CODE     ---       #456
      0100063CH   LINE      CODE     ---       #457
      0100063EH   LINE      CODE     ---       #458
      01000641H   LINE      CODE     ---       #459
      01000645H   LINE      CODE     ---       #460
      01000645H   LINE      CODE     ---       #461
      01000647H   LINE      CODE     ---       #462
      01000647H   LINE      CODE     ---       #464
      01000655H   LINE      CODE     ---       #465
      01000655H   LINE      CODE     ---       #466
      01000660H   LINE      CODE     ---       #467
      01000660H   LINE      CODE     ---       #468
      01000666H   LINE      CODE     ---       #469
      01000666H   LINE      CODE     ---       #470
      01000668H   LINE      CODE     ---       #471
      01000668H   LINE      CODE     ---       #472
      0100066BH   LINE      CODE     ---       #473
      01000677H   LINE      CODE     ---       #474
      01000677H   LINE      CODE     ---       #475
      0100067DH   LINE      CODE     ---       #476
      0100067DH   LINE      CODE     ---       #477
      0100067FH   LINE      CODE     ---       #478
      0100067FH   LINE      CODE     ---       #479
      01000681H   LINE      CODE     ---       #480
      01000681H   LINE      CODE     ---       #481
      01000681H   LINE      CODE     ---       #482
      01000681H   LINE      CODE     ---       #483
      01000684H   LINE      CODE     ---       #485
      01000686H   LINE      CODE     ---       #486
      ---         BLOCKEND  ---      ---       LVL=0

      ---         MODULE    ---      ---       HAL_DELAY
      01000A2CH   PUBLIC    CODE     ---       _delay_ms
      010009EEH   PUBLIC    CODE     ---       _delay_us

      010009E3H   BLOCK     CODE     ---       LVL=0
      ---         BLOCKEND  ---      ---       LVL=0

      010009EEH   BLOCK     CODE     ---       LVL=0
      00000006H   SYMBOL    DATA     WORD      us
      010009EEH   LINE      CODE     ---       #37
      010009EEH   LINE      CODE     ---       #38
      010009EEH   LINE      CODE     ---       #40
      010009EEH   LINE      CODE     ---       #41
      010009EFH   LINE      CODE     ---       #42
      010009F0H   LINE      CODE     ---       #43
      010009F1H   LINE      CODE     ---       #44
      010009F2H   LINE      CODE     ---       #45
      010009F3H   LINE      CODE     ---       #46
      010009FCH   LINE      CODE     ---       #47
      ---         BLOCKEND  ---      ---       LVL=0
LX51 LINKER/LOCATER V4.66.62.0                                                        11/15/2016  16:40:07  PAGE 37



      01000A2CH   BLOCK     CODE     ---       LVL=0
      00000004H   SYMBOL    DATA     WORD      ms
      01000A2CH   LINE      CODE     ---       #49
      01000A30H   LINE      CODE     ---       #50
      01000A30H   LINE      CODE     ---       #52
      01000A30H   LINE      CODE     ---       #53
      01000A30H   LINE      CODE     ---       #54
      01000A33H   LINE      CODE     ---       #55
      01000A33H   LINE      CODE     ---       #56
      01000A36H   LINE      CODE     ---       #57
      01000A3FH   LINE      CODE     ---       #58
      ---         BLOCKEND  ---      ---       LVL=0

      ---         MODULE    ---      ---       ?C_INIT
      01000299H   PUBLIC    CODE     ---       ?C_START

      ---         MODULE    ---      ---       ?C?CLDPTR
      01000056H   PUBLIC    CODE     ---       ?C?CLDPTR

      ---         MODULE    ---      ---       ?C?CLDOPTR
      0100006FH   PUBLIC    CODE     ---       ?C?CLDOPTR

      ---         MODULE    ---      ---       ?C?CSTPTR
      0100009CH   PUBLIC    CODE     ---       ?C?CSTPTR

      ---         MODULE    ---      ---       ?C?CSTOPTR
      010000AEH   PUBLIC    CODE     ---       ?C?CSTOPTR

      ---         MODULE    ---      ---       ?C?ILDPTR
      010000D0H   PUBLIC    CODE     ---       ?C?ILDPTR

      ---         MODULE    ---      ---       ?C?PLDIIDATA
      010000FBH   PUBLIC    CODE     ---       ?C?PLDIIDATA



*** WARNING L57: UNCALLED FUNCTION, IGNORED FOR OVERLAY PROCESS
    NAME:    _SETMEMORYBANK/MAIN

*** WARNING L57: UNCALLED FUNCTION, IGNORED FOR OVERLAY PROCESS
    NAME:    GETFIFOCOUNT/MAIN

*** WARNING L57: UNCALLED FUNCTION, IGNORED FOR OVERLAY PROCESS
    NAME:    GETINTSTATUS/MAIN

*** WARNING L57: UNCALLED FUNCTION, IGNORED FOR OVERLAY PROCESS
    NAME:    _SETDMPENABLED/MAIN

*** WARNING L57: UNCALLED FUNCTION, IGNORED FOR OVERLAY PROCESS
    NAME:    RESETFIFO/MAIN

*** WARNING L57: UNCALLED FUNCTION, IGNORED FOR OVERLAY PROCESS
    NAME:    DMPGETFIFOPACKETSIZE/MAIN

*** WARNING L57: UNCALLED FUNCTION, IGNORED FOR OVERLAY PROCESS
    NAME:    _GETFIFOBYTES/MAIN

*** WARNING L57: UNCALLED FUNCTION, IGNORED FOR OVERLAY PROCESS
    NAME:    GETXGYROOFFSETTC/MAIN

*** WARNING L57: UNCALLED FUNCTION, IGNORED FOR OVERLAY PROCESS
    NAME:    _SETXGYROOFFSETTC/MAIN

*** WARNING L57: UNCALLED FUNCTION, IGNORED FOR OVERLAY PROCESS
LX51 LINKER/LOCATER V4.66.62.0                                                        11/15/2016  16:40:07  PAGE 38


    NAME:    GETYGYROOFFSETTC/MAIN

*** WARNING L57: UNCALLED FUNCTION, IGNORED FOR OVERLAY PROCESS
    NAME:    _SETYGYROOFFSETTC/MAIN

*** WARNING L57: UNCALLED FUNCTION, IGNORED FOR OVERLAY PROCESS
    NAME:    GETZGYROOFFSETTC/MAIN

*** WARNING L57: UNCALLED FUNCTION, IGNORED FOR OVERLAY PROCESS
    NAME:    _SETZGYROOFFSETTC/MAIN

*** WARNING L57: UNCALLED FUNCTION, IGNORED FOR OVERLAY PROCESS
    NAME:    UART_INIT/MAIN

*** WARNING L57: UNCALLED FUNCTION, IGNORED FOR OVERLAY PROCESS
    NAME:    _PUTSTRING/MAIN

*** WARNING L57: UNCALLED FUNCTION, IGNORED FOR OVERLAY PROCESS
    NAME:    _SEND_PACKET_TO_COMPUTER/MAIN

*** WARNING L57: UNCALLED FUNCTION, IGNORED FOR OVERLAY PROCESS
    NAME:    _SEND_PACKET_FROM_HOST_TO_COMPUTER/MAIN

*** WARNING L57: UNCALLED FUNCTION, IGNORED FOR OVERLAY PROCESS
    NAME:    _HAL_W2_RESPOND_TO_GEN_ADR/HAL_W2_ISR

*** WARNING L57: UNCALLED FUNCTION, IGNORED FOR OVERLAY PROCESS
    NAME:    _HAL_W2_ALTER_CLOCK/HAL_W2_ISR

*** WARNING L57: UNCALLED FUNCTION, IGNORED FOR OVERLAY PROCESS
    NAME:    _HAL_W2_IRQ_STOP_COND_ENABLE/HAL_W2_ISR

*** WARNING L57: UNCALLED FUNCTION, IGNORED FOR OVERLAY PROCESS
    NAME:    _HAL_W2_IRQ_ADR_MATCH_ENABLE/HAL_W2_ISR

*** WARNING L57: UNCALLED FUNCTION, IGNORED FOR OVERLAY PROCESS
    NAME:    _HAL_W2_SET_SLAVE_ADDRESS/HAL_W2_ISR

*** WARNING L57: UNCALLED FUNCTION, IGNORED FOR OVERLAY PROCESS
    NAME:    HAL_W2_WAIT_DATA_READY/HAL_W2_ISR

*** WARNING L57: UNCALLED FUNCTION, IGNORED FOR OVERLAY PROCESS
    NAME:    _HAL_W2_WRITE/HAL_W2_ISR

*** WARNING L57: UNCALLED FUNCTION, IGNORED FOR OVERLAY PROCESS
    NAME:    _HAL_W2_READ/HAL_W2_ISR

*** WARNING L57: UNCALLED FUNCTION, IGNORED FOR OVERLAY PROCESS
    NAME:    _I2C_MPU_READBIT/HAL_W2_ISR

Program Size: data=89.1 xdata=92 const=82 code=3154
LX51 RUN COMPLETE.  26 WARNING(S),  0 ERROR(S)
