LX51 LINKER/LOCATER V4.66.62.0                                                          11/14/2016  15:21:25  PAGE 1


LX51 LINKER/LOCATER V4.66.62.0, INVOKED BY:
C:\KEIL_V5\C51\BIN\LX51.EXE STARTUP.obj, main.obj, .\hal_w2_isr.obj, .\hal_delay.obj TO FProject DISABLEWARNING (16)


CPU MODE:     8051 MODE
MEMORY MODEL: SMALL


INPUT MODULES INCLUDED:
  STARTUP.obj (?C_STARTUP)
         COMMENT TYPE 1: A51 / ASM51 Assembler
  main.obj (MAIN)
         COMMENT TYPE 0: C51 V9.55
  .\hal_w2_isr.obj (HAL_W2_ISR)
         COMMENT TYPE 0: C51 V9.55
  .\hal_delay.obj (HAL_DELAY)
         COMMENT TYPE 0: C51 V9.55
  C:\KEIL_V5\C51\LIB\C51S.LIB (?C_INIT)
         COMMENT TYPE 1: A51 / ASM51 Assembler
  C:\KEIL_V5\C51\LIB\C51S.LIB (?C?CLDPTR)
         COMMENT TYPE 1: A51 / ASM51 Assembler
  C:\KEIL_V5\C51\LIB\C51S.LIB (?C?CSTPTR)
         COMMENT TYPE 1: A51 / ASM51 Assembler
  C:\KEIL_V5\C51\LIB\C51S.LIB (?C?CSTOPTR)
         COMMENT TYPE 1: A51 / ASM51 Assembler
  C:\KEIL_V5\C51\LIB\C51S.LIB (?C?ILDPTR)
         COMMENT TYPE 1: A51 / ASM51 Assembler
  C:\KEIL_V5\C51\LIB\C51S.LIB (?C?PLDIIDATA)
         COMMENT TYPE 1: A51 / ASM51 Assembler


ACTIVE MEMORY CLASSES OF MODULE:  FProject (?C_STARTUP)

BASE        START       END         USED      MEMORY CLASS
==========================================================
C:000000H   C:000000H   C:00FFFFH   000B57H   CODE
I:000000H   I:000000H   I:0000FFH   000001H   IDATA
I:000000H   I:000000H   I:00007FH   000057H   DATA
C:000000H   C:000000H   C:00FFFFH   000050H   CONST
X:000000H   X:000000H   X:00FFFFH   00005CH   XDATA
I:000020H.0 I:000020H.0 I:00002FH.7 000000H.1 BIT


MEMORY MAP OF MODULE:  FProject (?C_STARTUP)


START     STOP      LENGTH    ALIGN  RELOC    MEMORY CLASS   SEGMENT NAME
=========================================================================

* * * * * * * * * * *   D A T A   M E M O R Y   * * * * * * * * * * * * *
000000H   000007H   000008H   ---    AT..     DATA           "REG BANK 0"
000008H   000010H   000009H   BYTE   UNIT     DATA           ?DT?_I2C_MPU_READBITS?HAL_W2_ISR
000011H   000018H   000008H   BYTE   UNIT     DATA           ?DT?MAIN
000019H   00001FH   000007H   BYTE   UNIT     DATA           ?DT?HAL_W2_WAIT_DATA_READY?HAL_W2_ISR
000020H   000020H   000001H   BYTE   BITADDR  DATA           ?BA?MAIN
000021H.0 000021H.0 000000H.1 BIT    UNIT     BIT            ?BI?MAIN
000021H.1 000021H   000000H.7 ---    ---      **GAP**
000022H   00003AH   000019H   BYTE   UNIT     DATA           _DATA_GROUP_
00003BH   000041H   000007H   BYTE   UNIT     DATA           ?DT?_I2C_MPU_READBIT?HAL_W2_ISR
000042H   000047H   000006H   BYTE   UNIT     DATA           ?DT?_HAL_W2_WRITE?HAL_W2_ISR
000048H   00004DH   000006H   BYTE   UNIT     DATA           ?DT?_HAL_W2_READ?HAL_W2_ISR
00004EH   000052H   000005H   BYTE   UNIT     DATA           ?DT?_ENVIAR_MSG_TO_HOST_HEX?MAIN
000053H   000055H   000003H   BYTE   UNIT     DATA           ?DT?_GETFIFOBYTES?MAIN
000056H   000057H   000002H   BYTE   UNIT     DATA           ?DT?HAL_W2_ISR
000058H   000058H   000001H   BYTE   UNIT     IDATA          ?STACK

LX51 LINKER/LOCATER V4.66.62.0                                                        11/14/2016  15:21:25  PAGE 2


* * * * * * * * * * *   C O D E   M E M O R Y   * * * * * * * * * * * * *
000000H   000002H   000003H   ---    OFFS..   CODE           ?CO??C_STARTUP?0
000003H   00000AH   000008H   BYTE   UNIT     CODE           ?PR?_SETXACCELOFFSET?MAIN
00000BH   00000DH   000003H   BYTE   OFFS..   CODE           ?MAIN?0000B
00000EH   000048H   00003BH   BYTE   UNIT     CODE           ?PR?I2C_IRQ?MAIN
000049H   00004AH   000002H   ---    ---      **GAP**
00004BH   00004DH   000003H   BYTE   OFFS..   CODE           ?MAIN?0004B
00004EH   000052H   000005H   ---    ---      **GAP**
000053H   000055H   000003H   BYTE   OFFS..   CODE           ?MAIN?00053
000056H   0000FFH   0000AAH   BYTE   UNIT     CODE           ?PR?MAIN?MAIN
000100H   000192H   000093H   BYTE   UNIT     CODE           ?PR?_GETMOTION6_PACKET?MAIN
000193H   00021EH   00008CH   BYTE   UNIT     CODE           ?C_C51STARTUP
00021FH   0002A6H   000088H   BYTE   UNIT     CODE           ?C?LIB_CODE
0002A7H   00032CH   000086H   BYTE   UNIT     CODE           ?PR?RF_IRQ?MAIN
00032DH   00039FH   000073H   BYTE   UNIT     CODE           ?PR?HAL_W2_SOFT_RESET?HAL_W2_ISR
0003A0H   000402H   000063H   BYTE   UNIT     CODE           ?PR?_I2C_MPU_WRITEBITS?HAL_W2_ISR
000403H   00045FH   00005DH   BYTE   UNIT     CODE           ?PR?_I2C_MPU_READBYTES?HAL_W2_ISR
000460H   0004B7H   000058H   BYTE   UNIT     CODE           ?PR?SETUP?MAIN
0004B8H   00050FH   000058H   BYTE   UNIT     CODE           ?PR?_I2C_MPU_READBITS?HAL_W2_ISR
000510H   000565H   000056H   BYTE   UNIT     CODE           ?PR?_I2C_MPU_WRITEWORDS?HAL_W2_ISR
000566H   0005B5H   000050H   BYTE   UNIT     CODE           ?PR?MAIN
0005B6H   000603H   00004EH   BYTE   UNIT     CODE           ?PR?_I2C_MPU_WRITEBIT?HAL_W2_ISR
000604H   00064DH   00004AH   BYTE   UNIT     CODE           ?PR?_ENVIAR_MSG_TO_HOST?MAIN
00064EH   000697H   00004AH   BYTE   UNIT     CODE           ?PR?_ENVIAR_MSG_TO_HOST_HEX?MAIN
000698H   0006DCH   000045H   BYTE   UNIT     CODE           ?PR?RF_INIT?MAIN
0006DDH   00071EH   000042H   BYTE   UNIT     CODE           ?PR?_HAL_W2_READ?HAL_W2_ISR
00071FH   000758H   00003AH   BYTE   UNIT     CODE           ?PR?_I2C_MPU_WRITEBYTES?HAL_W2_ISR
000759H   000790H   000038H   BYTE   UNIT     CODE           ?PR?_HAL_W2_WRITE?HAL_W2_ISR
000791H   0007C6H   000036H   BYTE   UNIT     CODE           ?PR?ENVIAR_MOTION6?MAIN
0007C7H   0007F9H   000033H   BYTE   UNIT     CODE           ?PR?MPU_INITIALIZE?MAIN
0007FAH   000825H   00002CH   BYTE   UNIT     CODE           ?PR?_TX_MODE_NOACK?MAIN
000826H   000850H   00002BH   BYTE   UNIT     CODE           ?PR?_SPI_READ_BUF?MAIN
000851H   000879H   000029H   BYTE   UNIT     CODE           ?PR?_GETFIFOBYTES?MAIN
00087AH   0008A0H   000027H   BYTE   UNIT     CODE           ?PR?HAL_W2_WAIT_DATA_READY?HAL_W2_ISR
0008A1H   0008C6H   000026H   BYTE   UNIT     CODE           ?PR?MPU_TESTCONNECTION?MAIN
0008C7H   0008EAH   000024H   BYTE   UNIT     CODE           ?PR?_I2C_MPU_READBIT?HAL_W2_ISR
0008EBH   00090BH   000021H   BYTE   UNIT     CODE           ?PR?_HAL_W2_CONFIGURE_MASTER?HAL_W2_ISR
00090CH   00092AH   00001FH   BYTE   UNIT     CODE           ?PR?_SPI_WRITE_BUF?MAIN
00092BH   000946H   00001CH   BYTE   UNIT     CODE           ?PR?LUZES_INICIAIS?MAIN
000947H   000960H   00001AH   BYTE   UNIT     CODE           ?PR?_DELAY_US?HAL_DELAY
000961H   000978H   000018H   BYTE   UNIT     CODE           ?PR?_SETMEMORYBANK?MAIN
000979H   00098FH   000017H   BYTE   UNIT     CODE           ?PR?GETFIFOCOUNT?MAIN
000990H   0009A3H   000014H   BYTE   UNIT     CODE           ?PR?_DELAY_MS?HAL_DELAY
0009A4H   0009B6H   000013H   BYTE   UNIT     CODE           ?PR?GETINTSTATUS?MAIN
0009B7H   0009C9H   000013H   BYTE   UNIT     CODE           ?PR?_SPI_RW_REG?MAIN
0009CAH   0009DCH   000013H   BYTE   UNIT     CODE           ?PR?_I2C_MPU_WRITEWORD?HAL_W2_ISR
0009DDH   0009EEH   000012H   BYTE   UNIT     CODE           ?PR?INICIARIO?MAIN
0009EFH   000A00H   000012H   BYTE   UNIT     CODE           ?PR?_HAL_W2_INIT_TRANSFER?HAL_W2_ISR
000A01H   000A12H   000012H   BYTE   UNIT     CODE           ?PR?_I2C_MPU_READBYTE?HAL_W2_ISR
000A13H   000A23H   000011H   BYTE   UNIT     CODE           ?PR?RX_MODE?MAIN
000A24H   000A34H   000011H   BYTE   UNIT     CODE           ?C_INITSEG
000A35H   000A45H   000011H   BYTE   UNIT     CODE           ?PR?_I2C_MPU_WRITEBYTE?HAL_W2_ISR
000A46H   000A55H   000010H   BYTE   UNIT     CODE           ?PR?TMR0_IRQ?MAIN
000A56H   000A63H   00000EH   BYTE   UNIT     CODE           ?PR?_HAL_W2_SET_CLK_FREQ?HAL_W2_ISR
000A64H   000A71H   00000EH   BYTE   UNIT     CODE           ?PR?HAL_W2_ISR
000A72H   000A7EH   00000DH   BYTE   UNIT     CODE           ?PR?_SPI_READ?MAIN
000A7FH   000A8AH   00000CH   BYTE   UNIT     CODE           ?PR?RESETFIFO?MAIN
000A8BH   000A96H   00000CH   BYTE   UNIT     CODE           ?PR?INICIARRF?MAIN
000A97H   000AA1H   00000BH   BYTE   UNIT     CODE           ?PR?_SETYGYROOFFSET?MAIN
000AA2H   000AACH   00000BH   BYTE   UNIT     CODE           ?PR?_SETZGYROOFFSET?MAIN
000AADH   000AB7H   00000BH   BYTE   UNIT     CODE           ?PR?_SETDMPENABLED?MAIN
000AB8H   000AC2H   00000BH   BYTE   UNIT     CODE           ?PR?_HAL_W2_RESPOND_TO_GEN_ADR?HAL_W2_ISR
000AC3H   000ACDH   00000BH   BYTE   UNIT     CODE           ?PR?_HAL_W2_ALTER_CLOCK?HAL_W2_ISR
000ACEH   000AD8H   00000BH   BYTE   UNIT     CODE           ?PR?_HAL_W2_IRQ_STOP_COND_ENABLE?HAL_W2_ISR
000AD9H   000AE3H   00000BH   BYTE   UNIT     CODE           ?PR?_HAL_W2_IRQ_ADR_MATCH_ENABLE?HAL_W2_ISR
LX51 LINKER/LOCATER V4.66.62.0                                                        11/14/2016  15:21:25  PAGE 3


000AE4H   000AEEH   00000BH   BYTE   UNIT     CODE           ?PR?_HAL_W2_SET_OP_MODE?HAL_W2_ISR
000AEFH   000AF9H   00000BH   BYTE   UNIT     CODE           ?PR?_HAL_W2_ENABLE?HAL_W2_ISR
000AFAH   000B04H   00000BH   BYTE   UNIT     CODE           ?PR?_HAL_W2_ALL_IRQ_ENABLE?HAL_W2_ISR
000B05H   000B0EH   00000AH   BYTE   UNIT     CODE           ?PR?START_T0?MAIN
000B0FH   000B18H   00000AH   BYTE   UNIT     CODE           ?PR?STOP_T0?MAIN
000B19H   000B22H   00000AH   BYTE   UNIT     CODE           ?PR?_SPI_RW?MAIN
000B23H   000B2CH   00000AH   BYTE   UNIT     CODE           ?PR?HAL_W2_WAIT_DATA_READY_ISR?HAL_W2_ISR
000B2DH   000B36H   00000AH   BYTE   UNIT     CODE           ?PR?I2C_IRQ_HANDLER?HAL_W2_ISR
000B37H   000B3FH   000009H   BYTE   UNIT     CODE           ?PR?DMPGETFIFOPACKETSIZE?MAIN
000B40H   000B47H   000008H   BYTE   UNIT     CODE           ?PR?_SETYACCELOFFSET?MAIN
000B48H   000B4FH   000008H   BYTE   UNIT     CODE           ?PR?_SETZACCELOFFSET?MAIN
000B50H   000B57H   000008H   BYTE   UNIT     CODE           ?PR?_SETXGYROOFFSET?MAIN
000B58H   000B5DH   000006H   BYTE   UNIT     CODE           ?PR?_HAL_W2_SET_SLAVE_ADDRESS?HAL_W2_ISR
000B5EH   000BADH   000050H   BYTE   UNIT     CONST          ?CO?MAIN

* * * * * * * * * * *  X D A T A   M E M O R Y  * * * * * * * * * * * * *
000000H   00005BH   00005CH   BYTE   UNIT     XDATA          ?XD?MAIN



OVERLAY MAP OF MODULE:   FProject (?C_STARTUP)


FUNCTION/MODULE                               BIT_GROUP   DATA_GROUP 
--> CALLED FUNCTION/MODULE                   START  STOP  START  STOP
=====================================================================
?C_C51STARTUP                                ----- -----  ----- -----
  +--> MAIN/MAIN
  +--> ?C_INITSEG

MAIN/MAIN                                    ----- -----  ----- -----
  +--> SETUP/MAIN
  +--> _TX_MODE_NOACK/MAIN
  +--> RX_MODE/MAIN
  +--> STOP_T0/MAIN
  +--> _DELAY_MS/HAL_DELAY
  +--> _GETMOTION6_PACKET/MAIN
  +--> ENVIAR_MOTION6/MAIN
  +--> ?CO?MAIN
  +--> _ENVIAR_MSG_TO_HOST/MAIN
  +--> START_T0/MAIN

SETUP/MAIN                                   ----- -----  ----- -----
  +--> INICIARIO/MAIN
  +--> INICIARRF/MAIN
  +--> _HAL_W2_CONFIGURE_MASTER/HAL_W2_ISR
  +--> LUZES_INICIAIS/MAIN
  +--> ?CO?MAIN
  +--> _ENVIAR_MSG_TO_HOST/MAIN
  +--> MPU_INITIALIZE/MAIN
  +--> _SETXACCELOFFSET/MAIN
  +--> _SETYACCELOFFSET/MAIN
  +--> _SETZACCELOFFSET/MAIN
  +--> _SETXGYROOFFSET/MAIN
  +--> _SETYGYROOFFSET/MAIN
  +--> _SETZGYROOFFSET/MAIN

INICIARIO/MAIN                               ----- -----  ----- -----

INICIARRF/MAIN                               ----- -----  ----- -----
  +--> RF_INIT/MAIN
  +--> RX_MODE/MAIN

RF_INIT/MAIN                                 ----- -----  ----- -----
  +--> MAIN
LX51 LINKER/LOCATER V4.66.62.0                                                        11/14/2016  15:21:25  PAGE 4


  +--> _SPI_WRITE_BUF/MAIN
  +--> _SPI_RW_REG/MAIN

MAIN                                         ----- -----  ----- -----
  +--> _SPI_RW/MAIN

_SPI_RW/MAIN                                 ----- -----  ----- -----

_SPI_WRITE_BUF/MAIN                          ----- -----  0029H 002DH
  +--> MAIN
  +--> _SPI_RW/MAIN

_SPI_RW_REG/MAIN                             ----- -----  ----- -----
  +--> _SPI_RW/MAIN

RX_MODE/MAIN                                 ----- -----  ----- -----
  +--> _SPI_RW_REG/MAIN

_HAL_W2_CONFIGURE_MASTER/HAL_W2_ISR          ----- -----  ----- -----
  +--> _HAL_W2_ENABLE/HAL_W2_ISR
  +--> _HAL_W2_SET_CLK_FREQ/HAL_W2_ISR
  +--> _HAL_W2_SET_OP_MODE/HAL_W2_ISR
  +--> _HAL_W2_ALL_IRQ_ENABLE/HAL_W2_ISR

_HAL_W2_ENABLE/HAL_W2_ISR                    ----- -----  ----- -----

_HAL_W2_SET_CLK_FREQ/HAL_W2_ISR              ----- -----  ----- -----

_HAL_W2_SET_OP_MODE/HAL_W2_ISR               ----- -----  ----- -----

_HAL_W2_ALL_IRQ_ENABLE/HAL_W2_ISR            ----- -----  ----- -----

LUZES_INICIAIS/MAIN                          ----- -----  ----- -----
  +--> _DELAY_MS/HAL_DELAY

_DELAY_MS/HAL_DELAY                          ----- -----  ----- -----
  +--> _DELAY_US/HAL_DELAY

_DELAY_US/HAL_DELAY                          ----- -----  ----- -----

?CO?MAIN                                     ----- -----  ----- -----

_ENVIAR_MSG_TO_HOST/MAIN                     ----- -----  0022H 0026H
  +--> MAIN
  +--> _TX_MODE_NOACK/MAIN
  +--> RX_MODE/MAIN
  +--> _DELAY_MS/HAL_DELAY

_TX_MODE_NOACK/MAIN                          ----- -----  0027H 0028H
  +--> _SPI_RW_REG/MAIN
  +--> MAIN
  +--> _SPI_WRITE_BUF/MAIN

MPU_INITIALIZE/MAIN                          ----- -----  ----- -----
  +--> _I2C_MPU_WRITEBITS/HAL_W2_ISR
  +--> _I2C_MPU_WRITEBIT/HAL_W2_ISR

_I2C_MPU_WRITEBITS/HAL_W2_ISR                ----- -----  0022H 0028H
  +--> _I2C_MPU_READBYTE/HAL_W2_ISR
  +--> _I2C_MPU_WRITEBYTE/HAL_W2_ISR

_I2C_MPU_READBYTE/HAL_W2_ISR                 ----- -----  0029H 002BH
  +--> _I2C_MPU_READBYTES/HAL_W2_ISR

_I2C_MPU_READBYTES/HAL_W2_ISR                ----- -----  002CH 0033H
LX51 LINKER/LOCATER V4.66.62.0                                                        11/14/2016  15:21:25  PAGE 5


  +--> _HAL_W2_INIT_TRANSFER/HAL_W2_ISR
  +--> HAL_W2_WAIT_DATA_READY_ISR/HAL_W2_ISR
  +--> HAL_W2_SOFT_RESET/HAL_W2_ISR
  +--> HAL_W2_ISR

_HAL_W2_INIT_TRANSFER/HAL_W2_ISR             ----- -----  ----- -----
  +--> HAL_W2_ISR

HAL_W2_ISR                                   ----- -----  ----- -----
  +--> HAL_W2_WAIT_DATA_READY_ISR/HAL_W2_ISR

HAL_W2_WAIT_DATA_READY_ISR/HAL_W2_ISR        ----- -----  ----- -----

HAL_W2_SOFT_RESET/HAL_W2_ISR                 ----- -----  0034H 0035H
  +--> _DELAY_US/HAL_DELAY

_I2C_MPU_WRITEBYTE/HAL_W2_ISR                ----- -----  0029H 0029H
  +--> _I2C_MPU_WRITEBYTES/HAL_W2_ISR

_I2C_MPU_WRITEBYTES/HAL_W2_ISR               ----- -----  002AH 002FH
  +--> _HAL_W2_INIT_TRANSFER/HAL_W2_ISR
  +--> HAL_W2_WAIT_DATA_READY_ISR/HAL_W2_ISR
  +--> HAL_W2_ISR

_I2C_MPU_WRITEBIT/HAL_W2_ISR                 ----- -----  0022H 0026H
  +--> _I2C_MPU_READBYTE/HAL_W2_ISR
  +--> _I2C_MPU_WRITEBYTE/HAL_W2_ISR

_SETXACCELOFFSET/MAIN                        ----- -----  ----- -----
  +--> MAIN
  +--> _I2C_MPU_WRITEWORD/HAL_W2_ISR

_I2C_MPU_WRITEWORD/HAL_W2_ISR                ----- -----  0022H 0023H
  +--> _I2C_MPU_WRITEWORDS/HAL_W2_ISR

_I2C_MPU_WRITEWORDS/HAL_W2_ISR               ----- -----  0024H 0029H
  +--> _HAL_W2_INIT_TRANSFER/HAL_W2_ISR
  +--> HAL_W2_WAIT_DATA_READY_ISR/HAL_W2_ISR
  +--> HAL_W2_ISR

_SETYACCELOFFSET/MAIN                        ----- -----  ----- -----
  +--> MAIN
  +--> _I2C_MPU_WRITEWORD/HAL_W2_ISR

_SETZACCELOFFSET/MAIN                        ----- -----  ----- -----
  +--> MAIN
  +--> _I2C_MPU_WRITEWORD/HAL_W2_ISR

_SETXGYROOFFSET/MAIN                         ----- -----  ----- -----
  +--> MAIN
  +--> _I2C_MPU_WRITEWORD/HAL_W2_ISR

_SETYGYROOFFSET/MAIN                         ----- -----  ----- -----
  +--> _I2C_MPU_WRITEWORD/HAL_W2_ISR

_SETZGYROOFFSET/MAIN                         ----- -----  ----- -----
  +--> _I2C_MPU_WRITEWORD/HAL_W2_ISR

STOP_T0/MAIN                                 ----- -----  ----- -----
  +--> MAIN

_GETMOTION6_PACKET/MAIN                      ----- -----  0022H 0024H
  +--> MAIN
  +--> _I2C_MPU_READBYTES/HAL_W2_ISR

LX51 LINKER/LOCATER V4.66.62.0                                                        11/14/2016  15:21:25  PAGE 6


ENVIAR_MOTION6/MAIN                          ----- -----  ----- -----
  +--> _TX_MODE_NOACK/MAIN
  +--> RX_MODE/MAIN

START_T0/MAIN                                ----- -----  ----- -----
  +--> MAIN

?C_INITSEG                                   ----- -----  ----- -----

*** NEW ROOT *******************************

TMR0_IRQ/MAIN                                ----- -----  ----- -----
  +--> MAIN

*** NEW ROOT *******************************

RF_IRQ/MAIN                                  ----- -----  ----- -----
  +--> _SPI_READ/MAIN
  +--> _SPI_READ_BUF/MAIN
  +--> _SPI_RW_REG/MAIN

_SPI_READ/MAIN                               ----- -----  ----- -----
  +--> _SPI_RW/MAIN

_SPI_READ_BUF/MAIN                           ----- -----  0036H 003AH
  +--> MAIN
  +--> _SPI_RW/MAIN

*** NEW ROOT *******************************

I2C_IRQ/MAIN                                 ----- -----  ----- -----
  +--> I2C_IRQ_HANDLER/HAL_W2_ISR

I2C_IRQ_HANDLER/HAL_W2_ISR                   ----- -----  ----- -----



PUBLIC SYMBOLS OF MODULE:  FProject (?C_STARTUP)


      VALUE       CLASS    TYPE      PUBLIC SYMBOL NAME
      =================================================
      00000048H   DATA     BYTE      ?_hal_w2_read?BYTE
      00000042H   DATA     BYTE      ?_hal_w2_write?BYTE
      0000003BH   DATA     BYTE      ?_i2c_mpu_readBit?BYTE
      00000008H   DATA     BYTE      ?_i2c_mpu_readBits?BYTE
      0000002CH   DATA     BYTE      ?_i2c_mpu_readBytes?BYTE
      00000022H   DATA     BYTE      ?_i2c_mpu_writeBit?BYTE
      00000022H   DATA     BYTE      ?_i2c_mpu_writeBits?BYTE
      0000002AH   DATA     BYTE      ?_i2c_mpu_writeBytes?BYTE
      00000024H   DATA     BYTE      ?_i2c_mpu_writeWords?BYTE
      00000036H   DATA     BYTE      ?_SPI_Read_Buf?BYTE
      00000029H   DATA     BYTE      ?_SPI_Write_Buf?BYTE
      0100021FH   CODE     ---       ?C?CLDPTR
      00000000H   NUMBER   ---       ?C?CODESEG
      0100024AH   CODE     ---       ?C?CSTOPTR
      01000238H   CODE     ---       ?C?CSTPTR
      0100026CH   CODE     ---       ?C?ILDPTR
      01000297H   CODE     ---       ?C?PLDIIDATA
      00000000H   NUMBER   ---       ?C?XDATASEG
      010001DAH   CODE     ---       ?C_START
      01000000H   CODE     ---       ?C_STARTUP
      01000990H   CODE     ---       _delay_ms
      01000952H   CODE     ---       _delay_us
      01000604H   CODE     ---       _enviar_msg_to_host
LX51 LINKER/LOCATER V4.66.62.0                                                        11/14/2016  15:21:25  PAGE 7


      0100064EH   CODE     ---       _enviar_msg_to_host_hex
      01000851H   CODE     ---       _getFIFOBytes
      01000100H   CODE     ---       _getMotion6_packet
      01000AFAH   CODE     ---       _hal_w2_all_irq_enable
      01000AC3H   CODE     ---       _hal_w2_alter_clock
      010008EBH   CODE     ---       _hal_w2_configure_master
      01000AEFH   CODE     ---       _hal_w2_enable
      010009EFH   CODE     ---       _hal_w2_init_transfer
      01000AD9H   CODE     ---       _hal_w2_irq_adr_match_enable
      01000ACEH   CODE     ---       _hal_w2_irq_stop_cond_enable
      010006DDH   CODE     ---       _hal_w2_read
      01000AB8H   CODE     ---       _hal_w2_respond_to_gen_adr
      01000A56H   CODE     ---       _hal_w2_set_clk_freq
      01000AE4H   CODE     ---       _hal_w2_set_op_mode
      01000B58H   CODE     ---       _hal_w2_set_slave_address
      01000759H   CODE     ---       _hal_w2_write
      010008C7H   CODE     ---       _i2c_mpu_readBit
      010004B8H   CODE     ---       _i2c_mpu_readBits
      01000A01H   CODE     ---       _i2c_mpu_readByte
      01000403H   CODE     ---       _i2c_mpu_readBytes
      010005B6H   CODE     ---       _i2c_mpu_writeBit
      010003A0H   CODE     ---       _i2c_mpu_writeBits
      01000A35H   CODE     ---       _i2c_mpu_writeByte
      0100071FH   CODE     ---       _i2c_mpu_writeBytes
      010009CAH   CODE     ---       _i2c_mpu_writeWord
      01000510H   CODE     ---       _i2c_mpu_writeWords
      01000AADH   CODE     ---       _setDMPEnabled
      01000961H   CODE     ---       _setMemoryBank
      01000003H   CODE     ---       _setXAccelOffset
      01000B50H   CODE     ---       _setXGyroOffset
      01000B40H   CODE     ---       _setYAccelOffset
      01000A97H   CODE     ---       _setYGyroOffset
      01000B48H   CODE     ---       _setZAccelOffset
      01000AA2H   CODE     ---       _setZGyroOffset
      01000A72H   CODE     ---       _SPI_Read
      01000826H   CODE     ---       _SPI_Read_Buf
      01000B19H   CODE     ---       _SPI_RW
      010009B7H   CODE     ---       _SPI_RW_Reg
      0100090CH   CODE     ---       _SPI_Write_Buf
      010007FAH   CODE     ---       _TX_Mode_NOACK
*SFR* 000000D0H.6 DATA     BIT       AC
*SFR* 000000E0H   DATA     BYTE      ACC
*SFR* 000000D3H   DATA     BYTE      ADCCON1
*SFR* 000000D2H   DATA     BYTE      ADCCON2
*SFR* 000000D1H   DATA     BYTE      ADCCON3
*SFR* 000000D4H   DATA     BYTE      ADCDATH
*SFR* 000000D5H   DATA     BYTE      ADCDATL
*SFR* 000000D8H   DATA     BYTE      ADCON
      00000013H   DATA     ---       ADDR_HOST
*SFR* 000000EFH   DATA     BYTE      ARCON
*SFR* 000000F0H   DATA     BYTE      B
*SFR* 000000D8H.7 DATA     BIT       BD
      0200004EH   XDATA    ---       buffer
*SFR* 000000C2H   DATA     WORD      CC1
*SFR* 000000C4H   DATA     WORD      CC2
*SFR* 000000C6H   DATA     WORD      CC3
*SFR* 000000C1H   DATA     BYTE      CCEN
*SFR* 000000C3H   DATA     BYTE      CCH1
*SFR* 000000C5H   DATA     BYTE      CCH2
*SFR* 000000C7H   DATA     BYTE      CCH3
*SFR* 000000C2H   DATA     BYTE      CCL1
*SFR* 000000C4H   DATA     BYTE      CCL2
*SFR* 000000C6H   DATA     BYTE      CCL3
*SFR* 000000DDH   DATA     BYTE      CCPDATIA
*SFR* 000000DEH   DATA     BYTE      CCPDATIB
LX51 LINKER/LOCATER V4.66.62.0                                                        11/14/2016  15:21:25  PAGE 8


*SFR* 000000DFH   DATA     BYTE      CCPDATO
*SFR* 000000A3H   DATA     BYTE      CLKCTRL
*SFR* 000000ADH   DATA     BYTE      CLKLFCTRL
*SFR* 000000DBH   DATA     BYTE      COMPCON
*SFR* 000000CAH   DATA     WORD      CRC
*SFR* 000000CBH   DATA     BYTE      CRCH
*SFR* 000000CAH   DATA     BYTE      CRCL
*SFR* 000000D0H.7 DATA     BIT       CY
      00000056H   DATA     BYTE      data_ready
      01000B37H   CODE     ---       dmpGetFIFOPacketSize
      0200004CH   XDATA    WORD      dmpPacketSize
*SFR* 00000083H   DATA     BYTE      DPH
*SFR* 00000085H   DATA     BYTE      DPH1
*SFR* 00000082H   DATA     BYTE      DPL
*SFR* 00000084H   DATA     BYTE      DPL1
*SFR* 00000092H   DATA     BYTE      DPS
*SFR* 000000A8H.7 DATA     BIT       EA
      01000791H   CODE     ---       enviar_motion6
*SFR* 000000A8H.4 DATA     BIT       ES0
*SFR* 000000A8H.1 DATA     BIT       ET0
*SFR* 000000A8H.3 DATA     BIT       ET1
*SFR* 000000A8H.5 DATA     BIT       ET2
*SFR* 000000A8H   DATA     BIT       EX0
*SFR* 000000A8H.2 DATA     BIT       EX1
*SFR* 000000B8H.7 DATA     BIT       EXEN2
*SFR* 000000C0H.7 DATA     BIT       EXF2
*SFR* 000000D0H.5 DATA     BIT       F0
*SFR* 000000FAH   DATA     BYTE      FCR
*SFR* 000000FBH   DATA     BYTE      FDCR
*SFR* 000000F9H   DATA     BYTE      FPCR
*SFR* 000000F8H   DATA     BYTE      FSR
      01000979H   CODE     ---       getFIFOCount
      010009A4H   CODE     ---       getIntStatus
      0100032DH   CODE     ---       hal_w2_soft_reset
      0100087AH   CODE     ---       hal_w2_wait_data_ready
      01000B23H   CODE     ---       hal_w2_wait_data_ready_ISR
      0100000EH   CODE     ---       I2C_IRQ
      01000B2DH   CODE     ---       I2C_IRQ_handler
*SFR* 000000C8H.5 DATA     BIT       I2FR
*SFR* 000000C8H.6 DATA     BIT       I3FR
*SFR* 00000088H.1 DATA     BIT       IE0
*SFR* 00000088H.3 DATA     BIT       IE1
*SFR* 000000A8H   DATA     BYTE      IEN0
*SFR* 000000B8H   DATA     BYTE      IEN1
*SFR* 000000F8H.3 DATA     BIT       INFEN
      010009DDH   CODE     ---       iniciarIO
      01000A8BH   CODE     ---       iniciarRF
*SFR* 000000A6H   DATA     BYTE      INTEXP
*SFR* 000000A9H   DATA     BYTE      IP0
*SFR* 000000B9H   DATA     BYTE      IP1
*SFR* 000000C0H   DATA     BYTE      IRCON
*SFR* 00000088H   DATA     BIT       IT0
*SFR* 00000088H.2 DATA     BIT       IT1
*SFR* 00000080H.3 DATA     BIT       LEDVM
      0100092BH   CODE     ---       luzes_iniciais
      01000056H   CODE     ---       main
      00000020H.4 DATA     BIT       MAX_RT
*SFR* 000000F8H.7 DATA     BIT       MCDIS
*SFR* 000000E9H   DATA     BYTE      MD0
*SFR* 000000EAH   DATA     BYTE      MD1
*SFR* 000000EBH   DATA     BYTE      MD2
*SFR* 000000ECH   DATA     BYTE      MD3
*SFR* 000000EDH   DATA     BYTE      MD4
*SFR* 000000EEH   DATA     BYTE      MD5
*SFR* 000000A7H   DATA     BYTE      MEMCON
LX51 LINKER/LOCATER V4.66.62.0                                                        11/14/2016  15:21:25  PAGE 9


*SFR* 000000B8H.4 DATA     BIT       MISC
*SFR* 000000C0H.4 DATA     BIT       MISCF
*SFR* 000000C9H   DATA     BYTE      MPAGE
      010007C7H   CODE     ---       mpu_initialize
      010008A1H   CODE     ---       mpu_testConnection
      00000021H.0 BIT      BIT       newPayload
*SFR* 000000AEH   DATA     BYTE      OPMCON
*SFR* 000000D0H.2 DATA     BIT       OV
*SFR* 000000D0H   DATA     BIT       P
*SFR* 00000080H   DATA     BYTE      P0
*SFR* 00000080H   DATA     BIT       P00
*SFR* 00000080H.1 DATA     BIT       P01
*SFR* 00000080H.2 DATA     BIT       P02
*SFR* 00000080H.3 DATA     BIT       P03
*SFR* 00000080H.4 DATA     BIT       P04
*SFR* 00000080H.5 DATA     BIT       P05
*SFR* 00000080H.6 DATA     BIT       P06
*SFR* 00000080H.7 DATA     BIT       P07
*SFR* 0000009EH   DATA     BYTE      P0CON
*SFR* 00000093H   DATA     BYTE      P0DIR
*SFR* 00000090H   DATA     BYTE      P1
*SFR* 00000090H   DATA     BIT       P10
*SFR* 00000090H.1 DATA     BIT       P11
*SFR* 00000090H.2 DATA     BIT       P12
*SFR* 00000090H.3 DATA     BIT       P13
*SFR* 00000090H.4 DATA     BIT       P14
*SFR* 00000090H.5 DATA     BIT       P15
*SFR* 00000090H.6 DATA     BIT       P16
*SFR* 00000090H.7 DATA     BIT       P17
*SFR* 0000009FH   DATA     BYTE      P1CON
*SFR* 00000094H   DATA     BYTE      P1DIR
*SFR* 000000A0H   DATA     BYTE      P2
*SFR* 000000A0H   DATA     BIT       P20
*SFR* 000000A0H.1 DATA     BIT       P21
*SFR* 000000A0H.2 DATA     BIT       P22
*SFR* 000000A0H.3 DATA     BIT       P23
*SFR* 000000A0H.4 DATA     BIT       P24
*SFR* 000000A0H.5 DATA     BIT       P25
*SFR* 000000A0H.6 DATA     BIT       P26
*SFR* 000000A0H.7 DATA     BIT       P27
*SFR* 00000097H   DATA     BYTE      P2CON
*SFR* 00000095H   DATA     BYTE      P2DIR
*SFR* 000000B0H   DATA     BYTE      P3
*SFR* 000000B0H   DATA     BIT       P30
*SFR* 000000B0H.1 DATA     BIT       P31
*SFR* 000000B0H.2 DATA     BIT       P32
*SFR* 000000B0H.3 DATA     BIT       P33
*SFR* 000000B0H.4 DATA     BIT       P34
*SFR* 000000B0H.5 DATA     BIT       P35
*SFR* 000000B0H.6 DATA     BIT       P36
*SFR* 000000B0H.7 DATA     BIT       P37
*SFR* 0000008FH   DATA     BYTE      P3CON
*SFR* 00000096H   DATA     BYTE      P3DIR
      02000040H   XDATA    ---       packet_motion6
      00000018H   DATA     BYTE      payloadWidth
*SFR* 00000087H   DATA     BYTE      PCON
*SFR* 000000DCH   DATA     BYTE      POFCON
*SFR* 000000D0H   DATA     BYTE      PSW
*SFR* 000000B2H   DATA     BYTE      PWMCON
*SFR* 000000A1H   DATA     BYTE      PWMDC0
*SFR* 000000A2H   DATA     BYTE      PWMDC1
*SFR* 000000A4H   DATA     BYTE      PWRDWN
*SFR* 00000098H.2 DATA     BIT       RB80
*SFR* 000000F8H.1 DATA     BIT       RDEND
*SFR* 000000F8H.2 DATA     BIT       RDIS
LX51 LINKER/LOCATER V4.66.62.0                                                        11/14/2016  15:21:25  PAGE 10


*SFR* 000000F8H.4 DATA     BIT       RDYN
*SFR* 00000098H.4 DATA     BIT       REN0
      01000A7FH   CODE     ---       resetFIFO
*SFR* 000000B8H.1 DATA     BIT       RF
      01000698H   CODE     ---       rf_init
      010002A7H   CODE     ---       RF_IRQ
*SFR* 000000E8H   DATA     BIT       RFCE
*SFR* 000000E8H.2 DATA     BIT       RFCKEN
*SFR* 000000E8H   DATA     BYTE      RFCON
*SFR* 000000E8H.1 DATA     BIT       RFCSN
*SFR* 000000C0H.1 DATA     BIT       RFF
*SFR* 000000B8H   DATA     BIT       RFSPI
*SFR* 000000C0H   DATA     BIT       RFSPIF
*SFR* 00000098H   DATA     BIT       RI0
*SFR* 000000D6H   DATA     BYTE      RNGCTL
*SFR* 000000D7H   DATA     BYTE      RNGDAT
*SFR* 000000D0H.3 DATA     BIT       RS0
*SFR* 000000D0H.4 DATA     BIT       RS1
*SFR* 000000B1H   DATA     BYTE      RSTREAS
*SFR* 000000B4H   DATA     BYTE      RTC2CMP0
*SFR* 000000B5H   DATA     BYTE      RTC2CMP1
*SFR* 000000B3H   DATA     BYTE      RTC2CON
*SFR* 000000B6H   DATA     BYTE      RTC2CPT00
*SFR* 000000ABH   DATA     BYTE      RTC2CPT01
*SFR* 000000ACH   DATA     BYTE      RTC2CPT10
      02000000H   XDATA    ---       rx_buf
      00000020H.6 DATA     BIT       RX_DR
      01000A13H   CODE     ---       RX_Mode
*SFR* 00000099H   DATA     BYTE      S0BUF
*SFR* 00000098H   DATA     BYTE      S0CON
*SFR* 000000BAH   DATA     BYTE      S0RELH
*SFR* 000000AAH   DATA     BYTE      S0RELL
*SFR* 00000080H.2 DATA     BIT       S1
*SFR* 00000090H.4 DATA     BIT       S2
      01000460H   CODE     ---       setup
*SFR* 00000098H.7 DATA     BIT       SM0
*SFR* 00000098H.6 DATA     BIT       SM1
*SFR* 00000098H.5 DATA     BIT       SM20
*SFR* 00000081H   DATA     BYTE      SP
*SFR* 000000B8H.2 DATA     BIT       SPI
*SFR* 000000C0H.2 DATA     BIT       SPIF
*SFR* 000000FCH   DATA     BYTE      SPIMCON0
*SFR* 000000FDH   DATA     BYTE      SPIMCON1
*SFR* 000000FFH   DATA     BYTE      SPIMDAT
*SFR* 000000FEH   DATA     BYTE      SPIMSTAT
*SFR* 000000E4H   DATA     BYTE      SPIRCON0
*SFR* 000000E5H   DATA     BYTE      SPIRCON1
*SFR* 000000E7H   DATA     BYTE      SPIRDAT
*SFR* 000000E6H   DATA     BYTE      SPIRSTAT
*SFR* 000000BCH   DATA     BYTE      SPISCON0
*SFR* 000000BDH   DATA     BYTE      SPISCON1
*SFR* 000000BFH   DATA     BYTE      SPISDAT
*SFR* 000000B7H   DATA     BYTE      SPISRDSZ
*SFR* 000000BEH   DATA     BYTE      SPISSTAT
      00000020H   DATA     BYTE      sta
      01000B05H   CODE     ---       start_T0
      01000B0FH   CODE     ---       stop_T0
*SFR* 000000F8H.6 DATA     BIT       STP
*SFR* 000000CCH   DATA     WORD      T2
*SFR* 000000C8H.2 DATA     BIT       T2CM
*SFR* 000000C8H   DATA     BYTE      T2CON
*SFR* 000000C8H   DATA     BIT       T2I0
*SFR* 000000C8H.1 DATA     BIT       T2I1
*SFR* 000000C8H.7 DATA     BIT       T2PS
*SFR* 000000C8H.3 DATA     BIT       T2R0
LX51 LINKER/LOCATER V4.66.62.0                                                        11/14/2016  15:21:25  PAGE 11


*SFR* 000000C8H.4 DATA     BIT       T2R1
*SFR* 00000098H.3 DATA     BIT       TB80
*SFR* 00000088H   DATA     BYTE      TCON
*SFR* 00000088H.5 DATA     BIT       TF0
*SFR* 00000088H.7 DATA     BIT       TF1
*SFR* 000000C0H.6 DATA     BIT       TF2
*SFR* 0000008CH   DATA     BYTE      TH0
*SFR* 0000008DH   DATA     BYTE      TH1
*SFR* 000000CDH   DATA     BYTE      TH2
*SFR* 00000098H.1 DATA     BIT       TI0
      00000011H   DATA     INT       timer_flag
*SFR* 0000008AH   DATA     BYTE      TL0
*SFR* 0000008BH   DATA     BYTE      TL1
*SFR* 000000CCH   DATA     BYTE      TL2
*SFR* 00000089H   DATA     BYTE      TMOD
      01000A46H   CODE     ---       TMR0_IRQ
*SFR* 00000088H.4 DATA     BIT       TR0
*SFR* 00000088H.6 DATA     BIT       TR1
      02000020H   XDATA    ---       tx_buf
      00000020H.5 DATA     BIT       TX_DS
      00000057H   DATA     BYTE      w2_status
*SFR* 000000E2H   DATA     BYTE      W2CON0
*SFR* 000000E1H   DATA     BYTE      W2CON1
*SFR* 000000DAH   DATA     BYTE      W2DAT
*SFR* 000000D9H   DATA     BYTE      W2SADR
*SFR* 000000AFH   DATA     BYTE      WDSV
*SFR* 000000F8H.5 DATA     BIT       WEN
*SFR* 000000F8H   DATA     BIT       WPEN
*SFR* 000000A5H   DATA     BYTE      WUCON
*SFR* 000000C0H.5 DATA     BIT       WUF
*SFR* 000000B8H.5 DATA     BIT       WUIRQ
*SFR* 000000CFH   DATA     BYTE      WUOPC0
*SFR* 000000CEH   DATA     BYTE      WUOPC1
*SFR* 000000B8H.3 DATA     BIT       WUPIN
*SFR* 000000C0H.3 DATA     BIT       WUPINF



SYMBOL TABLE OF MODULE:  FProject (?C_STARTUP)

      VALUE       REP       CLASS    TYPE      SYMBOL NAME
      ====================================================
      ---         MODULE    ---      ---       ?C_STARTUP
      01000000H   PUBLIC    CODE     ---       ?C_STARTUP
      000000E0H   SYMBOL    DATA     ---       ACC
      000000F0H   SYMBOL    DATA     ---       B
      00000083H   SYMBOL    DATA     ---       DPH
      00000082H   SYMBOL    DATA     ---       DPL
      00000000H   SYMBOL    NUMBER   ---       IBPSTACK
      00000100H   SYMBOL    NUMBER   ---       IBPSTACKTOP
      00000080H   SYMBOL    NUMBER   ---       IDATALEN
      01000196H   SYMBOL    CODE     ---       IDATALOOP
      00000000H   SYMBOL    NUMBER   ---       PBPSTACK
      00000100H   SYMBOL    NUMBER   ---       PBPSTACKTOP
      00000000H   SYMBOL    NUMBER   ---       PDATALEN
      00000000H   SYMBOL    NUMBER   ---       PDATASTART
      00000000H   SYMBOL    NUMBER   ---       PPAGE
      00000000H   SYMBOL    NUMBER   ---       PPAGEENABLE
      000000A0H   SYMBOL    DATA     ---       PPAGE_SFR
      00000081H   SYMBOL    DATA     ---       SP
      01000193H   SYMBOL    CODE     ---       STARTUP1
      00000000H   SYMBOL    NUMBER   ---       XBPSTACK
      00000000H   SYMBOL    NUMBER   ---       XBPSTACKTOP
      00000000H   SYMBOL    NUMBER   ---       XDATALEN
      00000000H   SYMBOL    NUMBER   ---       XDATASTART
LX51 LINKER/LOCATER V4.66.62.0                                                        11/14/2016  15:21:25  PAGE 12


      01000000H   LINE      CODE     ---       #126
      01000193H   LINE      CODE     ---       #133
      01000195H   LINE      CODE     ---       #134
      01000196H   LINE      CODE     ---       #135
      01000197H   LINE      CODE     ---       #136
      01000199H   LINE      CODE     ---       #185
      0100019CH   LINE      CODE     ---       #196

      ---         MODULE    ---      ---       MAIN
      0200004EH   PUBLIC    XDATA    ---       buffer
      00000018H   PUBLIC    DATA     BYTE      payloadWidth
      00000020H.4 PUBLIC    DATA     BIT       MAX_RT
      0200004CH   PUBLIC    XDATA    WORD      dmpPacketSize
      00000013H   PUBLIC    DATA     ---       ADDR_HOST
      02000040H   PUBLIC    XDATA    ---       packet_motion6
      00000020H.5 PUBLIC    DATA     BIT       TX_DS
      00000011H   PUBLIC    DATA     INT       timer_flag
      00000020H.6 PUBLIC    DATA     BIT       RX_DR
      00000020H   PUBLIC    DATA     BYTE      sta
      00000021H.0 PUBLIC    BIT      BIT       newPayload
      02000020H   PUBLIC    XDATA    ---       tx_buf
      02000000H   PUBLIC    XDATA    ---       rx_buf
      0100000EH   PUBLIC    CODE     ---       I2C_IRQ
      0100064EH   PUBLIC    CODE     ---       _enviar_msg_to_host_hex
      01000604H   PUBLIC    CODE     ---       _enviar_msg_to_host
      01000791H   PUBLIC    CODE     ---       enviar_motion6
      0100092BH   PUBLIC    CODE     ---       luzes_iniciais
      01000056H   PUBLIC    CODE     ---       main
      01000460H   PUBLIC    CODE     ---       setup
      010009DDH   PUBLIC    CODE     ---       iniciarIO
      01000A8BH   PUBLIC    CODE     ---       iniciarRF
      01000698H   PUBLIC    CODE     ---       rf_init
      010002A7H   PUBLIC    CODE     ---       RF_IRQ
      010007FAH   PUBLIC    CODE     ---       _TX_Mode_NOACK
      01000A13H   PUBLIC    CODE     ---       RX_Mode
      00000029H   PUBLIC    DATA     BYTE      ?_SPI_Write_Buf?BYTE
      0100090CH   PUBLIC    CODE     ---       _SPI_Write_Buf
      00000036H   PUBLIC    DATA     BYTE      ?_SPI_Read_Buf?BYTE
      01000826H   PUBLIC    CODE     ---       _SPI_Read_Buf
      01000A72H   PUBLIC    CODE     ---       _SPI_Read
      010009B7H   PUBLIC    CODE     ---       _SPI_RW_Reg
      01000B19H   PUBLIC    CODE     ---       _SPI_RW
      01000B0FH   PUBLIC    CODE     ---       stop_T0
      01000B05H   PUBLIC    CODE     ---       start_T0
      01000A46H   PUBLIC    CODE     ---       TMR0_IRQ
      01000851H   PUBLIC    CODE     ---       _getFIFOBytes
      01000B37H   PUBLIC    CODE     ---       dmpGetFIFOPacketSize
      01000A7FH   PUBLIC    CODE     ---       resetFIFO
      01000AADH   PUBLIC    CODE     ---       _setDMPEnabled
      010009A4H   PUBLIC    CODE     ---       getIntStatus
      01000979H   PUBLIC    CODE     ---       getFIFOCount
      01000961H   PUBLIC    CODE     ---       _setMemoryBank
      01000AA2H   PUBLIC    CODE     ---       _setZGyroOffset
      01000A97H   PUBLIC    CODE     ---       _setYGyroOffset
      01000B50H   PUBLIC    CODE     ---       _setXGyroOffset
      01000B48H   PUBLIC    CODE     ---       _setZAccelOffset
      01000B40H   PUBLIC    CODE     ---       _setYAccelOffset
      01000003H   PUBLIC    CODE     ---       _setXAccelOffset
      01000100H   PUBLIC    CODE     ---       _getMotion6_packet
      010008A1H   PUBLIC    CODE     ---       mpu_testConnection
      010007C7H   PUBLIC    CODE     ---       mpu_initialize
      00000098H.3 SFRSYM    DATA     BIT       TB80
      000000BEH   SFRSYM    DATA     BYTE      SPISSTAT
      000000C8H   SFRSYM    DATA     BIT       T2I0
      000000C3H   SFRSYM    DATA     BYTE      CCH1
LX51 LINKER/LOCATER V4.66.62.0                                                        11/14/2016  15:21:25  PAGE 13


      00000080H   SFRSYM    DATA     BYTE      P0
      000000C8H.1 SFRSYM    DATA     BIT       T2I1
      000000DFH   SFRSYM    DATA     BYTE      CCPDATO
      000000C5H   SFRSYM    DATA     BYTE      CCH2
      00000090H   SFRSYM    DATA     BYTE      P1
      000000C7H   SFRSYM    DATA     BYTE      CCH3
      000000A0H   SFRSYM    DATA     BYTE      P2
      00000098H.5 SFRSYM    DATA     BIT       SM20
      000000B0H   SFRSYM    DATA     BYTE      P3
      00000080H.2 SFRSYM    DATA     BIT       S1
      000000D0H.6 SFRSYM    DATA     BIT       AC
      000000C2H   SFRSYM    DATA     BYTE      CCL1
      00000090H.4 SFRSYM    DATA     BIT       S2
      000000C4H   SFRSYM    DATA     BYTE      CCL2
      000000D8H.7 SFRSYM    DATA     BIT       BD
      000000B8H   SFRSYM    DATA     BIT       RFSPI
      000000A8H.7 SFRSYM    DATA     BIT       EA
      000000CCH   SFRSYM    DATA     WORD      T2
      000000C6H   SFRSYM    DATA     BYTE      CCL3
      000000B7H   SFRSYM    DATA     BYTE      SPISRDSZ
      000000C8H.3 SFRSYM    DATA     BIT       T2R0
      000000C8H.4 SFRSYM    DATA     BIT       T2R1
      000000A8H   SFRSYM    DATA     BYTE      IEN0
      000000B8H   SFRSYM    DATA     BYTE      IEN1
      000000A5H   SFRSYM    DATA     BYTE      WUCON
      00000085H   SFRSYM    DATA     BYTE      DPH1
      000000DBH   SFRSYM    DATA     BYTE      COMPCON
      000000A3H   SFRSYM    DATA     BYTE      CLKCTRL
      00000084H   SFRSYM    DATA     BYTE      DPL1
      000000C8H.5 SFRSYM    DATA     BIT       I2FR
      000000B8H.3 SFRSYM    DATA     BIT       WUPIN
      000000C8H.6 SFRSYM    DATA     BIT       I3FR
      000000FFH   SFRSYM    DATA     BYTE      SPIMDAT
      000000C0H.7 SFRSYM    DATA     BIT       EXF2
      00000098H.4 SFRSYM    DATA     BIT       REN0
      000000C8H.2 SFRSYM    DATA     BIT       T2CM
      000000B8H.1 SFRSYM    DATA     BIT       RF
      000000B8H.5 SFRSYM    DATA     BIT       WUIRQ
      000000E7H   SFRSYM    DATA     BYTE      SPIRDAT
      000000C1H   SFRSYM    DATA     BYTE      CCEN
      000000E2H   SFRSYM    DATA     BYTE      W2CON0
      000000BFH   SFRSYM    DATA     BYTE      SPISDAT
      000000D0H.7 SFRSYM    DATA     BIT       CY
      000000E1H   SFRSYM    DATA     BYTE      W2CON1
      000000FBH   SFRSYM    DATA     BYTE      FDCR
      000000E8H   SFRSYM    DATA     BIT       RFCE
      000000CBH   SFRSYM    DATA     BYTE      CRCH
      00000081H   SFRSYM    DATA     BYTE      SP
      000000D0H.2 SFRSYM    DATA     BIT       OV
      000000CAH   SFRSYM    DATA     BYTE      CRCL
      000000ADH   SFRSYM    DATA     BYTE      CLKLFCTRL
      000000B1H   SFRSYM    DATA     BYTE      RSTREAS
      000000C8H.7 SFRSYM    DATA     BIT       T2PS
      000000F9H   SFRSYM    DATA     BYTE      FPCR
      000000B8H.4 SFRSYM    DATA     BIT       MISC
      000000A1H   SFRSYM    DATA     BYTE      PWMDC0
      000000B4H   SFRSYM    DATA     BYTE      RTC2CMP0
      000000A2H   SFRSYM    DATA     BYTE      PWMDC1
      000000B5H   SFRSYM    DATA     BYTE      RTC2CMP1
      00000080H   SFRSYM    DATA     BIT       P00
      000000BAH   SFRSYM    DATA     BYTE      S0RELH
      00000090H   SFRSYM    DATA     BIT       P10
      00000080H.1 SFRSYM    DATA     BIT       P01
      00000087H   SFRSYM    DATA     BYTE      PCON
      000000A0H   SFRSYM    DATA     BIT       P20
LX51 LINKER/LOCATER V4.66.62.0                                                        11/14/2016  15:21:25  PAGE 14


      00000090H.1 SFRSYM    DATA     BIT       P11
      00000080H.2 SFRSYM    DATA     BIT       P02
      000000B0H   SFRSYM    DATA     BIT       P30
      000000A0H.1 SFRSYM    DATA     BIT       P21
      00000090H.2 SFRSYM    DATA     BIT       P12
      00000080H.3 SFRSYM    DATA     BIT       P03
      000000C0H.2 SFRSYM    DATA     BIT       SPIF
      000000F8H.2 SFRSYM    DATA     BIT       RDIS
      000000B0H.1 SFRSYM    DATA     BIT       P31
      000000A0H.2 SFRSYM    DATA     BIT       P22
      00000090H.3 SFRSYM    DATA     BIT       P13
      00000080H.4 SFRSYM    DATA     BIT       P04
      000000AAH   SFRSYM    DATA     BYTE      S0RELL
      000000B0H.2 SFRSYM    DATA     BIT       P32
      000000A0H.3 SFRSYM    DATA     BIT       P23
      00000090H.4 SFRSYM    DATA     BIT       P14
      00000080H.5 SFRSYM    DATA     BIT       P05
      000000D9H   SFRSYM    DATA     BYTE      W2SADR
      00000089H   SFRSYM    DATA     BYTE      TMOD
      00000088H   SFRSYM    DATA     BYTE      TCON
      000000B0H.3 SFRSYM    DATA     BIT       P33
      000000A0H.4 SFRSYM    DATA     BIT       P24
      00000090H.5 SFRSYM    DATA     BIT       P15
      00000080H.6 SFRSYM    DATA     BIT       P06
      000000B0H.4 SFRSYM    DATA     BIT       P34
      000000A0H.5 SFRSYM    DATA     BIT       P25
      00000090H.6 SFRSYM    DATA     BIT       P16
      00000080H.7 SFRSYM    DATA     BIT       P07
      000000C2H   SFRSYM    DATA     WORD      CC1
      000000B0H.5 SFRSYM    DATA     BIT       P35
      000000A0H.6 SFRSYM    DATA     BIT       P26
      00000090H.7 SFRSYM    DATA     BIT       P17
      000000C4H   SFRSYM    DATA     WORD      CC2
      000000B0H.6 SFRSYM    DATA     BIT       P36
      000000A0H.7 SFRSYM    DATA     BIT       P27
      000000C6H   SFRSYM    DATA     WORD      CC3
      000000B0H.7 SFRSYM    DATA     BIT       P37
      000000E8H.2 SFRSYM    DATA     BIT       RFCKEN
      000000F8H   SFRSYM    DATA     BIT       WPEN
      000000DDH   SFRSYM    DATA     BYTE      CCPDATIA
      000000DEH   SFRSYM    DATA     BYTE      CCPDATIB
      00000088H.1 SFRSYM    DATA     BIT       IE0
      000000F8H.4 SFRSYM    DATA     BIT       RDYN
      00000088H.3 SFRSYM    DATA     BIT       IE1
      000000CFH   SFRSYM    DATA     BYTE      WUOPC0
      000000F0H   SFRSYM    DATA     BYTE      B
      000000E9H   SFRSYM    DATA     BYTE      MD0
      000000CEH   SFRSYM    DATA     BYTE      WUOPC1
      000000A7H   SFRSYM    DATA     BYTE      MEMCON
      000000EAH   SFRSYM    DATA     BYTE      MD1
      000000D7H   SFRSYM    DATA     BYTE      RNGDAT
      000000EBH   SFRSYM    DATA     BYTE      MD2
      000000ECH   SFRSYM    DATA     BYTE      MD3
      000000EDH   SFRSYM    DATA     BYTE      MD4
      000000AFH   SFRSYM    DATA     BYTE      WDSV
      000000EEH   SFRSYM    DATA     BYTE      MD5
      000000E0H   SFRSYM    DATA     BYTE      ACC
      000000DCH   SFRSYM    DATA     BYTE      POFCON
      000000A8H.4 SFRSYM    DATA     BIT       ES0
      000000A8H.1 SFRSYM    DATA     BIT       ET0
      000000A9H   SFRSYM    DATA     BYTE      IP0
      000000A8H.3 SFRSYM    DATA     BIT       ET1
      00000088H.5 SFRSYM    DATA     BIT       TF0
      000000B9H   SFRSYM    DATA     BYTE      IP1
      000000A8H.5 SFRSYM    DATA     BIT       ET2
LX51 LINKER/LOCATER V4.66.62.0                                                        11/14/2016  15:21:25  PAGE 15


      00000098H   SFRSYM    DATA     BIT       RI0
      00000088H.7 SFRSYM    DATA     BIT       TF1
      000000C0H   SFRSYM    DATA     BIT       RFSPIF
      000000C0H.6 SFRSYM    DATA     BIT       TF2
      000000FCH   SFRSYM    DATA     BYTE      SPIMCON0
      000000D6H   SFRSYM    DATA     BYTE      RNGCTL
      0000008CH   SFRSYM    DATA     BYTE      TH0
      000000A8H   SFRSYM    DATA     BIT       EX0
      00000098H.1 SFRSYM    DATA     BIT       TI0
      00000088H   SFRSYM    DATA     BIT       IT0
      000000FDH   SFRSYM    DATA     BYTE      SPIMCON1
      0000008DH   SFRSYM    DATA     BYTE      TH1
      000000A8H.2 SFRSYM    DATA     BIT       EX1
      00000088H.2 SFRSYM    DATA     BIT       IT1
      000000CDH   SFRSYM    DATA     BYTE      TH2
      000000AEH   SFRSYM    DATA     BYTE      OPMCON
      000000D0H   SFRSYM    DATA     BIT       P
      00000098H.7 SFRSYM    DATA     BIT       SM0
      0000008AH   SFRSYM    DATA     BYTE      TL0
      00000098H.6 SFRSYM    DATA     BIT       SM1
      000000E4H   SFRSYM    DATA     BYTE      SPIRCON0
      0000008BH   SFRSYM    DATA     BYTE      TL1
      000000E5H   SFRSYM    DATA     BYTE      SPIRCON1
      000000CCH   SFRSYM    DATA     BYTE      TL2
      000000BCH   SFRSYM    DATA     BYTE      SPISCON0
      000000BDH   SFRSYM    DATA     BYTE      SPISCON1
      000000D0H.3 SFRSYM    DATA     BIT       RS0
      00000088H.4 SFRSYM    DATA     BIT       TR0
      000000D0H.4 SFRSYM    DATA     BIT       RS1
      000000B2H   SFRSYM    DATA     BYTE      PWMCON
      00000088H.6 SFRSYM    DATA     BIT       TR1
      000000CAH   SFRSYM    DATA     WORD      CRC
      000000A6H   SFRSYM    DATA     BYTE      INTEXP
      000000C0H.3 SFRSYM    DATA     BIT       WUPINF
      000000FAH   SFRSYM    DATA     BYTE      FCR
      000000D3H   SFRSYM    DATA     BYTE      ADCCON1
      000000D2H   SFRSYM    DATA     BYTE      ADCCON2
      00000083H   SFRSYM    DATA     BYTE      DPH
      000000D1H   SFRSYM    DATA     BYTE      ADCCON3
      000000C0H.1 SFRSYM    DATA     BIT       RFF
      00000093H   SFRSYM    DATA     BYTE      P0DIR
      00000082H   SFRSYM    DATA     BYTE      DPL
      0000009EH   SFRSYM    DATA     BYTE      P0CON
      00000099H   SFRSYM    DATA     BYTE      S0BUF
      00000094H   SFRSYM    DATA     BYTE      P1DIR
      0000009FH   SFRSYM    DATA     BYTE      P1CON
      00000095H   SFRSYM    DATA     BYTE      P2DIR
      000000B8H.7 SFRSYM    DATA     BIT       EXEN2
      000000DAH   SFRSYM    DATA     BYTE      W2DAT
      00000097H   SFRSYM    DATA     BYTE      P2CON
      00000096H   SFRSYM    DATA     BYTE      P3DIR
      000000A4H   SFRSYM    DATA     BYTE      PWRDWN
      00000098H   SFRSYM    DATA     BYTE      S0CON
      0000008FH   SFRSYM    DATA     BYTE      P3CON
      000000B6H   SFRSYM    DATA     BYTE      RTC2CPT00
      000000D8H   SFRSYM    DATA     BYTE      ADCON
      000000ACH   SFRSYM    DATA     BYTE      RTC2CPT10
      000000ABH   SFRSYM    DATA     BYTE      RTC2CPT01
      000000C8H   SFRSYM    DATA     BYTE      T2CON
      00000092H   SFRSYM    DATA     BYTE      DPS
      000000F8H.5 SFRSYM    DATA     BIT       WEN
      000000F8H   SFRSYM    DATA     BYTE      FSR
      000000D4H   SFRSYM    DATA     BYTE      ADCDATH
      000000C9H   SFRSYM    DATA     BYTE      MPAGE
      000000B8H.2 SFRSYM    DATA     BIT       SPI
LX51 LINKER/LOCATER V4.66.62.0                                                        11/14/2016  15:21:25  PAGE 16


      000000F8H.1 SFRSYM    DATA     BIT       RDEND
      000000D5H   SFRSYM    DATA     BYTE      ADCDATL
      000000F8H.3 SFRSYM    DATA     BIT       INFEN
      000000F8H.7 SFRSYM    DATA     BIT       MCDIS
      000000C0H.5 SFRSYM    DATA     BIT       WUF
      000000C0H.4 SFRSYM    DATA     BIT       MISCF
      000000EFH   SFRSYM    DATA     BYTE      ARCON
      000000D0H.5 SFRSYM    DATA     BIT       F0
      000000F8H.6 SFRSYM    DATA     BIT       STP
      000000FEH   SFRSYM    DATA     BYTE      SPIMSTAT
      00000080H.3 SFRSYM    DATA     BIT       LEDVM
      000000E8H   SFRSYM    DATA     BYTE      RFCON
      000000D0H   SFRSYM    DATA     BYTE      PSW
      00000098H.2 SFRSYM    DATA     BIT       RB80
      000000C0H   SFRSYM    DATA     BYTE      IRCON
      000000E8H.1 SFRSYM    DATA     BIT       RFCSN
      000000E6H   SFRSYM    DATA     BYTE      SPIRSTAT
      000000B3H   SFRSYM    DATA     BYTE      RTC2CON

      01000566H   BLOCK     CODE     ---       LVL=0
      ---         BLOCKEND  ---      ---       LVL=0

      010007C7H   BLOCK     CODE     ---       LVL=0
      010007C7H   LINE      CODE     ---       #30
      010007C7H   LINE      CODE     ---       #31
      010007D1H   LINE      CODE     ---       #32
      010007D6H   LINE      CODE     ---       #33
      010007E0H   LINE      CODE     ---       #34
      010007ECH   LINE      CODE     ---       #35
      ---         BLOCKEND  ---      ---       LVL=0

      010008A1H   BLOCK     CODE     ---       LVL=0
      010008A1H   LINE      CODE     ---       #36
      010008A1H   LINE      CODE     ---       #37
      010008A6H   LINE      CODE     ---       #38
      010008BBH   LINE      CODE     ---       #39
      010008C6H   LINE      CODE     ---       #40
      ---         BLOCKEND  ---      ---       LVL=0

      01000100H   BLOCK     CODE     ---       LVL=0
      00000022H   SYMBOL    DATA     ---       packet6
      01000100H   LINE      CODE     ---       #41
      01000106H   LINE      CODE     ---       #42
      01000112H   LINE      CODE     ---       #43
      0100011FH   LINE      CODE     ---       #44
      0100012FH   LINE      CODE     ---       #45
      01000139H   LINE      CODE     ---       #46
      01000143H   LINE      CODE     ---       #47
      0100014DH   LINE      CODE     ---       #48
      01000157H   LINE      CODE     ---       #49
      01000161H   LINE      CODE     ---       #50
      0100016BH   LINE      CODE     ---       #51
      01000175H   LINE      CODE     ---       #52
      0100017FH   LINE      CODE     ---       #53
      01000189H   LINE      CODE     ---       #54
      ---         BLOCKEND  ---      ---       LVL=0

      01000003H   BLOCK     CODE     ---       LVL=0
      00000002H   SYMBOL    DATA     INT       offset
      01000003H   LINE      CODE     ---       #56
      01000003H   LINE      CODE     ---       #57
      ---         BLOCKEND  ---      ---       LVL=0

      01000B40H   BLOCK     CODE     ---       LVL=0
      00000002H   SYMBOL    DATA     INT       offset
LX51 LINKER/LOCATER V4.66.62.0                                                        11/14/2016  15:21:25  PAGE 17


      01000B40H   LINE      CODE     ---       #59
      01000B40H   LINE      CODE     ---       #60
      ---         BLOCKEND  ---      ---       LVL=0

      01000B48H   BLOCK     CODE     ---       LVL=0
      00000002H   SYMBOL    DATA     INT       offset
      01000B48H   LINE      CODE     ---       #62
      01000B48H   LINE      CODE     ---       #63
      ---         BLOCKEND  ---      ---       LVL=0

      01000B50H   BLOCK     CODE     ---       LVL=0
      00000002H   SYMBOL    DATA     INT       offset
      01000B50H   LINE      CODE     ---       #65
      01000B50H   LINE      CODE     ---       #66
      ---         BLOCKEND  ---      ---       LVL=0

      01000A97H   BLOCK     CODE     ---       LVL=0
      00000002H   SYMBOL    DATA     INT       offset
      01000A97H   LINE      CODE     ---       #68
      01000A9BH   LINE      CODE     ---       #69
      ---         BLOCKEND  ---      ---       LVL=0

      01000AA2H   BLOCK     CODE     ---       LVL=0
      00000002H   SYMBOL    DATA     INT       offset
      01000AA2H   LINE      CODE     ---       #71
      01000AA6H   LINE      CODE     ---       #72
      ---         BLOCKEND  ---      ---       LVL=0

      01000961H   BLOCK     CODE     ---       LVL=0
      00000007H   SYMBOL    DATA     BYTE      bank
      00000005H   SYMBOL    DATA     BYTE      prefetchEnabled
      00000003H   SYMBOL    DATA     BYTE      userBank
      01000961H   LINE      CODE     ---       #75
      01000961H   LINE      CODE     ---       #76
      01000964H   LINE      CODE     ---       #77
      0100096AH   LINE      CODE     ---       #78
      01000970H   LINE      CODE     ---       #79
      ---         BLOCKEND  ---      ---       LVL=0

      01000979H   BLOCK     CODE     ---       LVL=0
      01000979H   LINE      CODE     ---       #82
      01000979H   LINE      CODE     ---       #83
      01000985H   LINE      CODE     ---       #84
      0100098FH   LINE      CODE     ---       #85
      ---         BLOCKEND  ---      ---       LVL=0

      010009A4H   BLOCK     CODE     ---       LVL=0
      010009A4H   LINE      CODE     ---       #87
      010009A4H   LINE      CODE     ---       #88
      010009B1H   LINE      CODE     ---       #89
      010009B6H   LINE      CODE     ---       #90
      ---         BLOCKEND  ---      ---       LVL=0

      01000AADH   BLOCK     CODE     ---       LVL=0
      00000007H   SYMBOL    DATA     BYTE      enabled
      01000AADH   LINE      CODE     ---       #92
      01000AADH   LINE      CODE     ---       #93
      ---         BLOCKEND  ---      ---       LVL=0

      01000A7FH   BLOCK     CODE     ---       LVL=0
      01000A7FH   LINE      CODE     ---       #96
      01000A7FH   LINE      CODE     ---       #97
      ---         BLOCKEND  ---      ---       LVL=0

      01000B37H   BLOCK     CODE     ---       LVL=0
LX51 LINKER/LOCATER V4.66.62.0                                                        11/14/2016  15:21:25  PAGE 18


      01000B37H   LINE      CODE     ---       #100
      01000B37H   LINE      CODE     ---       #101
      01000B3FH   LINE      CODE     ---       #102
      ---         BLOCKEND  ---      ---       LVL=0

      01000851H   BLOCK     CODE     ---       LVL=0
      00000053H   SYMBOL    DATA     ---       data_ptr
      00000007H   SYMBOL    DATA     BYTE      data_len
      01000851H   LINE      CODE     ---       #104
      01000859H   LINE      CODE     ---       #105
      0100085FH   LINE      CODE     ---       #106
      0100086FH   LINE      CODE     ---       #107
      0100086FH   LINE      CODE     ---       #108
      01000879H   LINE      CODE     ---       #109
      01000879H   LINE      CODE     ---       #110
      ---         BLOCKEND  ---      ---       LVL=0

      01000A46H   BLOCK     CODE     ---       LVL=0
      01000A46H   LINE      CODE     ---       #25
      01000A48H   LINE      CODE     ---       #27
      01000A48H   LINE      CODE     ---       #28
      01000A48H   LINE      CODE     ---       #29
      01000A50H   LINE      CODE     ---       #30
      01000A50H   LINE      CODE     ---       #31
      01000A53H   LINE      CODE     ---       #32
      01000A53H   LINE      CODE     ---       #33
      ---         BLOCKEND  ---      ---       LVL=0

      01000B05H   BLOCK     CODE     ---       LVL=0
      01000B05H   LINE      CODE     ---       #35
      01000B05H   LINE      CODE     ---       #36
      01000B05H   LINE      CODE     ---       #37
      01000B05H   LINE      CODE     ---       #38
      01000B05H   LINE      CODE     ---       #39
      01000B08H   LINE      CODE     ---       #40
      01000B0AH   LINE      CODE     ---       #41
      01000B0CH   LINE      CODE     ---       #42
      01000B0EH   LINE      CODE     ---       #43
      ---         BLOCKEND  ---      ---       LVL=0

      01000B0FH   BLOCK     CODE     ---       LVL=0
      01000B0FH   LINE      CODE     ---       #45
      01000B0FH   LINE      CODE     ---       #46
      01000B0FH   LINE      CODE     ---       #47
      01000B0FH   LINE      CODE     ---       #48
      01000B0FH   LINE      CODE     ---       #49
      01000B12H   LINE      CODE     ---       #50
      01000B14H   LINE      CODE     ---       #51
      01000B16H   LINE      CODE     ---       #52
      01000B18H   LINE      CODE     ---       #53
      ---         BLOCKEND  ---      ---       LVL=0

      01000B19H   BLOCK     CODE     ---       LVL=0
      00000007H   SYMBOL    DATA     BYTE      value
      01000B19H   LINE      CODE     ---       #32
      01000B19H   LINE      CODE     ---       #33
      01000B19H   LINE      CODE     ---       #34
      01000B1BH   LINE      CODE     ---       #36
      01000B20H   LINE      CODE     ---       #38
      01000B22H   LINE      CODE     ---       #39
      ---         BLOCKEND  ---      ---       LVL=0

      010009B7H   BLOCK     CODE     ---       LVL=0
      00000007H   SYMBOL    DATA     BYTE      reg
      00000006H   SYMBOL    DATA     BYTE      value
LX51 LINKER/LOCATER V4.66.62.0                                                        11/14/2016  15:21:25  PAGE 19


      010009B9H   BLOCK     CODE     NEAR LAB  LVL=1
      00000005H   SYMBOL    DATA     BYTE      status
      ---         BLOCKEND  ---      ---       LVL=1
      010009B7H   LINE      CODE     ---       #41
      010009B9H   LINE      CODE     ---       #42
      010009B9H   LINE      CODE     ---       #45
      010009BBH   LINE      CODE     ---       #46
      010009C0H   LINE      CODE     ---       #47
      010009C5H   LINE      CODE     ---       #48
      010009C7H   LINE      CODE     ---       #50
      010009C9H   LINE      CODE     ---       #51
      ---         BLOCKEND  ---      ---       LVL=0

      01000A72H   BLOCK     CODE     ---       LVL=0
      00000007H   SYMBOL    DATA     BYTE      reg
      01000A72H   BLOCK     CODE     NEAR LAB  LVL=1
      00000007H   SYMBOL    DATA     BYTE      reg_val
      ---         BLOCKEND  ---      ---       LVL=1
      01000A72H   LINE      CODE     ---       #53
      01000A72H   LINE      CODE     ---       #54
      01000A72H   LINE      CODE     ---       #57
      01000A74H   LINE      CODE     ---       #58
      01000A77H   LINE      CODE     ---       #59
      01000A7CH   LINE      CODE     ---       #60
      01000A7EH   LINE      CODE     ---       #62
      01000A7EH   LINE      CODE     ---       #63
      ---         BLOCKEND  ---      ---       LVL=0

      01000826H   BLOCK     CODE     ---       LVL=0
      00000007H   SYMBOL    DATA     BYTE      reg
      00000037H   SYMBOL    DATA     ---       pBuf
      0000003AH   SYMBOL    DATA     BYTE      bytes
      0100082CH   BLOCK     CODE     NEAR LAB  LVL=1
      00000006H   SYMBOL    DATA     BYTE      status
      00000005H   SYMBOL    DATA     BYTE      byte_ctr
      ---         BLOCKEND  ---      ---       LVL=1
      01000826H   LINE      CODE     ---       #65
      0100082CH   LINE      CODE     ---       #66
      0100082CH   LINE      CODE     ---       #69
      0100082CH   LINE      CODE     ---       #70
      0100082CH   LINE      CODE     ---       #72
      01000835H   LINE      CODE     ---       #73
      0100084CH   LINE      CODE     ---       #75
      0100084EH   LINE      CODE     ---       #77
      01000850H   LINE      CODE     ---       #78
      ---         BLOCKEND  ---      ---       LVL=0

      0100090CH   BLOCK     CODE     ---       LVL=0
      00000007H   SYMBOL    DATA     BYTE      reg
      0000002AH   SYMBOL    DATA     ---       pBuf
      0000002DH   SYMBOL    DATA     BYTE      bytes
      01000912H   BLOCK     CODE     NEAR LAB  LVL=1
      00000006H   SYMBOL    DATA     BYTE      status
      00000005H   SYMBOL    DATA     BYTE      byte_ctr
      ---         BLOCKEND  ---      ---       LVL=1
      0100090CH   LINE      CODE     ---       #80
      01000912H   LINE      CODE     ---       #81
      01000912H   LINE      CODE     ---       #84
      01000912H   LINE      CODE     ---       #85
      01000912H   LINE      CODE     ---       #86
      0100091BH   LINE      CODE     ---       #87
      01000926H   LINE      CODE     ---       #88
      01000928H   LINE      CODE     ---       #89
      0100092AH   LINE      CODE     ---       #90
      ---         BLOCKEND  ---      ---       LVL=0
LX51 LINKER/LOCATER V4.66.62.0                                                        11/14/2016  15:21:25  PAGE 20



      01000A13H   BLOCK     CODE     ---       LVL=0
      01000A13H   LINE      CODE     ---       #93
      01000A13H   LINE      CODE     ---       #94
      01000A13H   LINE      CODE     ---       #95
      01000A16H   LINE      CODE     ---       #96
      01000A18H   LINE      CODE     ---       #97
      01000A1AH   LINE      CODE     ---       #98
      01000A21H   LINE      CODE     ---       #99
      01000A23H   LINE      CODE     ---       #100
      ---         BLOCKEND  ---      ---       LVL=0

      010007FAH   BLOCK     CODE     ---       LVL=0
      00000027H   SYMBOL    DATA     INT       payloadLength
      010007FAH   LINE      CODE     ---       #102
      010007FEH   LINE      CODE     ---       #103
      010007FEH   LINE      CODE     ---       #104
      01000800H   LINE      CODE     ---       #105
      01000807H   LINE      CODE     ---       #106
      0100080FH   LINE      CODE     ---       #107
      0100081DH   LINE      CODE     ---       #109
      0100081FH   LINE      CODE     ---       #110
      01000825H   LINE      CODE     ---       #111
      ---         BLOCKEND  ---      ---       LVL=0

      010002A7H   BLOCK     CODE     ---       LVL=0
      010002A7H   LINE      CODE     ---       #114
      010002C0H   LINE      CODE     ---       #116
      010002C7H   LINE      CODE     ---       #117
      010002CAH   LINE      CODE     ---       #118
      010002CAH   LINE      CODE     ---       #119
      010002D8H   LINE      CODE     ---       #120
      010002DFH   LINE      CODE     ---       #121
      010002E1H   LINE      CODE     ---       #122
      010002E8H   LINE      CODE     ---       #123
      010002EFH   LINE      CODE     ---       #124
      010002EFH   LINE      CODE     ---       #125
      010002F2H   LINE      CODE     ---       #126
      010002F9H   LINE      CODE     ---       #127
      010002FBH   LINE      CODE     ---       #128
      010002FBH   LINE      CODE     ---       #129
      010002FBH   LINE      CODE     ---       #130
      010002FEH   LINE      CODE     ---       #131
      01000305H   LINE      CODE     ---       #132
      01000308H   LINE      CODE     ---       #133
      0100030FH   LINE      CODE     ---       #134
      01000316H   LINE      CODE     ---       #135
      ---         BLOCKEND  ---      ---       LVL=0

      01000698H   BLOCK     CODE     ---       LVL=0
      01000698H   LINE      CODE     ---       #138
      01000698H   LINE      CODE     ---       #139
      01000698H   LINE      CODE     ---       #140
      0100069AH   LINE      CODE     ---       #141
      0100069CH   LINE      CODE     ---       #143
      010006A4H   LINE      CODE     ---       #144
      010006ACH   LINE      CODE     ---       #145
      010006B3H   LINE      CODE     ---       #147
      010006BAH   LINE      CODE     ---       #148
      010006C1H   LINE      CODE     ---       #149
      010006C8H   LINE      CODE     ---       #150
      010006CFH   LINE      CODE     ---       #152
      010006D6H   LINE      CODE     ---       #153
      ---         BLOCKEND  ---      ---       LVL=0

LX51 LINKER/LOCATER V4.66.62.0                                                        11/14/2016  15:21:25  PAGE 21


      01000A8BH   BLOCK     CODE     ---       LVL=0
      01000A8BH   LINE      CODE     ---       #157
      01000A8BH   LINE      CODE     ---       #159
      01000A8DH   LINE      CODE     ---       #160
      01000A8FH   LINE      CODE     ---       #161
      01000A91H   LINE      CODE     ---       #162
      01000A94H   LINE      CODE     ---       #163
      ---         BLOCKEND  ---      ---       LVL=0

      010009DDH   BLOCK     CODE     ---       LVL=0
      010009DDH   LINE      CODE     ---       #40
      010009DDH   LINE      CODE     ---       #42
      010009E0H   LINE      CODE     ---       #43
      010009E3H   LINE      CODE     ---       #44
      010009E6H   LINE      CODE     ---       #45
      010009E9H   LINE      CODE     ---       #47
      010009ECH   LINE      CODE     ---       #48
      010009EEH   LINE      CODE     ---       #49
      ---         BLOCKEND  ---      ---       LVL=0

      01000460H   BLOCK     CODE     ---       LVL=0
      01000460H   LINE      CODE     ---       #50
      01000460H   LINE      CODE     ---       #51
      01000463H   LINE      CODE     ---       #52
      01000466H   LINE      CODE     ---       #53
      0100046BH   LINE      CODE     ---       #54
      01000470H   LINE      CODE     ---       #56
      01000479H   LINE      CODE     ---       #57
      0100047CH   LINE      CODE     ---       #58
      01000485H   LINE      CODE     ---       #59
      0100048EH   LINE      CODE     ---       #65
      010004A3H   LINE      CODE     ---       #66
      ---         BLOCKEND  ---      ---       LVL=0

      01000056H   BLOCK     CODE     ---       LVL=0
      01000056H   LINE      CODE     ---       #69
      01000056H   LINE      CODE     ---       #70
      01000059H   LINE      CODE     ---       #71
      01000059H   LINE      CODE     ---       #72
      0100005CH   LINE      CODE     ---       #73
      0100005CH   LINE      CODE     ---       #74
      0100005FH   LINE      CODE     ---       #75
      01000062H   LINE      CODE     ---       #76
      01000065H   LINE      CODE     ---       #77
      01000068H   LINE      CODE     ---       #78
      01000068H   LINE      CODE     ---       #79
      0100006BH   LINE      CODE     ---       #80
      0100006EH   LINE      CODE     ---       #81
      01000074H   LINE      CODE     ---       #82
      01000077H   LINE      CODE     ---       #83
      0100007AH   LINE      CODE     ---       #84
      01000081H   LINE      CODE     ---       #85
      01000084H   LINE      CODE     ---       #86
      01000087H   LINE      CODE     ---       #87
      01000089H   LINE      CODE     ---       #88
      01000090H   LINE      CODE     ---       #89
      01000093H   LINE      CODE     ---       #90
      0100009AH   LINE      CODE     ---       #91
      0100009AH   LINE      CODE     ---       #92
      0100009DH   LINE      CODE     ---       #94
      010000A4H   LINE      CODE     ---       #95
      010000ADH   LINE      CODE     ---       #96
      010000ADH   LINE      CODE     ---       #97
      010000ADH   LINE      CODE     ---       #98
      010000B0H   LINE      CODE     ---       #99
LX51 LINKER/LOCATER V4.66.62.0                                                        11/14/2016  15:21:25  PAGE 22


      010000B2H   LINE      CODE     ---       #100
      010000B2H   LINE      CODE     ---       #101
      010000B5H   LINE      CODE     ---       #102
      010000B8H   LINE      CODE     ---       #103
      010000BAH   LINE      CODE     ---       #104
      010000BAH   LINE      CODE     ---       #105
      010000BAH   LINE      CODE     ---       #106
      010000BAH   LINE      CODE     ---       #107
      010000BDH   LINE      CODE     ---       #108
      010000BFH   LINE      CODE     ---       #109
      010000BFH   LINE      CODE     ---       #111
      010000CCH   LINE      CODE     ---       #112
      010000D5H   LINE      CODE     ---       #113
      010000D8H   LINE      CODE     ---       #114
      010000DEH   LINE      CODE     ---       #115
      010000DEH   LINE      CODE     ---       #116
      010000E1H   LINE      CODE     ---       #117
      ---         BLOCKEND  ---      ---       LVL=0

      0100092BH   BLOCK     CODE     ---       LVL=0
      0100092BH   LINE      CODE     ---       #118
      0100092BH   LINE      CODE     ---       #119
      0100092BH   LINE      CODE     ---       #120
      0100092BH   LINE      CODE     ---       #121
      0100092BH   LINE      CODE     ---       #122
      0100092EH   LINE      CODE     ---       #123
      0100092EH   LINE      CODE     ---       #124
      0100092EH   LINE      CODE     ---       #125
      0100092EH   LINE      CODE     ---       #126
      01000931H   LINE      CODE     ---       #127
      01000933H   LINE      CODE     ---       #128
      ---         BLOCKEND  ---      ---       LVL=0

      01000791H   BLOCK     CODE     ---       LVL=0
      01000791H   BLOCK     CODE     NEAR LAB  LVL=1
      00000006H   SYMBOL    DATA     WORD      i
      ---         BLOCKEND  ---      ---       LVL=1
      01000791H   LINE      CODE     ---       #130
      01000791H   LINE      CODE     ---       #132
      01000797H   LINE      CODE     ---       #133
      0100079AH   LINE      CODE     ---       #134
      010007B2H   LINE      CODE     ---       #135
      010007BDH   LINE      CODE     ---       #137
      010007C4H   LINE      CODE     ---       #138
      ---         BLOCKEND  ---      ---       LVL=0

      01000604H   BLOCK     CODE     ---       LVL=0
      00000022H   SYMBOL    DATA     ---       msg_to_send
      0100060AH   BLOCK     CODE     NEAR LAB  LVL=1
      00000025H   SYMBOL    DATA     WORD      i
      ---         BLOCKEND  ---      ---       LVL=1
      01000604H   LINE      CODE     ---       #141
      0100060AH   LINE      CODE     ---       #143
      01000610H   LINE      CODE     ---       #144
      01000616H   LINE      CODE     ---       #145
      01000621H   LINE      CODE     ---       #146
      01000630H   LINE      CODE     ---       #147
      0100063DH   LINE      CODE     ---       #148
      0100063DH   LINE      CODE     ---       #149
      0100063DH   LINE      CODE     ---       #151
      01000644H   LINE      CODE     ---       #152
      01000647H   LINE      CODE     ---       #153
      ---         BLOCKEND  ---      ---       LVL=0

      0100064EH   BLOCK     CODE     ---       LVL=0
LX51 LINKER/LOCATER V4.66.62.0                                                        11/14/2016  15:21:25  PAGE 23


      0000004EH   SYMBOL    DATA     ---       msg_to_send
      01000654H   BLOCK     CODE     NEAR LAB  LVL=1
      00000051H   SYMBOL    DATA     WORD      i
      ---         BLOCKEND  ---      ---       LVL=1
      0100064EH   LINE      CODE     ---       #156
      01000654H   LINE      CODE     ---       #158
      0100065AH   LINE      CODE     ---       #159
      01000660H   LINE      CODE     ---       #160
      0100066BH   LINE      CODE     ---       #161
      0100067AH   LINE      CODE     ---       #162
      01000687H   LINE      CODE     ---       #163
      01000687H   LINE      CODE     ---       #164
      01000687H   LINE      CODE     ---       #166
      0100068EH   LINE      CODE     ---       #167
      01000691H   LINE      CODE     ---       #168
      ---         BLOCKEND  ---      ---       LVL=0

      0100000EH   BLOCK     CODE     ---       LVL=0
      0100000EH   LINE      CODE     ---       #172
      0100002BH   LINE      CODE     ---       #173
      0100002EH   LINE      CODE     ---       #174
      ---         BLOCKEND  ---      ---       LVL=0

      ---         MODULE    ---      ---       HAL_W2_ISR
      00000057H   PUBLIC    DATA     BYTE      w2_status
      00000056H   PUBLIC    DATA     BYTE      data_ready
      00000024H   PUBLIC    DATA     BYTE      ?_i2c_mpu_writeWords?BYTE
      01000510H   PUBLIC    CODE     ---       _i2c_mpu_writeWords
      010009CAH   PUBLIC    CODE     ---       _i2c_mpu_writeWord
      00000008H   PUBLIC    DATA     BYTE      ?_i2c_mpu_readBits?BYTE
      010004B8H   PUBLIC    CODE     ---       _i2c_mpu_readBits
      0000003BH   PUBLIC    DATA     BYTE      ?_i2c_mpu_readBit?BYTE
      010008C7H   PUBLIC    CODE     ---       _i2c_mpu_readBit
      00000022H   PUBLIC    DATA     BYTE      ?_i2c_mpu_writeBits?BYTE
      010003A0H   PUBLIC    CODE     ---       _i2c_mpu_writeBits
      00000022H   PUBLIC    DATA     BYTE      ?_i2c_mpu_writeBit?BYTE
      010005B6H   PUBLIC    CODE     ---       _i2c_mpu_writeBit
      0000002CH   PUBLIC    DATA     BYTE      ?_i2c_mpu_readBytes?BYTE
      01000403H   PUBLIC    CODE     ---       _i2c_mpu_readBytes
      01000A01H   PUBLIC    CODE     ---       _i2c_mpu_readByte
      0000002AH   PUBLIC    DATA     BYTE      ?_i2c_mpu_writeBytes?BYTE
      0100071FH   PUBLIC    CODE     ---       _i2c_mpu_writeBytes
      01000A35H   PUBLIC    CODE     ---       _i2c_mpu_writeByte
      0100032DH   PUBLIC    CODE     ---       hal_w2_soft_reset
      00000048H   PUBLIC    DATA     BYTE      ?_hal_w2_read?BYTE
      010006DDH   PUBLIC    CODE     ---       _hal_w2_read
      00000042H   PUBLIC    DATA     BYTE      ?_hal_w2_write?BYTE
      01000759H   PUBLIC    CODE     ---       _hal_w2_write
      010009EFH   PUBLIC    CODE     ---       _hal_w2_init_transfer
      0100087AH   PUBLIC    CODE     ---       hal_w2_wait_data_ready
      010008EBH   PUBLIC    CODE     ---       _hal_w2_configure_master
      01000AFAH   PUBLIC    CODE     ---       _hal_w2_all_irq_enable
      01000AEFH   PUBLIC    CODE     ---       _hal_w2_enable
      01000AE4H   PUBLIC    CODE     ---       _hal_w2_set_op_mode
      01000A56H   PUBLIC    CODE     ---       _hal_w2_set_clk_freq
      01000B58H   PUBLIC    CODE     ---       _hal_w2_set_slave_address
      01000AD9H   PUBLIC    CODE     ---       _hal_w2_irq_adr_match_enable
      01000ACEH   PUBLIC    CODE     ---       _hal_w2_irq_stop_cond_enable
      01000AC3H   PUBLIC    CODE     ---       _hal_w2_alter_clock
      01000AB8H   PUBLIC    CODE     ---       _hal_w2_respond_to_gen_adr
      01000B2DH   PUBLIC    CODE     ---       I2C_IRQ_handler
      01000B23H   PUBLIC    CODE     ---       hal_w2_wait_data_ready_ISR
      00000098H.3 SFRSYM    DATA     BIT       TB80
      000000BEH   SFRSYM    DATA     BYTE      SPISSTAT
      000000C8H   SFRSYM    DATA     BIT       T2I0
LX51 LINKER/LOCATER V4.66.62.0                                                        11/14/2016  15:21:25  PAGE 24


      000000C3H   SFRSYM    DATA     BYTE      CCH1
      00000080H   SFRSYM    DATA     BYTE      P0
      000000C8H.1 SFRSYM    DATA     BIT       T2I1
      000000DFH   SFRSYM    DATA     BYTE      CCPDATO
      000000C5H   SFRSYM    DATA     BYTE      CCH2
      00000090H   SFRSYM    DATA     BYTE      P1
      000000C7H   SFRSYM    DATA     BYTE      CCH3
      000000A0H   SFRSYM    DATA     BYTE      P2
      00000098H.5 SFRSYM    DATA     BIT       SM20
      000000B0H   SFRSYM    DATA     BYTE      P3
      000000D0H.6 SFRSYM    DATA     BIT       AC
      000000C2H   SFRSYM    DATA     BYTE      CCL1
      000000C4H   SFRSYM    DATA     BYTE      CCL2
      000000D8H.7 SFRSYM    DATA     BIT       BD
      000000B8H   SFRSYM    DATA     BIT       RFSPI
      000000A8H.7 SFRSYM    DATA     BIT       EA
      000000CCH   SFRSYM    DATA     WORD      T2
      000000C6H   SFRSYM    DATA     BYTE      CCL3
      000000B7H   SFRSYM    DATA     BYTE      SPISRDSZ
      000000C8H.3 SFRSYM    DATA     BIT       T2R0
      000000C8H.4 SFRSYM    DATA     BIT       T2R1
      000000A8H   SFRSYM    DATA     BYTE      IEN0
      000000B8H   SFRSYM    DATA     BYTE      IEN1
      000000A5H   SFRSYM    DATA     BYTE      WUCON
      00000085H   SFRSYM    DATA     BYTE      DPH1
      000000DBH   SFRSYM    DATA     BYTE      COMPCON
      000000A3H   SFRSYM    DATA     BYTE      CLKCTRL
      00000084H   SFRSYM    DATA     BYTE      DPL1
      000000C8H.5 SFRSYM    DATA     BIT       I2FR
      000000B8H.3 SFRSYM    DATA     BIT       WUPIN
      000000C8H.6 SFRSYM    DATA     BIT       I3FR
      000000FFH   SFRSYM    DATA     BYTE      SPIMDAT
      000000C0H.7 SFRSYM    DATA     BIT       EXF2
      00000098H.4 SFRSYM    DATA     BIT       REN0
      000000C8H.2 SFRSYM    DATA     BIT       T2CM
      000000B8H.1 SFRSYM    DATA     BIT       RF
      000000B8H.5 SFRSYM    DATA     BIT       WUIRQ
      000000E7H   SFRSYM    DATA     BYTE      SPIRDAT
      000000C1H   SFRSYM    DATA     BYTE      CCEN
      000000E2H   SFRSYM    DATA     BYTE      W2CON0
      000000BFH   SFRSYM    DATA     BYTE      SPISDAT
      000000D0H.7 SFRSYM    DATA     BIT       CY
      000000E1H   SFRSYM    DATA     BYTE      W2CON1
      000000FBH   SFRSYM    DATA     BYTE      FDCR
      000000E8H   SFRSYM    DATA     BIT       RFCE
      000000CBH   SFRSYM    DATA     BYTE      CRCH
      00000081H   SFRSYM    DATA     BYTE      SP
      000000D0H.2 SFRSYM    DATA     BIT       OV
      000000CAH   SFRSYM    DATA     BYTE      CRCL
      000000ADH   SFRSYM    DATA     BYTE      CLKLFCTRL
      000000B1H   SFRSYM    DATA     BYTE      RSTREAS
      000000C8H.7 SFRSYM    DATA     BIT       T2PS
      000000F9H   SFRSYM    DATA     BYTE      FPCR
      000000B8H.4 SFRSYM    DATA     BIT       MISC
      000000A1H   SFRSYM    DATA     BYTE      PWMDC0
      000000B4H   SFRSYM    DATA     BYTE      RTC2CMP0
      000000A2H   SFRSYM    DATA     BYTE      PWMDC1
      000000B5H   SFRSYM    DATA     BYTE      RTC2CMP1
      00000080H   SFRSYM    DATA     BIT       P00
      000000BAH   SFRSYM    DATA     BYTE      S0RELH
      00000090H   SFRSYM    DATA     BIT       P10
      00000080H.1 SFRSYM    DATA     BIT       P01
      00000087H   SFRSYM    DATA     BYTE      PCON
      000000A0H   SFRSYM    DATA     BIT       P20
      00000090H.1 SFRSYM    DATA     BIT       P11
LX51 LINKER/LOCATER V4.66.62.0                                                        11/14/2016  15:21:25  PAGE 25


      00000080H.2 SFRSYM    DATA     BIT       P02
      000000B0H   SFRSYM    DATA     BIT       P30
      000000A0H.1 SFRSYM    DATA     BIT       P21
      00000090H.2 SFRSYM    DATA     BIT       P12
      00000080H.3 SFRSYM    DATA     BIT       P03
      000000C0H.2 SFRSYM    DATA     BIT       SPIF
      000000F8H.2 SFRSYM    DATA     BIT       RDIS
      000000B0H.1 SFRSYM    DATA     BIT       P31
      000000A0H.2 SFRSYM    DATA     BIT       P22
      00000090H.3 SFRSYM    DATA     BIT       P13
      00000080H.4 SFRSYM    DATA     BIT       P04
      000000AAH   SFRSYM    DATA     BYTE      S0RELL
      000000B0H.2 SFRSYM    DATA     BIT       P32
      000000A0H.3 SFRSYM    DATA     BIT       P23
      00000090H.4 SFRSYM    DATA     BIT       P14
      00000080H.5 SFRSYM    DATA     BIT       P05
      000000D9H   SFRSYM    DATA     BYTE      W2SADR
      00000089H   SFRSYM    DATA     BYTE      TMOD
      00000088H   SFRSYM    DATA     BYTE      TCON
      000000B0H.3 SFRSYM    DATA     BIT       P33
      000000A0H.4 SFRSYM    DATA     BIT       P24
      00000090H.5 SFRSYM    DATA     BIT       P15
      00000080H.6 SFRSYM    DATA     BIT       P06
      000000B0H.4 SFRSYM    DATA     BIT       P34
      000000A0H.5 SFRSYM    DATA     BIT       P25
      00000090H.6 SFRSYM    DATA     BIT       P16
      00000080H.7 SFRSYM    DATA     BIT       P07
      000000C2H   SFRSYM    DATA     WORD      CC1
      000000B0H.5 SFRSYM    DATA     BIT       P35
      000000A0H.6 SFRSYM    DATA     BIT       P26
      00000090H.7 SFRSYM    DATA     BIT       P17
      000000C4H   SFRSYM    DATA     WORD      CC2
      000000B0H.6 SFRSYM    DATA     BIT       P36
      000000A0H.7 SFRSYM    DATA     BIT       P27
      000000C6H   SFRSYM    DATA     WORD      CC3
      000000B0H.7 SFRSYM    DATA     BIT       P37
      000000E8H.2 SFRSYM    DATA     BIT       RFCKEN
      000000F8H   SFRSYM    DATA     BIT       WPEN
      000000DDH   SFRSYM    DATA     BYTE      CCPDATIA
      000000DEH   SFRSYM    DATA     BYTE      CCPDATIB
      00000088H.1 SFRSYM    DATA     BIT       IE0
      000000F8H.4 SFRSYM    DATA     BIT       RDYN
      00000088H.3 SFRSYM    DATA     BIT       IE1
      000000CFH   SFRSYM    DATA     BYTE      WUOPC0
      000000F0H   SFRSYM    DATA     BYTE      B
      000000E9H   SFRSYM    DATA     BYTE      MD0
      000000CEH   SFRSYM    DATA     BYTE      WUOPC1
      000000A7H   SFRSYM    DATA     BYTE      MEMCON
      000000EAH   SFRSYM    DATA     BYTE      MD1
      000000D7H   SFRSYM    DATA     BYTE      RNGDAT
      000000EBH   SFRSYM    DATA     BYTE      MD2
      000000ECH   SFRSYM    DATA     BYTE      MD3
      000000EDH   SFRSYM    DATA     BYTE      MD4
      000000AFH   SFRSYM    DATA     BYTE      WDSV
      000000EEH   SFRSYM    DATA     BYTE      MD5
      000000E0H   SFRSYM    DATA     BYTE      ACC
      000000DCH   SFRSYM    DATA     BYTE      POFCON
      000000A8H.4 SFRSYM    DATA     BIT       ES0
      000000A8H.1 SFRSYM    DATA     BIT       ET0
      000000A9H   SFRSYM    DATA     BYTE      IP0
      000000A8H.3 SFRSYM    DATA     BIT       ET1
      00000088H.5 SFRSYM    DATA     BIT       TF0
      000000B9H   SFRSYM    DATA     BYTE      IP1
      000000A8H.5 SFRSYM    DATA     BIT       ET2
      00000098H   SFRSYM    DATA     BIT       RI0
LX51 LINKER/LOCATER V4.66.62.0                                                        11/14/2016  15:21:25  PAGE 26


      00000088H.7 SFRSYM    DATA     BIT       TF1
      000000C0H   SFRSYM    DATA     BIT       RFSPIF
      000000C0H.6 SFRSYM    DATA     BIT       TF2
      000000FCH   SFRSYM    DATA     BYTE      SPIMCON0
      000000D6H   SFRSYM    DATA     BYTE      RNGCTL
      0000008CH   SFRSYM    DATA     BYTE      TH0
      000000A8H   SFRSYM    DATA     BIT       EX0
      00000098H.1 SFRSYM    DATA     BIT       TI0
      00000088H   SFRSYM    DATA     BIT       IT0
      000000FDH   SFRSYM    DATA     BYTE      SPIMCON1
      0000008DH   SFRSYM    DATA     BYTE      TH1
      000000A8H.2 SFRSYM    DATA     BIT       EX1
      00000088H.2 SFRSYM    DATA     BIT       IT1
      000000CDH   SFRSYM    DATA     BYTE      TH2
      000000AEH   SFRSYM    DATA     BYTE      OPMCON
      000000D0H   SFRSYM    DATA     BIT       P
      00000098H.7 SFRSYM    DATA     BIT       SM0
      0000008AH   SFRSYM    DATA     BYTE      TL0
      00000098H.6 SFRSYM    DATA     BIT       SM1
      000000E4H   SFRSYM    DATA     BYTE      SPIRCON0
      0000008BH   SFRSYM    DATA     BYTE      TL1
      000000E5H   SFRSYM    DATA     BYTE      SPIRCON1
      000000CCH   SFRSYM    DATA     BYTE      TL2
      000000BCH   SFRSYM    DATA     BYTE      SPISCON0
      000000BDH   SFRSYM    DATA     BYTE      SPISCON1
      000000D0H.3 SFRSYM    DATA     BIT       RS0
      00000088H.4 SFRSYM    DATA     BIT       TR0
      000000D0H.4 SFRSYM    DATA     BIT       RS1
      000000B2H   SFRSYM    DATA     BYTE      PWMCON
      00000088H.6 SFRSYM    DATA     BIT       TR1
      000000CAH   SFRSYM    DATA     WORD      CRC
      000000A6H   SFRSYM    DATA     BYTE      INTEXP
      000000C0H.3 SFRSYM    DATA     BIT       WUPINF
      000000FAH   SFRSYM    DATA     BYTE      FCR
      000000D3H   SFRSYM    DATA     BYTE      ADCCON1
      000000D2H   SFRSYM    DATA     BYTE      ADCCON2
      00000083H   SFRSYM    DATA     BYTE      DPH
      000000D1H   SFRSYM    DATA     BYTE      ADCCON3
      000000C0H.1 SFRSYM    DATA     BIT       RFF
      00000093H   SFRSYM    DATA     BYTE      P0DIR
      00000082H   SFRSYM    DATA     BYTE      DPL
      0000009EH   SFRSYM    DATA     BYTE      P0CON
      00000099H   SFRSYM    DATA     BYTE      S0BUF
      00000094H   SFRSYM    DATA     BYTE      P1DIR
      0000009FH   SFRSYM    DATA     BYTE      P1CON
      00000095H   SFRSYM    DATA     BYTE      P2DIR
      000000B8H.7 SFRSYM    DATA     BIT       EXEN2
      000000DAH   SFRSYM    DATA     BYTE      W2DAT
      00000097H   SFRSYM    DATA     BYTE      P2CON
      00000096H   SFRSYM    DATA     BYTE      P3DIR
      000000A4H   SFRSYM    DATA     BYTE      PWRDWN
      00000098H   SFRSYM    DATA     BYTE      S0CON
      0000008FH   SFRSYM    DATA     BYTE      P3CON
      000000B6H   SFRSYM    DATA     BYTE      RTC2CPT00
      000000D8H   SFRSYM    DATA     BYTE      ADCON
      000000ACH   SFRSYM    DATA     BYTE      RTC2CPT10
      000000ABH   SFRSYM    DATA     BYTE      RTC2CPT01
      000000C8H   SFRSYM    DATA     BYTE      T2CON
      00000092H   SFRSYM    DATA     BYTE      DPS
      000000F8H.5 SFRSYM    DATA     BIT       WEN
      000000F8H   SFRSYM    DATA     BYTE      FSR
      000000D4H   SFRSYM    DATA     BYTE      ADCDATH
      000000C9H   SFRSYM    DATA     BYTE      MPAGE
      000000B8H.2 SFRSYM    DATA     BIT       SPI
      000000F8H.1 SFRSYM    DATA     BIT       RDEND
LX51 LINKER/LOCATER V4.66.62.0                                                        11/14/2016  15:21:25  PAGE 27


      000000D5H   SFRSYM    DATA     BYTE      ADCDATL
      000000F8H.3 SFRSYM    DATA     BIT       INFEN
      000000F8H.7 SFRSYM    DATA     BIT       MCDIS
      000000C0H.5 SFRSYM    DATA     BIT       WUF
      000000C0H.4 SFRSYM    DATA     BIT       MISCF
      000000EFH   SFRSYM    DATA     BYTE      ARCON
      000000D0H.5 SFRSYM    DATA     BIT       F0
      000000F8H.6 SFRSYM    DATA     BIT       STP
      000000FEH   SFRSYM    DATA     BYTE      SPIMSTAT
      000000E8H   SFRSYM    DATA     BYTE      RFCON
      000000D0H   SFRSYM    DATA     BYTE      PSW
      00000098H.2 SFRSYM    DATA     BIT       RB80
      000000C0H   SFRSYM    DATA     BYTE      IRCON
      000000E8H.1 SFRSYM    DATA     BIT       RFCSN
      000000E6H   SFRSYM    DATA     BYTE      SPIRSTAT
      000000B3H   SFRSYM    DATA     BYTE      RTC2CON

      01000A64H   BLOCK     CODE     ---       LVL=0
      ---         BLOCKEND  ---      ---       LVL=0

      01000B23H   BLOCK     CODE     ---       LVL=0
      01000B23H   LINE      CODE     ---       #39
      01000B23H   LINE      CODE     ---       #40
      01000B23H   LINE      CODE     ---       #41
      01000B26H   LINE      CODE     ---       #42
      01000B2AH   LINE      CODE     ---       #43
      01000B2CH   LINE      CODE     ---       #44
      ---         BLOCKEND  ---      ---       LVL=0

      01000B2DH   BLOCK     CODE     ---       LVL=0
      01000B2DH   LINE      CODE     ---       #45
      01000B2DH   LINE      CODE     ---       #46
      01000B2DH   LINE      CODE     ---       #48
      01000B30H   LINE      CODE     ---       #49
      01000B36H   LINE      CODE     ---       #51
      ---         BLOCKEND  ---      ---       LVL=0

      01000AB8H   BLOCK     CODE     ---       LVL=0
      00000007H   SYMBOL    DATA     BYTE      resp_gen
      01000AB8H   LINE      CODE     ---       #52
      01000AB8H   LINE      CODE     ---       #53
      01000AB8H   LINE      CODE     ---       #54
      01000ABBH   LINE      CODE     ---       #55
      01000ABBH   LINE      CODE     ---       #56
      01000ABEH   LINE      CODE     ---       #57
      01000ABFH   LINE      CODE     ---       #59
      01000ABFH   LINE      CODE     ---       #60
      01000AC2H   LINE      CODE     ---       #61
      01000AC2H   LINE      CODE     ---       #62
      ---         BLOCKEND  ---      ---       LVL=0

      01000AC3H   BLOCK     CODE     ---       LVL=0
      00000007H   SYMBOL    DATA     BYTE      alt_clk
      01000AC3H   LINE      CODE     ---       #64
      01000AC3H   LINE      CODE     ---       #65
      01000AC3H   LINE      CODE     ---       #66
      01000AC6H   LINE      CODE     ---       #67
      01000AC6H   LINE      CODE     ---       #68
      01000AC9H   LINE      CODE     ---       #69
      01000ACAH   LINE      CODE     ---       #71
      01000ACAH   LINE      CODE     ---       #72
      01000ACDH   LINE      CODE     ---       #73
      01000ACDH   LINE      CODE     ---       #74
      ---         BLOCKEND  ---      ---       LVL=0

LX51 LINKER/LOCATER V4.66.62.0                                                        11/14/2016  15:21:25  PAGE 28


      01000ACEH   BLOCK     CODE     ---       LVL=0
      00000007H   SYMBOL    DATA     BYTE      stop_cond
      01000ACEH   LINE      CODE     ---       #76
      01000ACEH   LINE      CODE     ---       #77
      01000ACEH   LINE      CODE     ---       #78
      01000AD1H   LINE      CODE     ---       #79
      01000AD1H   LINE      CODE     ---       #80
      01000AD4H   LINE      CODE     ---       #81
      01000AD5H   LINE      CODE     ---       #83
      01000AD5H   LINE      CODE     ---       #84
      01000AD8H   LINE      CODE     ---       #85
      01000AD8H   LINE      CODE     ---       #86
      ---         BLOCKEND  ---      ---       LVL=0

      01000AD9H   BLOCK     CODE     ---       LVL=0
      00000007H   SYMBOL    DATA     BYTE      addr_match
      01000AD9H   LINE      CODE     ---       #88
      01000AD9H   LINE      CODE     ---       #89
      01000AD9H   LINE      CODE     ---       #90
      01000ADCH   LINE      CODE     ---       #91
      01000ADCH   LINE      CODE     ---       #92
      01000ADFH   LINE      CODE     ---       #93
      01000AE0H   LINE      CODE     ---       #95
      01000AE0H   LINE      CODE     ---       #96
      01000AE3H   LINE      CODE     ---       #97
      01000AE3H   LINE      CODE     ---       #98
      ---         BLOCKEND  ---      ---       LVL=0

      01000B58H   BLOCK     CODE     ---       LVL=0
      00000007H   SYMBOL    DATA     BYTE      address
      01000B58H   LINE      CODE     ---       #100
      01000B58H   LINE      CODE     ---       #101
      01000B58H   LINE      CODE     ---       #102
      01000B5DH   LINE      CODE     ---       #103
      ---         BLOCKEND  ---      ---       LVL=0

      01000A56H   BLOCK     CODE     ---       LVL=0
      00000007H   SYMBOL    DATA     BYTE      freq
      01000A56H   LINE      CODE     ---       #107
      01000A56H   LINE      CODE     ---       #108
      01000A56H   LINE      CODE     ---       #109
      01000A63H   LINE      CODE     ---       #110
      ---         BLOCKEND  ---      ---       LVL=0

      01000AE4H   BLOCK     CODE     ---       LVL=0
      00000007H   SYMBOL    DATA     BYTE      mode
      01000AE4H   LINE      CODE     ---       #112
      01000AE4H   LINE      CODE     ---       #113
      01000AE4H   LINE      CODE     ---       #114
      01000AE7H   LINE      CODE     ---       #115
      01000AE7H   LINE      CODE     ---       #116
      01000AEAH   LINE      CODE     ---       #117
      01000AEBH   LINE      CODE     ---       #119
      01000AEBH   LINE      CODE     ---       #120
      01000AEEH   LINE      CODE     ---       #121
      01000AEEH   LINE      CODE     ---       #122
      ---         BLOCKEND  ---      ---       LVL=0

      01000AEFH   BLOCK     CODE     ---       LVL=0
      00000007H   SYMBOL    DATA     BYTE      en
      01000AEFH   LINE      CODE     ---       #124
      01000AEFH   LINE      CODE     ---       #125
      01000AEFH   LINE      CODE     ---       #126
      01000AF2H   LINE      CODE     ---       #127
      01000AF2H   LINE      CODE     ---       #128
LX51 LINKER/LOCATER V4.66.62.0                                                        11/14/2016  15:21:25  PAGE 29


      01000AF5H   LINE      CODE     ---       #129
      01000AF6H   LINE      CODE     ---       #131
      01000AF6H   LINE      CODE     ---       #132
      01000AF9H   LINE      CODE     ---       #133
      01000AF9H   LINE      CODE     ---       #134
      ---         BLOCKEND  ---      ---       LVL=0

      01000AFAH   BLOCK     CODE     ---       LVL=0
      00000007H   SYMBOL    DATA     BYTE      irq
      01000AFAH   LINE      CODE     ---       #136
      01000AFAH   LINE      CODE     ---       #137
      01000AFAH   LINE      CODE     ---       #140
      01000AFDH   LINE      CODE     ---       #141
      01000AFDH   LINE      CODE     ---       #142
      01000B00H   LINE      CODE     ---       #143
      01000B01H   LINE      CODE     ---       #145
      01000B01H   LINE      CODE     ---       #146
      01000B04H   LINE      CODE     ---       #147
      01000B04H   LINE      CODE     ---       #148
      ---         BLOCKEND  ---      ---       LVL=0

      010008EBH   BLOCK     CODE     ---       LVL=0
      00000006H   SYMBOL    DATA     BYTE      mode
      010008EBH   LINE      CODE     ---       #150
      010008EDH   LINE      CODE     ---       #151
      010008EDH   LINE      CODE     ---       #152
      010008F2H   LINE      CODE     ---       #153
      010008F7H   LINE      CODE     ---       #154
      010008FCH   LINE      CODE     ---       #156
      010008FFH   LINE      CODE     ---       #157
      01000902H   LINE      CODE     ---       #158
      01000905H   LINE      CODE     ---       #160
      01000909H   LINE      CODE     ---       #161
      0100090BH   LINE      CODE     ---       #162
      ---         BLOCKEND  ---      ---       LVL=0

      0100087AH   BLOCK     CODE     ---       LVL=0
      0100087AH   BLOCK     CODE     NEAR LAB  LVL=1
      00000019H   SYMBOL    DATA     DWORD     timeout_counter
      0000001DH   SYMBOL    DATA     BYTE      w2_status
      0000001EH   SYMBOL    DATA     BYTE      data_ready
      0000001FH   SYMBOL    DATA     BYTE      nack_received
      ---         BLOCKEND  ---      ---       LVL=1
      0100087AH   LINE      CODE     ---       #164
      0100087AH   LINE      CODE     ---       #165
      0100087AH   LINE      CODE     ---       #166
      01000884H   LINE      CODE     ---       #172
      01000884H   LINE      CODE     ---       #173
      01000887H   LINE      CODE     ---       #174
      0100088DH   LINE      CODE     ---       #175
      01000893H   LINE      CODE     ---       #176
      0100089AH   LINE      CODE     ---       #177
      0100089EH   LINE      CODE     ---       #180
      010008A0H   LINE      CODE     ---       #181
      ---         BLOCKEND  ---      ---       LVL=0

      010009EFH   BLOCK     CODE     ---       LVL=0
      00000007H   SYMBOL    DATA     BYTE      address
      00000005H   SYMBOL    DATA     BYTE      direction
      010009EFH   BLOCK     CODE     NEAR LAB  LVL=1
      00000007H   SYMBOL    DATA     BYTE      w2_status
      ---         BLOCKEND  ---      ---       LVL=1
      010009EFH   LINE      CODE     ---       #183
      010009EFH   LINE      CODE     ---       #184
      010009EFH   LINE      CODE     ---       #187
LX51 LINKER/LOCATER V4.66.62.0                                                        11/14/2016  15:21:25  PAGE 30


      010009F2H   LINE      CODE     ---       #188
      010009F6H   LINE      CODE     ---       #190
      010009F6H   LINE      CODE     ---       #192
      010009FEH   LINE      CODE     ---       #193
      010009FEH   LINE      CODE     ---       #194
      01000A00H   LINE      CODE     ---       #195
      01000A00H   LINE      CODE     ---       #197
      01000A00H   LINE      CODE     ---       #198
      01000A00H   LINE      CODE     ---       #199
      01000A00H   LINE      CODE     ---       #200
      ---         BLOCKEND  ---      ---       LVL=0

      01000759H   BLOCK     CODE     ---       LVL=0
      00000007H   SYMBOL    DATA     BYTE      address
      00000043H   SYMBOL    DATA     ---       data_ptr
      00000046H   SYMBOL    DATA     BYTE      data_len
      0100075FH   BLOCK     CODE     NEAR LAB  LVL=1
      00000006H   SYMBOL    DATA     BYTE      ack_received
      01000773H   BLOCK     CODE     NEAR LAB  LVL=2
      00000047H   SYMBOL    DATA     BYTE      w2_status
      ---         BLOCKEND  ---      ---       LVL=2
      ---         BLOCKEND  ---      ---       LVL=1
      01000759H   LINE      CODE     ---       #202
      0100075FH   LINE      CODE     ---       #203
      0100075FH   LINE      CODE     ---       #205
      01000766H   LINE      CODE     ---       #207
      01000773H   LINE      CODE     ---       #208
      01000773H   LINE      CODE     ---       #210
      0100077DH   LINE      CODE     ---       #211
      01000782H   LINE      CODE     ---       #212
      01000787H   LINE      CODE     ---       #213
      01000787H   LINE      CODE     ---       #214
      01000789H   LINE      CODE     ---       #215
      01000789H   LINE      CODE     ---       #216
      0100078BH   LINE      CODE     ---       #218
      0100078EH   LINE      CODE     ---       #220
      01000790H   LINE      CODE     ---       #221
      ---         BLOCKEND  ---      ---       LVL=0

      010006DDH   BLOCK     CODE     ---       LVL=0
      00000007H   SYMBOL    DATA     BYTE      address
      00000049H   SYMBOL    DATA     ---       data_ptr
      0000004CH   SYMBOL    DATA     BYTE      data_len
      010006E3H   BLOCK     CODE     NEAR LAB  LVL=1
      00000007H   SYMBOL    DATA     BYTE      w2_status
      0000004DH   SYMBOL    DATA     BYTE      ack_received
      ---         BLOCKEND  ---      ---       LVL=1
      010006DDH   LINE      CODE     ---       #223
      010006E3H   LINE      CODE     ---       #224
      010006E3H   LINE      CODE     ---       #228
      010006EAH   LINE      CODE     ---       #230
      010006EEH   LINE      CODE     ---       #231
      010006EEH   LINE      CODE     ---       #233
      010006F1H   LINE      CODE     ---       #234
      010006F1H   LINE      CODE     ---       #237
      010006FCH   LINE      CODE     ---       #238
      010006FCH   LINE      CODE     ---       #239
      01000700H   LINE      CODE     ---       #240
      01000700H   LINE      CODE     ---       #241
      01000703H   LINE      CODE     ---       #242
      01000703H   LINE      CODE     ---       #244
      01000706H   LINE      CODE     ---       #246
      01000710H   LINE      CODE     ---       #247
      0100071AH   LINE      CODE     ---       #248
      0100071CH   LINE      CODE     ---       #250
LX51 LINKER/LOCATER V4.66.62.0                                                        11/14/2016  15:21:25  PAGE 31


      0100071EH   LINE      CODE     ---       #251
      ---         BLOCKEND  ---      ---       LVL=0

      0100032DH   BLOCK     CODE     ---       LVL=0
      0100032DH   BLOCK     CODE     NEAR LAB  LVL=1
      00000034H   SYMBOL    DATA     BYTE      pulsecount
      00000035H   SYMBOL    DATA     BYTE      w2_freq
      ---         BLOCKEND  ---      ---       LVL=1
      0100032DH   LINE      CODE     ---       #253
      0100032DH   LINE      CODE     ---       #254
      0100032DH   LINE      CODE     ---       #259
      01000333H   LINE      CODE     ---       #261
      01000336H   LINE      CODE     ---       #262
      0100033EH   LINE      CODE     ---       #266
      01000341H   LINE      CODE     ---       #267
      01000344H   LINE      CODE     ---       #270
      01000347H   LINE      CODE     ---       #275
      0100034DH   LINE      CODE     ---       #278
      0100034DH   LINE      CODE     ---       #280
      0100034DH   LINE      CODE     ---       #284
      01000350H   LINE      CODE     ---       #285
      01000353H   LINE      CODE     ---       #286
      01000353H   LINE      CODE     ---       #288
      01000359H   LINE      CODE     ---       #289
      01000359H   LINE      CODE     ---       #291
      01000359H   LINE      CODE     ---       #292
      0100035CH   LINE      CODE     ---       #293
      01000365H   LINE      CODE     ---       #296
      01000365H   LINE      CODE     ---       #298
      0100036CH   LINE      CODE     ---       #301
      0100036CH   LINE      CODE     ---       #303
      01000373H   LINE      CODE     ---       #306
      01000376H   LINE      CODE     ---       #309
      01000379H   LINE      CODE     ---       #310
      0100037FH   LINE      CODE     ---       #312
      ---         BLOCKEND  ---      ---       LVL=0

      01000A35H   BLOCK     CODE     ---       LVL=0
      00000007H   SYMBOL    DATA     BYTE      devAddr
      00000005H   SYMBOL    DATA     BYTE      regAddr
      00000029H   SYMBOL    DATA     BYTE      data_to_write
      01000A35H   LINE      CODE     ---       #317
      01000A37H   LINE      CODE     ---       #318
      01000A45H   LINE      CODE     ---       #319
      ---         BLOCKEND  ---      ---       LVL=0

      0100071FH   BLOCK     CODE     ---       LVL=0
      00000007H   SYMBOL    DATA     BYTE      devAddr
      00000004H   SYMBOL    DATA     BYTE      regAddr
      00000006H   SYMBOL    DATA     BYTE      data_len
      0000002DH   SYMBOL    DATA     ---       data_ptr
      01000723H   BLOCK     CODE     NEAR LAB  LVL=1
      00000007H   SYMBOL    DATA     BYTE      w2_status
      00000005H   SYMBOL    DATA     BYTE      ack_received
      ---         BLOCKEND  ---      ---       LVL=1
      0100071FH   LINE      CODE     ---       #321
      01000723H   LINE      CODE     ---       #326
      0100072AH   LINE      CODE     ---       #327
      0100072CH   LINE      CODE     ---       #328
      0100072FH   LINE      CODE     ---       #329
      01000733H   LINE      CODE     ---       #330
      01000733H   LINE      CODE     ---       #331
      01000735H   LINE      CODE     ---       #332
      01000735H   LINE      CODE     ---       #334
      01000741H   LINE      CODE     ---       #335
LX51 LINKER/LOCATER V4.66.62.0                                                        11/14/2016  15:21:25  PAGE 32


      01000741H   LINE      CODE     ---       #336
      01000749H   LINE      CODE     ---       #337
      01000749H   LINE      CODE     ---       #338
      0100074FH   LINE      CODE     ---       #339
      0100074FH   LINE      CODE     ---       #340
      01000751H   LINE      CODE     ---       #341
      01000751H   LINE      CODE     ---       #342
      01000753H   LINE      CODE     ---       #343
      01000756H   LINE      CODE     ---       #345
      01000758H   LINE      CODE     ---       #346
      ---         BLOCKEND  ---      ---       LVL=0

      01000A01H   BLOCK     CODE     ---       LVL=0
      00000007H   SYMBOL    DATA     BYTE      devAddr
      00000005H   SYMBOL    DATA     BYTE      regAddr
      00000029H   SYMBOL    DATA     ---       data_ptr
      01000A01H   LINE      CODE     ---       #348
      01000A07H   LINE      CODE     ---       #349
      01000A12H   LINE      CODE     ---       #350
      ---         BLOCKEND  ---      ---       LVL=0

      01000403H   BLOCK     CODE     ---       LVL=0
      00000006H   SYMBOL    DATA     BYTE      devAddr
      00000004H   SYMBOL    DATA     BYTE      regAddr
      0000002EH   SYMBOL    DATA     BYTE      data_len
      0000002FH   SYMBOL    DATA     ---       data_ptr
      01000409H   BLOCK     CODE     NEAR LAB  LVL=1
      00000032H   SYMBOL    DATA     BYTE      w2_status
      00000033H   SYMBOL    DATA     BYTE      ack_received
      ---         BLOCKEND  ---      ---       LVL=1
      01000403H   LINE      CODE     ---       #352
      01000409H   LINE      CODE     ---       #357
      01000410H   LINE      CODE     ---       #358
      01000412H   LINE      CODE     ---       #359
      01000417H   LINE      CODE     ---       #360
      0100041CH   LINE      CODE     ---       #361
      0100041CH   LINE      CODE     ---       #362
      0100041FH   LINE      CODE     ---       #363
      0100041FH   LINE      CODE     ---       #367
      01000428H   LINE      CODE     ---       #369
      0100042CH   LINE      CODE     ---       #370
      0100042CH   LINE      CODE     ---       #372
      0100042FH   LINE      CODE     ---       #374
      0100042FH   LINE      CODE     ---       #376
      0100043AH   LINE      CODE     ---       #377
      0100043AH   LINE      CODE     ---       #378
      0100043EH   LINE      CODE     ---       #379
      0100043EH   LINE      CODE     ---       #380
      01000441H   LINE      CODE     ---       #381
      01000441H   LINE      CODE     ---       #383
      01000446H   LINE      CODE     ---       #385
      01000450H   LINE      CODE     ---       #386
      0100045BH   LINE      CODE     ---       #387
      0100045DH   LINE      CODE     ---       #389
      0100045FH   LINE      CODE     ---       #390
      ---         BLOCKEND  ---      ---       LVL=0

      010005B6H   BLOCK     CODE     ---       LVL=0
      00000022H   SYMBOL    DATA     BYTE      devAddr
      00000023H   SYMBOL    DATA     BYTE      regAddr
      00000024H   SYMBOL    DATA     BYTE      bitNum
      00000025H   SYMBOL    DATA     BYTE      data_to_write
      010005BCH   BLOCK     CODE     NEAR LAB  LVL=1
      00000026H   SYMBOL    DATA     BYTE      b
      ---         BLOCKEND  ---      ---       LVL=1
LX51 LINKER/LOCATER V4.66.62.0                                                        11/14/2016  15:21:25  PAGE 33


      010005B6H   LINE      CODE     ---       #393
      010005BCH   LINE      CODE     ---       #395
      010005C5H   LINE      CODE     ---       #396
      010005FAH   LINE      CODE     ---       #397
      01000603H   LINE      CODE     ---       #398
      ---         BLOCKEND  ---      ---       LVL=0

      010003A0H   BLOCK     CODE     ---       LVL=0
      00000022H   SYMBOL    DATA     BYTE      devAddr
      00000023H   SYMBOL    DATA     BYTE      regAddr
      00000024H   SYMBOL    DATA     BYTE      bitStart
      00000025H   SYMBOL    DATA     BYTE      data_length
      00000026H   SYMBOL    DATA     BYTE      data_to_write
      010003A6H   BLOCK     CODE     NEAR LAB  LVL=1
      00000027H   SYMBOL    DATA     BYTE      b
      010003B2H   BLOCK     CODE     NEAR LAB  LVL=2
      00000028H   SYMBOL    DATA     BYTE      mask
      ---         BLOCKEND  ---      ---       LVL=2
      ---         BLOCKEND  ---      ---       LVL=1
      010003A0H   LINE      CODE     ---       #399
      010003A6H   LINE      CODE     ---       #408
      010003B2H   LINE      CODE     ---       #409
      010003DFH   LINE      CODE     ---       #410
      010003ECH   LINE      CODE     ---       #411
      010003F0H   LINE      CODE     ---       #412
      010003F3H   LINE      CODE     ---       #413
      010003F7H   LINE      CODE     ---       #414
      01000400H   LINE      CODE     ---       #415
      01000400H   LINE      CODE     ---       #416
      01000402H   LINE      CODE     ---       #417
      01000402H   LINE      CODE     ---       #418
      ---         BLOCKEND  ---      ---       LVL=0

      010008C7H   BLOCK     CODE     ---       LVL=0
      00000007H   SYMBOL    DATA     BYTE      devAddr
      00000005H   SYMBOL    DATA     BYTE      regAddr
      0000003DH   SYMBOL    DATA     BYTE      bitNum
      0000003EH   SYMBOL    DATA     ---       data_ptr
      010008C9H   BLOCK     CODE     NEAR LAB  LVL=1
      00000041H   SYMBOL    DATA     BYTE      b
      00000007H   SYMBOL    DATA     BYTE      count
      ---         BLOCKEND  ---      ---       LVL=1
      010008C7H   LINE      CODE     ---       #419
      010008C9H   LINE      CODE     ---       #421
      010008D2H   LINE      CODE     ---       #422
      010008EAH   LINE      CODE     ---       #423
      010008EAH   LINE      CODE     ---       #424
      ---         BLOCKEND  ---      ---       LVL=0

      010004B8H   BLOCK     CODE     ---       LVL=0
      00000007H   SYMBOL    DATA     BYTE      devAddr
      00000005H   SYMBOL    DATA     BYTE      regAddr
      0000000AH   SYMBOL    DATA     BYTE      bitStart
      0000000BH   SYMBOL    DATA     BYTE      data_length
      0000000CH   SYMBOL    DATA     ---       data_ptr
      010004BAH   BLOCK     CODE     NEAR LAB  LVL=1
      00000005H   SYMBOL    DATA     BYTE      count
      0000000FH   SYMBOL    DATA     BYTE      b
      010004C8H   BLOCK     CODE     NEAR LAB  LVL=2
      00000010H   SYMBOL    DATA     BYTE      mask
      ---         BLOCKEND  ---      ---       LVL=2
      ---         BLOCKEND  ---      ---       LVL=1
      010004B8H   LINE      CODE     ---       #425
      010004BAH   LINE      CODE     ---       #432
      010004C8H   LINE      CODE     ---       #433
LX51 LINKER/LOCATER V4.66.62.0                                                        11/14/2016  15:21:25  PAGE 34


      010004F5H   LINE      CODE     ---       #434
      010004F7H   LINE      CODE     ---       #435
      01000504H   LINE      CODE     ---       #436
      0100050DH   LINE      CODE     ---       #437
      0100050DH   LINE      CODE     ---       #438
      0100050FH   LINE      CODE     ---       #439
      ---         BLOCKEND  ---      ---       LVL=0

      010009CAH   BLOCK     CODE     ---       LVL=0
      00000007H   SYMBOL    DATA     BYTE      devAddr
      00000005H   SYMBOL    DATA     BYTE      regAddr
      00000022H   SYMBOL    DATA     WORD      data_to_write
      010009CAH   LINE      CODE     ---       #442
      010009CEH   LINE      CODE     ---       #443
      010009DCH   LINE      CODE     ---       #444
      ---         BLOCKEND  ---      ---       LVL=0

      01000510H   BLOCK     CODE     ---       LVL=0
      00000007H   SYMBOL    DATA     BYTE      devAddr
      00000006H   SYMBOL    DATA     BYTE      regAddr
      00000004H   SYMBOL    DATA     BYTE      data_length
      00000027H   SYMBOL    DATA     ---       data_ptr
      01000514H   BLOCK     CODE     NEAR LAB  LVL=1
      00000007H   SYMBOL    DATA     BYTE      w2_status
      00000005H   SYMBOL    DATA     BYTE      ack_received
      ---         BLOCKEND  ---      ---       LVL=1
      01000510H   LINE      CODE     ---       #445
      01000514H   LINE      CODE     ---       #456
      0100051BH   LINE      CODE     ---       #457
      0100051DH   LINE      CODE     ---       #458
      01000520H   LINE      CODE     ---       #459
      01000524H   LINE      CODE     ---       #460
      01000524H   LINE      CODE     ---       #461
      01000526H   LINE      CODE     ---       #462
      01000526H   LINE      CODE     ---       #464
      01000534H   LINE      CODE     ---       #465
      01000534H   LINE      CODE     ---       #466
      0100053FH   LINE      CODE     ---       #467
      0100053FH   LINE      CODE     ---       #468
      01000545H   LINE      CODE     ---       #469
      01000545H   LINE      CODE     ---       #470
      01000547H   LINE      CODE     ---       #471
      01000547H   LINE      CODE     ---       #472
      0100054AH   LINE      CODE     ---       #473
      01000556H   LINE      CODE     ---       #474
      01000556H   LINE      CODE     ---       #475
      0100055CH   LINE      CODE     ---       #476
      0100055CH   LINE      CODE     ---       #477
      0100055EH   LINE      CODE     ---       #478
      0100055EH   LINE      CODE     ---       #479
      01000560H   LINE      CODE     ---       #480
      01000560H   LINE      CODE     ---       #481
      01000560H   LINE      CODE     ---       #482
      01000560H   LINE      CODE     ---       #483
      01000563H   LINE      CODE     ---       #485
      01000565H   LINE      CODE     ---       #486
      ---         BLOCKEND  ---      ---       LVL=0

      ---         MODULE    ---      ---       HAL_DELAY
      01000990H   PUBLIC    CODE     ---       _delay_ms
      01000952H   PUBLIC    CODE     ---       _delay_us

      01000947H   BLOCK     CODE     ---       LVL=0
      ---         BLOCKEND  ---      ---       LVL=0

LX51 LINKER/LOCATER V4.66.62.0                                                        11/14/2016  15:21:25  PAGE 35


      01000952H   BLOCK     CODE     ---       LVL=0
      00000006H   SYMBOL    DATA     WORD      us
      01000952H   LINE      CODE     ---       #37
      01000952H   LINE      CODE     ---       #38
      01000952H   LINE      CODE     ---       #40
      01000952H   LINE      CODE     ---       #41
      01000953H   LINE      CODE     ---       #42
      01000954H   LINE      CODE     ---       #43
      01000955H   LINE      CODE     ---       #44
      01000956H   LINE      CODE     ---       #45
      01000957H   LINE      CODE     ---       #46
      01000960H   LINE      CODE     ---       #47
      ---         BLOCKEND  ---      ---       LVL=0

      01000990H   BLOCK     CODE     ---       LVL=0
      00000004H   SYMBOL    DATA     WORD      ms
      01000990H   LINE      CODE     ---       #49
      01000994H   LINE      CODE     ---       #50
      01000994H   LINE      CODE     ---       #52
      01000994H   LINE      CODE     ---       #53
      01000994H   LINE      CODE     ---       #54
      01000997H   LINE      CODE     ---       #55
      01000997H   LINE      CODE     ---       #56
      0100099AH   LINE      CODE     ---       #57
      010009A3H   LINE      CODE     ---       #58
      ---         BLOCKEND  ---      ---       LVL=0

      ---         MODULE    ---      ---       ?C_INIT
      010001DAH   PUBLIC    CODE     ---       ?C_START

      ---         MODULE    ---      ---       ?C?CLDPTR
      0100021FH   PUBLIC    CODE     ---       ?C?CLDPTR

      ---         MODULE    ---      ---       ?C?CSTPTR
      01000238H   PUBLIC    CODE     ---       ?C?CSTPTR

      ---         MODULE    ---      ---       ?C?CSTOPTR
      0100024AH   PUBLIC    CODE     ---       ?C?CSTOPTR

      ---         MODULE    ---      ---       ?C?ILDPTR
      0100026CH   PUBLIC    CODE     ---       ?C?ILDPTR

      ---         MODULE    ---      ---       ?C?PLDIIDATA
      01000297H   PUBLIC    CODE     ---       ?C?PLDIIDATA



*** WARNING L57: UNCALLED FUNCTION, IGNORED FOR OVERLAY PROCESS
    NAME:    MPU_TESTCONNECTION/MAIN

*** WARNING L57: UNCALLED FUNCTION, IGNORED FOR OVERLAY PROCESS
    NAME:    _SETMEMORYBANK/MAIN

*** WARNING L57: UNCALLED FUNCTION, IGNORED FOR OVERLAY PROCESS
    NAME:    GETFIFOCOUNT/MAIN

*** WARNING L57: UNCALLED FUNCTION, IGNORED FOR OVERLAY PROCESS
    NAME:    GETINTSTATUS/MAIN

*** WARNING L57: UNCALLED FUNCTION, IGNORED FOR OVERLAY PROCESS
    NAME:    _SETDMPENABLED/MAIN

*** WARNING L57: UNCALLED FUNCTION, IGNORED FOR OVERLAY PROCESS
    NAME:    RESETFIFO/MAIN

LX51 LINKER/LOCATER V4.66.62.0                                                        11/14/2016  15:21:25  PAGE 36


*** WARNING L57: UNCALLED FUNCTION, IGNORED FOR OVERLAY PROCESS
    NAME:    DMPGETFIFOPACKETSIZE/MAIN

*** WARNING L57: UNCALLED FUNCTION, IGNORED FOR OVERLAY PROCESS
    NAME:    _GETFIFOBYTES/MAIN

*** WARNING L57: UNCALLED FUNCTION, IGNORED FOR OVERLAY PROCESS
    NAME:    _ENVIAR_MSG_TO_HOST_HEX/MAIN

*** WARNING L57: UNCALLED FUNCTION, IGNORED FOR OVERLAY PROCESS
    NAME:    _HAL_W2_RESPOND_TO_GEN_ADR/HAL_W2_ISR

*** WARNING L57: UNCALLED FUNCTION, IGNORED FOR OVERLAY PROCESS
    NAME:    _HAL_W2_ALTER_CLOCK/HAL_W2_ISR

*** WARNING L57: UNCALLED FUNCTION, IGNORED FOR OVERLAY PROCESS
    NAME:    _HAL_W2_IRQ_STOP_COND_ENABLE/HAL_W2_ISR

*** WARNING L57: UNCALLED FUNCTION, IGNORED FOR OVERLAY PROCESS
    NAME:    _HAL_W2_IRQ_ADR_MATCH_ENABLE/HAL_W2_ISR

*** WARNING L57: UNCALLED FUNCTION, IGNORED FOR OVERLAY PROCESS
    NAME:    _HAL_W2_SET_SLAVE_ADDRESS/HAL_W2_ISR

*** WARNING L57: UNCALLED FUNCTION, IGNORED FOR OVERLAY PROCESS
    NAME:    HAL_W2_WAIT_DATA_READY/HAL_W2_ISR

*** WARNING L57: UNCALLED FUNCTION, IGNORED FOR OVERLAY PROCESS
    NAME:    _HAL_W2_WRITE/HAL_W2_ISR

*** WARNING L57: UNCALLED FUNCTION, IGNORED FOR OVERLAY PROCESS
    NAME:    _HAL_W2_READ/HAL_W2_ISR

*** WARNING L57: UNCALLED FUNCTION, IGNORED FOR OVERLAY PROCESS
    NAME:    _I2C_MPU_READBIT/HAL_W2_ISR

Program Size: data=88.1 xdata=92 const=80 code=2903
LX51 RUN COMPLETE.  18 WARNING(S),  0 ERROR(S)
