BL51 BANKED LINKER/LOCATER V6.22                                                        11/13/2016  19:39:38  PAGE 1


BL51 BANKED LINKER/LOCATER V6.22, INVOKED BY:
C:\KEIL_V5\C51\BIN\BL51.EXE .\Objects\STARTUP.obj, .\Objects\mod2-receptor.obj TO .\Objects\mod2-receptor PRINT (.\Listi
>> ngs\mod2-receptor.m51) RAMSIZE (256)


MEMORY MODEL: SMALL


INPUT MODULES INCLUDED:
  .\Objects\STARTUP.obj (?C_STARTUP)
  .\Objects\mod2-receptor.obj (MOD2_RECEPTOR)
  C:\KEIL_V5\C51\LIB\C51S.LIB (?C_INIT)
  C:\KEIL_V5\C51\LIB\C51S.LIB (?C?CLDPTR)
  C:\KEIL_V5\C51\LIB\C51S.LIB (?C?CSTOPTR)


LINK MAP OF MODULE:  .\Objects\mod2-receptor (?C_STARTUP)


            TYPE    BASE      LENGTH    RELOCATION   SEGMENT NAME
            -----------------------------------------------------

            * * * * * * *   D A T A   M E M O R Y   * * * * * * *
            REG     0000H     0008H     ABSOLUTE     "REG BANK 0"
            DATA    0008H     000CH     UNIT         _DATA_GROUP_
            DATA    0014H     0008H     UNIT         ?DT?MOD2_RECEPTOR
                    001CH     0004H                  *** GAP ***
            DATA    0020H     0001H     BIT_ADDR     ?BA?MOD2_RECEPTOR
            BIT     0021H.0   0000H.1   UNIT         ?BI?MOD2_RECEPTOR
                    0021H.1   0000H.7                *** GAP ***
            IDATA   0022H     0001H     UNIT         ?STACK

            * * * * * * *  X D A T A   M E M O R Y  * * * * * * *
            XDATA   0000H     0036H     UNIT         ?XD?MOD2_RECEPTOR

            * * * * * * *   C O D E   M E M O R Y   * * * * * * *
            CODE    0000H     0003H     ABSOLUTE     
            CODE    0003H     0046H     UNIT         ?PR?RF_INIT?MOD2_RECEPTOR
                    0049H     0002H                  *** GAP ***
            CODE    004BH     0003H     ABSOLUTE     
            CODE    004EH     00DEH     UNIT         ?PR?MAIN?MOD2_RECEPTOR
            CODE    012CH     008CH     UNIT         ?C_C51STARTUP
            CODE    01B8H     0086H     UNIT         ?PR?RF_IRQ?MOD2_RECEPTOR
            CODE    023EH     003DH     UNIT         ?PR?_SPI_WRITE_BUF?MOD2_RECEPTOR
            CODE    027BH     003CH     UNIT         ?CO?MOD2_RECEPTOR
            CODE    02B7H     003BH     UNIT         ?C?LIB_CODE
            CODE    02F2H     0031H     UNIT         ?PR?_SPI_READ_BUF?MOD2_RECEPTOR
            CODE    0323H     002DH     UNIT         ?PR?_TX_MODE_NOACK?MOD2_RECEPTOR
            CODE    0350H     0025H     UNIT         ?PR?_PUTSTRING?MOD2_RECEPTOR
            CODE    0375H     0025H     UNIT         ?PR?_DELAY_MS?MOD2_RECEPTOR
            CODE    039AH     001EH     UNIT         ?PR?LUZES_INICIAIS?MOD2_RECEPTOR
            CODE    03B8H     001AH     UNIT         ?PR?UART_INIT?MOD2_RECEPTOR
            CODE    03D2H     0017H     UNIT         ?PR?SETUP?MOD2_RECEPTOR
            CODE    03E9H     0016H     UNIT         ?PR?_UART_PUTCHAR?MOD2_RECEPTOR
            CODE    03FFH     0013H     UNIT         ?PR?_SPI_RW_REG?MOD2_RECEPTOR
            CODE    0412H     0011H     UNIT         ?PR?RX_MODE?MOD2_RECEPTOR
            CODE    0423H     0011H     UNIT         ?PR?INICIARIO?MOD2_RECEPTOR
            CODE    0434H     000DH     UNIT         ?PR?_SPI_READ?MOD2_RECEPTOR
BL51 BANKED LINKER/LOCATER V6.22                                                      11/13/2016  19:39:38  PAGE 2


            CODE    0441H     000DH     UNIT         ?C_INITSEG
            CODE    044EH     000CH     UNIT         ?PR?INICIARRF?MOD2_RECEPTOR
            CODE    045AH     000AH     UNIT         ?PR?_SPI_RW?MOD2_RECEPTOR



OVERLAY MAP OF MODULE:   .\Objects\mod2-receptor (?C_STARTUP)


SEGMENT                                    DATA_GROUP 
  +--> CALLED SEGMENT                    START    LENGTH
--------------------------------------------------------
?C_C51STARTUP                            -----    -----
  +--> ?PR?MAIN?MOD2_RECEPTOR
  +--> ?C_INITSEG

?PR?MAIN?MOD2_RECEPTOR                   -----    -----
  +--> ?PR?SETUP?MOD2_RECEPTOR
  +--> ?PR?_TX_MODE_NOACK?MOD2_RECEPTOR
  +--> ?PR?RX_MODE?MOD2_RECEPTOR
  +--> ?CO?MOD2_RECEPTOR
  +--> ?PR?_PUTSTRING?MOD2_RECEPTOR
  +--> ?PR?_DELAY_MS?MOD2_RECEPTOR
  +--> ?PR?_UART_PUTCHAR?MOD2_RECEPTOR

?PR?SETUP?MOD2_RECEPTOR                  -----    -----
  +--> ?PR?INICIARIO?MOD2_RECEPTOR
  +--> ?PR?INICIARRF?MOD2_RECEPTOR
  +--> ?PR?UART_INIT?MOD2_RECEPTOR
  +--> ?PR?LUZES_INICIAIS?MOD2_RECEPTOR
  +--> ?CO?MOD2_RECEPTOR
  +--> ?PR?_PUTSTRING?MOD2_RECEPTOR

?PR?INICIARRF?MOD2_RECEPTOR              -----    -----
  +--> ?PR?RF_INIT?MOD2_RECEPTOR
  +--> ?PR?RX_MODE?MOD2_RECEPTOR

?PR?RF_INIT?MOD2_RECEPTOR                -----    -----
  +--> ?PR?_SPI_WRITE_BUF?MOD2_RECEPTOR
  +--> ?PR?_SPI_RW_REG?MOD2_RECEPTOR

?PR?_SPI_WRITE_BUF?MOD2_RECEPTOR         000AH    0005H
  +--> ?PR?_SPI_RW?MOD2_RECEPTOR

?PR?_SPI_RW_REG?MOD2_RECEPTOR            -----    -----
  +--> ?PR?_SPI_RW?MOD2_RECEPTOR

?PR?RX_MODE?MOD2_RECEPTOR                -----    -----
  +--> ?PR?_SPI_RW_REG?MOD2_RECEPTOR

?PR?LUZES_INICIAIS?MOD2_RECEPTOR         -----    -----
  +--> ?PR?_DELAY_MS?MOD2_RECEPTOR

?PR?_PUTSTRING?MOD2_RECEPTOR             0008H    0003H
  +--> ?PR?_UART_PUTCHAR?MOD2_RECEPTOR

?PR?_TX_MODE_NOACK?MOD2_RECEPTOR         0008H    0002H
BL51 BANKED LINKER/LOCATER V6.22                                                      11/13/2016  19:39:38  PAGE 3


  +--> ?PR?_SPI_RW_REG?MOD2_RECEPTOR
  +--> ?PR?_SPI_WRITE_BUF?MOD2_RECEPTOR

*** NEW ROOT ***************************************************

?PR?RF_IRQ?MOD2_RECEPTOR                 -----    -----
  +--> ?PR?_SPI_READ?MOD2_RECEPTOR
  +--> ?PR?_SPI_READ_BUF?MOD2_RECEPTOR
  +--> ?PR?_SPI_RW_REG?MOD2_RECEPTOR

?PR?_SPI_READ?MOD2_RECEPTOR              -----    -----
  +--> ?PR?_SPI_RW?MOD2_RECEPTOR

?PR?_SPI_READ_BUF?MOD2_RECEPTOR          000FH    0005H
  +--> ?PR?_SPI_RW?MOD2_RECEPTOR



SYMBOL TABLE OF MODULE:  .\Objects\mod2-receptor (?C_STARTUP)

  VALUE           TYPE          NAME
  ----------------------------------

  -------         MODULE        ?C_STARTUP
  C:012CH         SEGMENT       ?C_C51STARTUP
  I:0022H         SEGMENT       ?STACK
  C:0000H         PUBLIC        ?C_STARTUP
  D:00E0H         SYMBOL        ACC
  D:00F0H         SYMBOL        B
  D:0083H         SYMBOL        DPH
  D:0082H         SYMBOL        DPL
  N:0000H         SYMBOL        IBPSTACK
  N:0100H         SYMBOL        IBPSTACKTOP
  N:0080H         SYMBOL        IDATALEN
  C:012FH         SYMBOL        IDATALOOP
  N:0000H         SYMBOL        PBPSTACK
  N:0100H         SYMBOL        PBPSTACKTOP
  N:0000H         SYMBOL        PDATALEN
  N:0000H         SYMBOL        PDATASTART
  N:0000H         SYMBOL        PPAGE
  N:0000H         SYMBOL        PPAGEENABLE
  D:00A0H         SYMBOL        PPAGE_SFR
  D:0081H         SYMBOL        SP
  C:012CH         SYMBOL        STARTUP1
  N:0000H         SYMBOL        XBPSTACK
  N:0000H         SYMBOL        XBPSTACKTOP
  N:0000H         SYMBOL        XDATALEN
  N:0000H         SYMBOL        XDATASTART
  C:0000H         LINE#         126
  C:012CH         LINE#         133
  C:012EH         LINE#         134
  C:012FH         LINE#         135
  C:0130H         LINE#         136
  C:0132H         LINE#         185
  C:0135H         LINE#         196
  -------         ENDMOD        ?C_STARTUP

BL51 BANKED LINKER/LOCATER V6.22                                                      11/13/2016  19:39:38  PAGE 4


  -------         MODULE        MOD2_RECEPTOR
  C:0000H         SYMBOL        _ICE_DUMMY_
  D:0080H         PUBLIC        P0
  D:0090H         PUBLIC        P1
  D:00A0H         PUBLIC        P2
  D:00B0H         PUBLIC        P3
  B:0080H.2       PUBLIC        S1
  B:0090H.4       PUBLIC        S2
  B:00A8H.7       PUBLIC        EA
  X:0000H         PUBLIC        rx_buf
  X:001BH         PUBLIC        tx_buf
  D:00A8H         PUBLIC        IEN0
  D:00B8H         PUBLIC        IEN1
  C:0412H         PUBLIC        RX_Mode
  B:0098H.4       PUBLIC        REN0
  B:00B8H.1       PUBLIC        RF
  D:00E7H         PUBLIC        SPIRDAT
  C:03F7H         PUBLIC        _uart_putchar
  B:0021H.0       PUBLIC        newPayload
  B:0020H.6       PUBLIC        RX_DR
  B:00E8H.0       PUBLIC        RFCE
  B:0020H.5       PUBLIC        TX_DS
  C:004EH         PUBLIC        main
  D:00BAH         PUBLIC        S0RELH
  D:0087H         PUBLIC        PCON
  C:03D2H         PUBLIC        setup
  D:00AAH         PUBLIC        S0RELL
  D:0088H         PUBLIC        TCON
  B:00E8H.2       PUBLIC        RFCKEN
  D:0014H         PUBLIC        ADDR_HOST
  B:00A8H.4       PUBLIC        ES0
  D:0020H         PUBLIC        sta
  C:02F2H         PUBLIC        _SPI_Read_Buf
  C:0434H         PUBLIC        _SPI_Read
  B:0098H.1       PUBLIC        TI0
  B:0098H.7       PUBLIC        SM0
  B:0098H.6       PUBLIC        SM1
  D:0019H         PUBLIC        ii
  C:0379H         PUBLIC        _delay_ms
  C:03B8H         PUBLIC        uart_init
  C:0249H         PUBLIC        _SPI_Write_Buf
  D:0093H         PUBLIC        P0DIR
  D:009EH         PUBLIC        P0CON
  D:0099H         PUBLIC        S0BUF
  D:0094H         PUBLIC        P1DIR
  C:0329H         PUBLIC        _TX_Mode_NOACK
  D:009FH         PUBLIC        P1CON
  D:0095H         PUBLIC        P2DIR
  D:0097H         PUBLIC        P2CON
  D:0098H         PUBLIC        S0CON
  C:039AH         PUBLIC        luzes_iniciais
  C:01B8H         PUBLIC        RF_IRQ
  D:00D8H         PUBLIC        ADCON
  D:00C8H         PUBLIC        T2CON
  D:00F8H         PUBLIC        FSR
  B:0020H.4       PUBLIC        MAX_RT
  C:0003H         PUBLIC        rf_init
BL51 BANKED LINKER/LOCATER V6.22                                                      11/13/2016  19:39:38  PAGE 5


  B:0080H.6       PUBLIC        LEDVD
  D:001BH         PUBLIC        payloadWidth
  C:0350H         PUBLIC        _putstring
  C:03FFH         PUBLIC        _SPI_RW_Reg
  C:045AH         PUBLIC        _SPI_RW
  D:00E8H         PUBLIC        RFCON
  D:00D0H         PUBLIC        PSW
  C:044EH         PUBLIC        iniciarRF
  C:0423H         PUBLIC        iniciarIO
  D:00C0H         PUBLIC        IRCON
  B:00E8H.1       PUBLIC        RFCSN
  D:00E6H         PUBLIC        SPIRSTAT
  -------         PROC          _SPI_RW
  D:0007H         SYMBOL        value
  C:045AH         LINE#         29
  C:045AH         LINE#         30
  C:045AH         LINE#         31
  C:045CH         LINE#         33
  C:0461H         LINE#         35
  C:0463H         LINE#         36
  -------         ENDPROC       _SPI_RW
  -------         PROC          _SPI_RW_REG
  D:0007H         SYMBOL        reg
  D:0006H         SYMBOL        value
  -------         DO            
  D:0005H         SYMBOL        status
  -------         ENDDO         
  C:03FFH         LINE#         38
  C:0401H         LINE#         39
  C:0401H         LINE#         42
  C:0403H         LINE#         43
  C:0408H         LINE#         44
  C:040DH         LINE#         45
  C:040FH         LINE#         47
  C:0411H         LINE#         48
  -------         ENDPROC       _SPI_RW_REG
  -------         PROC          _SPI_READ
  D:0007H         SYMBOL        reg
  -------         DO            
  D:0007H         SYMBOL        reg_val
  -------         ENDDO         
  C:0434H         LINE#         50
  C:0434H         LINE#         51
  C:0434H         LINE#         54
  C:0436H         LINE#         55
  C:0439H         LINE#         56
  C:043EH         LINE#         57
  C:0440H         LINE#         59
  C:0440H         LINE#         60
  -------         ENDPROC       _SPI_READ
  -------         PROC          _SPI_READ_BUF
  D:0007H         SYMBOL        reg
  D:0010H         SYMBOL        pBuf
  D:0013H         SYMBOL        bytes
  -------         DO            
  D:0006H         SYMBOL        status
  D:0005H         SYMBOL        byte_ctr
BL51 BANKED LINKER/LOCATER V6.22                                                      11/13/2016  19:39:38  PAGE 6


  -------         ENDDO         
  C:02F2H         LINE#         62
  C:02F8H         LINE#         63
  C:02F8H         LINE#         66
  C:02FAH         LINE#         67
  C:02FFH         LINE#         69
  C:0307H         LINE#         70
  C:031EH         LINE#         72
  C:0320H         LINE#         74
  C:0322H         LINE#         75
  -------         ENDPROC       _SPI_READ_BUF
  -------         PROC          L?0076
  -------         ENDPROC       L?0076
  -------         PROC          _SPI_WRITE_BUF
  D:0007H         SYMBOL        reg
  D:000BH         SYMBOL        pBuf
  D:000EH         SYMBOL        bytes
  -------         DO            
  D:0006H         SYMBOL        status
  D:0005H         SYMBOL        byte_ctr
  -------         ENDDO         
  C:0249H         LINE#         77
  C:024FH         LINE#         78
  C:024FH         LINE#         81
  C:0251H         LINE#         82
  C:0256H         LINE#         83
  C:025EH         LINE#         84
  C:0276H         LINE#         85
  C:0278H         LINE#         86
  C:027AH         LINE#         87
  -------         ENDPROC       _SPI_WRITE_BUF
  -------         PROC          RX_MODE
  C:0412H         LINE#         90
  C:0412H         LINE#         91
  C:0412H         LINE#         92
  C:0415H         LINE#         93
  C:0417H         LINE#         94
  C:0419H         LINE#         95
  C:0420H         LINE#         96
  C:0422H         LINE#         97
  -------         ENDPROC       RX_MODE
  -------         PROC          L?0077
  -------         ENDPROC       L?0077
  -------         PROC          _TX_MODE_NOACK
  D:0008H         SYMBOL        payloadLength
  C:0329H         LINE#         99
  C:032DH         LINE#         100
  C:032DH         LINE#         101
  C:032FH         LINE#         102
  C:0336H         LINE#         103
  C:0339H         LINE#         104
  C:0347H         LINE#         106
  C:0349H         LINE#         107
  C:034FH         LINE#         108
  -------         ENDPROC       _TX_MODE_NOACK
  -------         PROC          RF_IRQ
  C:01B8H         LINE#         111
BL51 BANKED LINKER/LOCATER V6.22                                                      11/13/2016  19:39:38  PAGE 7


  C:01D1H         LINE#         113
  C:01D8H         LINE#         114
  C:01DBH         LINE#         115
  C:01DBH         LINE#         116
  C:01E9H         LINE#         117
  C:01F0H         LINE#         118
  C:01F2H         LINE#         119
  C:01F9H         LINE#         120
  C:0200H         LINE#         121
  C:0200H         LINE#         122
  C:0203H         LINE#         123
  C:020AH         LINE#         124
  C:020CH         LINE#         125
  C:020CH         LINE#         126
  C:020CH         LINE#         127
  C:020FH         LINE#         128
  C:0216H         LINE#         129
  C:0219H         LINE#         130
  C:0220H         LINE#         132
  C:0227H         LINE#         133
  -------         ENDPROC       RF_IRQ
  -------         PROC          RF_INIT
  C:0003H         LINE#         136
  C:0003H         LINE#         137
  C:0003H         LINE#         138
  C:0005H         LINE#         139
  C:0007H         LINE#         141
  C:0015H         LINE#         142
  C:0018H         LINE#         143
  C:001FH         LINE#         145
  C:0026H         LINE#         146
  C:002DH         LINE#         147
  C:0034H         LINE#         148
  C:003BH         LINE#         150
  C:0042H         LINE#         151
  -------         ENDPROC       RF_INIT
  -------         PROC          INICIARIO
  C:0423H         LINE#         57
  C:0423H         LINE#         59
  C:0426H         LINE#         60
  C:0429H         LINE#         61
  C:042CH         LINE#         62
  C:042FH         LINE#         63
  C:0431H         LINE#         64
  C:0433H         LINE#         65
  -------         ENDPROC       INICIARIO
  -------         PROC          INICIARRF
  C:044EH         LINE#         66
  C:044EH         LINE#         68
  C:0450H         LINE#         69
  C:0452H         LINE#         70
  C:0454H         LINE#         71
  C:0457H         LINE#         72
  -------         ENDPROC       INICIARRF
  -------         PROC          SETUP
  C:03D2H         LINE#         74
  C:03D2H         LINE#         75
BL51 BANKED LINKER/LOCATER V6.22                                                      11/13/2016  19:39:38  PAGE 8


  C:03D5H         LINE#         76
  C:03D8H         LINE#         77
  C:03DBH         LINE#         78
  C:03E0H         LINE#         79
  -------         ENDPROC       SETUP
  -------         PROC          MAIN
  C:004EH         LINE#         81
  C:004EH         LINE#         82
  C:0051H         LINE#         83
  C:0051H         LINE#         84
  C:0054H         LINE#         86
  C:005AH         LINE#         87
  C:005CH         LINE#         89
  C:005FH         LINE#         90
  C:0062H         LINE#         91
  C:006BH         LINE#         92
  C:006EH         LINE#         93
  C:0071H         LINE#         94
  C:0074H         LINE#         95
  C:0074H         LINE#         96
  C:0077H         LINE#         98
  C:007DH         LINE#         99
  C:007FH         LINE#         101
  C:0082H         LINE#         102
  C:0085H         LINE#         103
  C:008EH         LINE#         104
  C:0090H         LINE#         105
  C:0093H         LINE#         106
  C:0096H         LINE#         107
  C:0099H         LINE#         108
  C:0099H         LINE#         109
  C:009CH         LINE#         110
  C:00AAH         LINE#         112
  C:00AFH         LINE#         113
  C:00B4H         LINE#         114
  C:00B9H         LINE#         115
  C:00BCH         LINE#         116
  C:00CDH         LINE#         117
  C:00CFH         LINE#         118
  C:00D9H         LINE#         119
  C:00E9H         LINE#         120
  C:00ECH         LINE#         121
  C:00F6H         LINE#         122
  C:00FBH         LINE#         123
  C:00FDH         LINE#         124
  C:0102H         LINE#         125
  C:0107H         LINE#         126
  C:0117H         LINE#         127
  C:011AH         LINE#         128
  C:0124H         LINE#         129
  C:0124H         LINE#         130
  C:0127H         LINE#         131
  C:0129H         LINE#         132
  C:0129H         LINE#         133
  -------         ENDPROC       MAIN
  -------         PROC          UART_INIT
  C:03B8H         LINE#         137
BL51 BANKED LINKER/LOCATER V6.22                                                      11/13/2016  19:39:38  PAGE 9


  C:03B8H         LINE#         138
  C:03BAH         LINE#         139
  C:03BCH         LINE#         140
  C:03BEH         LINE#         141
  C:03C0H         LINE#         142
  C:03C3H         LINE#         143
  C:03C6H         LINE#         145
  C:03C9H         LINE#         146
  C:03CCH         LINE#         147
  C:03CEH         LINE#         148
  C:03D1H         LINE#         149
  -------         ENDPROC       UART_INIT
  C:03E9H         SYMBOL        L?0073
  -------         PROC          L?0072
  -------         ENDPROC       L?0072
  C:03E9H         SYMBOL        L?0073
  -------         PROC          _UART_PUTCHAR
  D:0007H         SYMBOL        x
  C:03F7H         LINE#         151
  C:03F7H         LINE#         152
  C:03FAH         LINE#         153
  C:03FCH         LINE#         154
  C:03FEH         LINE#         155
  -------         ENDPROC       _UART_PUTCHAR
  -------         PROC          _PUTSTRING
  D:0008H         SYMBOL        s
  C:0350H         LINE#         158
  C:0356H         LINE#         159
  C:0361H         LINE#         160
  C:0374H         LINE#         161
  -------         ENDPROC       _PUTSTRING
  -------         PROC          LUZES_INICIAIS
  C:039AH         LINE#         163
  C:039AH         LINE#         164
  C:039CH         LINE#         165
  C:03A3H         LINE#         166
  C:03A5H         LINE#         167
  C:03ACH         LINE#         168
  C:03AEH         LINE#         169
  C:03B5H         LINE#         170
  C:03B7H         LINE#         171
  -------         ENDPROC       LUZES_INICIAIS
  C:0375H         SYMBOL        L?0075
  -------         PROC          L?0074
  -------         ENDPROC       L?0074
  C:0375H         SYMBOL        L?0075
  -------         PROC          _DELAY_MS
  D:0006H         SYMBOL        x
  -------         DO            
  D:0004H         SYMBOL        i
  D:0002H         SYMBOL        j
  -------         ENDDO         
  C:0379H         LINE#         172
  C:0379H         LINE#         174
  C:037CH         LINE#         175
  C:0383H         LINE#         176
  C:0383H         LINE#         177
BL51 BANKED LINKER/LOCATER V6.22                                                      11/13/2016  19:39:38  PAGE 10


  C:0387H         LINE#         179
  C:0392H         LINE#         180
  C:0399H         LINE#         181
  -------         ENDPROC       _DELAY_MS
  -------         ENDMOD        MOD2_RECEPTOR

  -------         MODULE        ?C?CLDPTR
  C:02B7H         PUBLIC        ?C?CLDPTR
  -------         ENDMOD        ?C?CLDPTR

  -------         MODULE        ?C?CSTOPTR
  C:02D0H         PUBLIC        ?C?CSTOPTR
  -------         ENDMOD        ?C?CSTOPTR

Program Size: data=30.1 xdata=54 code=1122
LINK/LOCATE RUN COMPLETE.  0 WARNING(S),  0 ERROR(S)
