LX51 LINKER/LOCATER V4.66.62.0                                                          11/16/2016  21:07:52  PAGE 1


LX51 LINKER/LOCATER V4.66.62.0, INVOKED BY:
C:\KEIL_V5\C51\BIN\LX51.EXE STARTUP.obj, main.obj, .\hal_w2_isr.obj, .\hal_delay.obj TO FProject DISABLEWARNING (16)


CPU MODE:     8051 MODE
MEMORY MODEL: SMALL


INPUT MODULES INCLUDED:
  STARTUP.obj (?C_STARTUP)
         COMMENT TYPE 1: A51 / ASM51 Assembler
  main.obj (MAIN)
         COMMENT TYPE 0: C51 V9.55
  .\hal_w2_isr.obj (HAL_W2_ISR)
         COMMENT TYPE 0: C51 V9.55
  .\hal_delay.obj (HAL_DELAY)
         COMMENT TYPE 0: C51 V9.55
  C:\KEIL_V5\C51\LIB\C51S.LIB (?C_INIT)
         COMMENT TYPE 1: A51 / ASM51 Assembler
  C:\KEIL_V5\C51\LIB\C51S.LIB (?C?CLDPTR)
         COMMENT TYPE 1: A51 / ASM51 Assembler
  C:\KEIL_V5\C51\LIB\C51S.LIB (?C?CLDOPTR)
         COMMENT TYPE 1: A51 / ASM51 Assembler
  C:\KEIL_V5\C51\LIB\C51S.LIB (?C?CSTPTR)
         COMMENT TYPE 1: A51 / ASM51 Assembler
  C:\KEIL_V5\C51\LIB\C51S.LIB (?C?CSTOPTR)
         COMMENT TYPE 1: A51 / ASM51 Assembler
  C:\KEIL_V5\C51\LIB\C51S.LIB (?C?IILDX)
         COMMENT TYPE 1: A51 / ASM51 Assembler
  C:\KEIL_V5\C51\LIB\C51S.LIB (?C?ILDIX)
         COMMENT TYPE 1: A51 / ASM51 Assembler
  C:\KEIL_V5\C51\LIB\C51S.LIB (?C?ILDPTR)
         COMMENT TYPE 1: A51 / ASM51 Assembler
  C:\KEIL_V5\C51\LIB\C51S.LIB (?C?ISTPTR)
         COMMENT TYPE 1: A51 / ASM51 Assembler
  C:\KEIL_V5\C51\LIB\C51S.LIB (?C?ISTOPTR)
         COMMENT TYPE 1: A51 / ASM51 Assembler
  C:\KEIL_V5\C51\LIB\C51S.LIB (?C?PLDIIDATA)
         COMMENT TYPE 1: A51 / ASM51 Assembler
  C:\KEIL_V5\C51\LIB\C51S.LIB (?C?PLDXDATA)
         COMMENT TYPE 1: A51 / ASM51 Assembler
  C:\KEIL_V5\C51\LIB\C51S.LIB (?C?PSTXDATA)
         COMMENT TYPE 1: A51 / ASM51 Assembler
  C:\KEIL_V5\C51\LIB\C51S.LIB (?C?MEMCMP)
         COMMENT TYPE 1: A51 / ASM51 Assembler
  C:\KEIL_V5\C51\LIB\C51S.LIB (MALLOC)
         COMMENT TYPE 1: C51 Compiler
  C:\KEIL_V5\C51\LIB\C51S.LIB (INIT_MEM)
         COMMENT TYPE 1: C51 Compiler
  C:\KEIL_V5\C51\LIB\C51S.LIB (REALLOC)
         COMMENT TYPE 1: C51 Compiler
  C:\KEIL_V5\C51\LIB\C51S.LIB (FREE)
         COMMENT TYPE 1: C51 Compiler
  C:\KEIL_V5\C51\LIB\C51S.LIB (?C?COPY)
         COMMENT TYPE 1: A51 / ASM51 Assembler


ACTIVE MEMORY CLASSES OF MODULE:  FProject (?C_STARTUP)

BASE        START       END         USED      MEMORY CLASS
==========================================================
C:000000H   C:000000H   C:00FFFFH   001EC9H   CODE
I:000000H   I:000000H   I:0000FFH   000001H   IDATA
X:000000H   X:000000H   X:00FFFFH   000363H   XDATA
I:000000H   I:000000H   I:00007FH   000051H   DATA
C:000000H   C:000000H   C:00FFFFH   0009A6H   CONST
LX51 LINKER/LOCATER V4.66.62.0                                                        11/16/2016  21:07:52  PAGE 2


I:000020H.0 I:000020H.0 I:00002FH.7 000000H.1 BIT


MEMORY MAP OF MODULE:  FProject (?C_STARTUP)


START     STOP      LENGTH    ALIGN  RELOC    MEMORY CLASS   SEGMENT NAME
=========================================================================

* * * * * * * * * * *   D A T A   M E M O R Y   * * * * * * * * * * * * *
000000H   000007H   000008H   ---    AT..     DATA           "REG BANK 0"
000008H   00000EH   000007H   BYTE   UNIT     DATA           ?DT?HAL_W2_WAIT_DATA_READY?HAL_W2_ISR
00000FH   000015H   000007H   BYTE   UNIT     DATA           ?DT?_I2C_MPU_READBIT?HAL_W2_ISR
000016H   00001BH   000006H   BYTE   UNIT     DATA           ?DT?_HAL_W2_WRITE?HAL_W2_ISR
00001CH   00001FH   000004H   BYTE   UNIT     DATA           ?DT?MAIN
000020H   000020H   000001H   BYTE   BITADDR  DATA           ?BA?MAIN
000021H.0 000021H.0 000000H.1 BIT    UNIT     BIT            ?BI?MAIN
000021H.1 000021H   000000H.7 ---    ---      **GAP**
000022H   00003CH   00001BH   BYTE   UNIT     DATA           _DATA_GROUP_
00003DH   000042H   000006H   BYTE   UNIT     DATA           ?DT?_HAL_W2_READ?HAL_W2_ISR
000043H   000047H   000005H   BYTE   UNIT     DATA           ?DT?_SEND_PACKET_TO_COMPUTER?MAIN
000048H   00004CH   000005H   BYTE   UNIT     DATA           ?DT?_SEND_PACKET_FROM_HOST_TO_COMPUTER?MAIN
00004DH   00004FH   000003H   BYTE   UNIT     DATA           ?DT?_PUTSTRING?MAIN
000050H   000051H   000002H   BYTE   UNIT     DATA           ?DT?HAL_W2_ISR
000052H   000052H   000001H   BYTE   UNIT     IDATA          ?STACK

* * * * * * * * * * *   C O D E   M E M O R Y   * * * * * * * * * * * * *
000000H   000002H   000003H   ---    OFFS..   CODE           ?CO??C_STARTUP?0
000003H   00000AH   000008H   BYTE   UNIT     CODE           ?PR?_SETXACCELOFFSET?MAIN
00000BH   00000DH   000003H   BYTE   OFFS..   CODE           ?MAIN?0000B
00000EH   000011H   000004H   BYTE   UNIT     CODE           ?PR?EXT0_IRQ?MAIN
000012H   000012H   000001H   ---    ---      **GAP**
000013H   000015H   000003H   BYTE   OFFS..   CODE           ?MAIN?00013
000016H   00004AH   000035H   BYTE   UNIT     CODE           ?PR?_SEND_PACKET_TO_COMPUTER?MAIN
00004BH   00004DH   000003H   BYTE   OFFS..   CODE           ?MAIN?0004B
00004EH   000052H   000005H   ---    ---      **GAP**
000053H   000055H   000003H   BYTE   OFFS..   CODE           ?MAIN?00053
000056H   000434H   0003DFH   BYTE   UNIT     CODE           ?C?LIB_CODE
000435H   0006CAH   000296H   BYTE   UNIT     CODE           ?PR?DMPINITIALIZE?MAIN
0006CBH   0008B3H   0001E9H   BYTE   UNIT     CODE           ?PR?MAIN
0008B4H   000A57H   0001A4H   BYTE   UNIT     CODE           ?PR?_WRITEMEMORYBLOCK?MAIN
000A58H   000BE6H   00018FH   BYTE   UNIT     CODE           ?PR?_WRITEDMPCONFIGURATIONSET?MAIN
000BE7H   000D13H   00012DH   BYTE   UNIT     CODE           ?PR?MAIN?MAIN
000D14H   000E17H   000104H   BYTE   UNIT     CODE           ?PR?LER_DMP?MAIN
000E18H   000F1BH   000104H   BYTE   UNIT     CODE           ?PR?_FREE?FREE
000F1CH   00100FH   0000F4H   BYTE   UNIT     CODE           ?PR?CONFIGURA_DMP?MAIN
001010H   0010CAH   0000BBH   BYTE   UNIT     CODE           ?PR?_READMEMORYBLOCK?MAIN
0010CBH   001168H   00009EH   BYTE   UNIT     CODE           ?PR?_GETMOTION6_PACKET?MAIN
001169H   001204H   00009CH   BYTE   UNIT     CODE           ?PR?_MALLOC?MALLOC
001205H   00129DH   000099H   BYTE   UNIT     CODE           ?PR?SETUP?MAIN
00129EH   001329H   00008CH   BYTE   UNIT     CODE           ?C_C51STARTUP
00132AH   0013AEH   000085H   BYTE   UNIT     CODE           ?PR?RF_IRQ?MAIN
0013AFH   001426H   000078H   BYTE   UNIT     CODE           ?PR?_REALLOC?REALLOC
001427H   001499H   000073H   BYTE   UNIT     CODE           ?PR?HAL_W2_SOFT_RESET?HAL_W2_ISR
00149AH   00150BH   000072H   BYTE   UNIT     CODE           ?PR?_DMPGETQUATERNION_INT16?MAIN
00150CH   00156EH   000063H   BYTE   UNIT     CODE           ?PR?_I2C_MPU_WRITEBITS?HAL_W2_ISR
00156FH   0015CBH   00005DH   BYTE   UNIT     CODE           ?PR?_I2C_MPU_READBYTES?HAL_W2_ISR
0015CCH   001623H   000058H   BYTE   UNIT     CODE           ?PR?_I2C_MPU_READBITS?HAL_W2_ISR
001624H   001679H   000056H   BYTE   UNIT     CODE           ?PR?_I2C_MPU_WRITEWORDS?HAL_W2_ISR
00167AH   0016CCH   000053H   BYTE   UNIT     CODE           ?PR?_SEND_PACKET_TO_HOST?MAIN
0016CDH   00171AH   00004EH   BYTE   UNIT     CODE           ?PR?_I2C_MPU_WRITEBIT?HAL_W2_ISR
00171BH   00175FH   000045H   BYTE   UNIT     CODE           ?PR?RF_INIT?MAIN
001760H   0017A1H   000042H   BYTE   UNIT     CODE           ?PR?_HAL_W2_READ?HAL_W2_ISR
0017A2H   0017DDH   00003CH   BYTE   UNIT     CODE           ?PR?_INIT_MEMPOOL?INIT_MEM
0017DEH   001818H   00003BH   BYTE   UNIT     CODE           ?PR?I2C_IRQ?MAIN
LX51 LINKER/LOCATER V4.66.62.0                                                        11/16/2016  21:07:52  PAGE 3


001819H   001852H   00003AH   BYTE   UNIT     CODE           ?PR?_I2C_MPU_WRITEBYTES?HAL_W2_ISR
001853H   00188AH   000038H   BYTE   UNIT     CODE           ?PR?_HAL_W2_WRITE?HAL_W2_ISR
00188BH   0018BFH   000035H   BYTE   UNIT     CODE           ?PR?_SEND_PACKET_FROM_HOST_TO_COMPUTER?MAIN
0018C0H   0018EBH   00002CH   BYTE   UNIT     CODE           ?PR?_GETFIFOBYTES?MAIN
0018ECH   001917H   00002CH   BYTE   UNIT     CODE           ?PR?_TX_MODE_NOACK?MAIN
001918H   001942H   00002BH   BYTE   UNIT     CODE           ?PR?_SPI_READ_BUF?MAIN
001943H   001969H   000027H   BYTE   UNIT     CODE           ?PR?HAL_W2_WAIT_DATA_READY?HAL_W2_ISR
00196AH   00198DH   000024H   BYTE   UNIT     CODE           ?PR?_I2C_MPU_READBIT?HAL_W2_ISR
00198EH   0019AEH   000021H   BYTE   UNIT     CODE           ?PR?_HAL_W2_CONFIGURE_MASTER?HAL_W2_ISR
0019AFH   0019CEH   000020H   BYTE   UNIT     CODE           ?PR?_WRITEPROGMEMORYBLOCK?MAIN
0019CFH   0019EDH   00001FH   BYTE   UNIT     CODE           ?PR?_SPI_WRITE_BUF?MAIN
0019EEH   001A09H   00001CH   BYTE   UNIT     CODE           ?PR?_PUTSTRING?MAIN
001A0AH   001A25H   00001CH   BYTE   UNIT     CODE           ?PR?LUZES_INICIAIS?MAIN
001A26H   001A41H   00001CH   BYTE   UNIT     CODE           ?C_INITSEG
001A42H   001A5CH   00001BH   BYTE   UNIT     CODE           ?PR?_SETMEMORYBANK?MAIN
001A5DH   001A76H   00001AH   BYTE   UNIT     CODE           ?PR?_SETSLAVEADDRESS?MAIN
001A77H   001A90H   00001AH   BYTE   UNIT     CODE           ?PR?UART_INIT?MAIN
001A91H   001AAAH   00001AH   BYTE   UNIT     CODE           ?PR?_DELAY_US?HAL_DELAY
001AABH   001AC0H   000016H   BYTE   UNIT     CODE           ?PR?MPU_TESTCONNECTION?MAIN
001AC1H   001AD4H   000014H   BYTE   UNIT     CODE           ?PR?MPU_INITIALIZE?MAIN
001AD5H   001AE8H   000014H   BYTE   UNIT     CODE           ?PR?_DELAY_MS?HAL_DELAY
001AE9H   001AFBH   000013H   BYTE   UNIT     CODE           ?PR?GETZEROMOTIONDETECTIONDURATION?MAIN
001AFCH   001B0EH   000013H   BYTE   UNIT     CODE           ?PR?_SPI_RW_REG?MAIN
001B0FH   001B21H   000013H   BYTE   UNIT     CODE           ?PR?_I2C_MPU_WRITEWORD?HAL_W2_ISR
001B22H   001B33H   000012H   BYTE   UNIT     CODE           ?PR?GETFIFOENABLED?MAIN
001B34H   001B45H   000012H   BYTE   UNIT     CODE           ?PR?INICIARIO?MAIN
001B46H   001B57H   000012H   BYTE   UNIT     CODE           ?PR?_HAL_W2_INIT_TRANSFER?HAL_W2_ISR
001B58H   001B69H   000012H   BYTE   UNIT     CODE           ?PR?_I2C_MPU_READBYTE?HAL_W2_ISR
001B6AH   001B7AH   000011H   BYTE   UNIT     CODE           ?PR?GETOTPBANKVALID?MAIN
001B7BH   001B8BH   000011H   BYTE   UNIT     CODE           ?PR?RX_MODE?MAIN
001B8CH   001B9CH   000011H   BYTE   UNIT     CODE           ?PR?_UART_PUTCHAR?MAIN
001B9DH   001BADH   000011H   BYTE   UNIT     CODE           ?PR?_I2C_MPU_WRITEBYTE?HAL_W2_ISR
001BAEH   001BBDH   000010H   BYTE   UNIT     CODE           ?PR?GETXGYROOFFSETTC?MAIN
001BBEH   001BCDH   000010H   BYTE   UNIT     CODE           ?PR?GETYGYROOFFSETTC?MAIN
001BCEH   001BDDH   000010H   BYTE   UNIT     CODE           ?PR?GETZGYROOFFSETTC?MAIN
001BDEH   001BEDH   000010H   BYTE   UNIT     CODE           ?PR?TMR0_IRQ?MAIN
001BEEH   001BFBH   00000EH   BYTE   UNIT     CODE           ?PR?_SETCLOCKSOURCE?MAIN
001BFCH   001C09H   00000EH   BYTE   UNIT     CODE           ?PR?_SETFULLSCALEGYRORANGE?MAIN
001C0AH   001C17H   00000EH   BYTE   UNIT     CODE           ?PR?_SETFULLSCALEACCELRANGE?MAIN
001C18H   001C25H   00000EH   BYTE   UNIT     CODE           ?PR?GETXACCELOFFSET?MAIN
001C26H   001C33H   00000EH   BYTE   UNIT     CODE           ?PR?GETYACCELOFFSET?MAIN
001C34H   001C41H   00000EH   BYTE   UNIT     CODE           ?PR?GETZACCELOFFSET?MAIN
001C42H   001C4FH   00000EH   BYTE   UNIT     CODE           ?PR?GETXGYROOFFSET?MAIN
001C50H   001C5DH   00000EH   BYTE   UNIT     CODE           ?PR?GETYGYROOFFSET?MAIN
001C5EH   001C6BH   00000EH   BYTE   UNIT     CODE           ?PR?GETZGYROOFFSET?MAIN
001C6CH   001C79H   00000EH   BYTE   UNIT     CODE           ?PR?GETFIFOCOUNT?MAIN
001C7AH   001C87H   00000EH   BYTE   UNIT     CODE           ?PR?GETINTSTATUS?MAIN
001C88H   001C95H   00000EH   BYTE   UNIT     CODE           ?PR?_SETEXTERNALFRAMESYNC?MAIN
001C96H   001CA3H   00000EH   BYTE   UNIT     CODE           ?PR?_SETDLPFMODE?MAIN
001CA4H   001CB1H   00000EH   BYTE   UNIT     CODE           ?PR?GETDMPCONFIG1?MAIN
001CB2H   001CBFH   00000EH   BYTE   UNIT     CODE           ?PR?GETDMPCONFIG2?MAIN
001CC0H   001CCDH   00000EH   BYTE   UNIT     CODE           ?PR?GETMOTIONDETECTIONTHRESHOLD?MAIN
001CCEH   001CDBH   00000EH   BYTE   UNIT     CODE           ?PR?GETZEROMOTIONDETECTIONTHRESHOLD?MAIN
001CDCH   001CE9H   00000EH   BYTE   UNIT     CODE           ?PR?GETMOTIONDETECTIONDURATION?MAIN
001CEAH   001CF7H   00000EH   BYTE   UNIT     CODE           ?PR?_HAL_W2_SET_CLK_FREQ?HAL_W2_ISR
001CF8H   001D05H   00000EH   BYTE   UNIT     CODE           ?PR?HAL_W2_ISR
001D06H   001D12H   00000DH   BYTE   UNIT     CODE           ?PR?_SPI_READ?MAIN
001D13H   001D1EH   00000CH   BYTE   UNIT     CODE           ?PR?RESETFIFO?MAIN
001D1FH   001D2AH   00000CH   BYTE   UNIT     CODE           ?PR?I2C_MPU_RESET?MAIN
001D2BH   001D36H   00000CH   BYTE   UNIT     CODE           ?PR?RESETI2CMASTER?MAIN
001D37H   001D42H   00000CH   BYTE   UNIT     CODE           ?PR?RESETDMP?MAIN
001D43H   001D4EH   00000CH   BYTE   UNIT     CODE           ?PR?INICIARRF?MAIN
001D4FH   001D59H   00000BH   BYTE   UNIT     CODE           ?PR?MPU_8051_MALLOC_SETUP?MAIN
001D5AH   001D64H   00000BH   BYTE   UNIT     CODE           ?PR?_SETSLEEPENABLED?MAIN
001D65H   001D6FH   00000BH   BYTE   UNIT     CODE           ?PR?_SETYGYROOFFSET?MAIN
LX51 LINKER/LOCATER V4.66.62.0                                                        11/16/2016  21:07:52  PAGE 4


001D70H   001D7AH   00000BH   BYTE   UNIT     CODE           ?PR?_SETZGYROOFFSET?MAIN
001D7BH   001D85H   00000BH   BYTE   UNIT     CODE           ?PR?_SETDMPENABLED?MAIN
001D86H   001D90H   00000BH   BYTE   UNIT     CODE           ?PR?_SETI2CMASTERMODEENABLED?MAIN
001D91H   001D9BH   00000BH   BYTE   UNIT     CODE           ?PR?_SETFIFOENABLED?MAIN
001D9CH   001DA6H   00000BH   BYTE   UNIT     CODE           ?PR?_HAL_W2_RESPOND_TO_GEN_ADR?HAL_W2_ISR
001DA7H   001DB1H   00000BH   BYTE   UNIT     CODE           ?PR?_HAL_W2_ALTER_CLOCK?HAL_W2_ISR
001DB2H   001DBCH   00000BH   BYTE   UNIT     CODE           ?PR?_HAL_W2_IRQ_STOP_COND_ENABLE?HAL_W2_ISR
001DBDH   001DC7H   00000BH   BYTE   UNIT     CODE           ?PR?_HAL_W2_IRQ_ADR_MATCH_ENABLE?HAL_W2_ISR
001DC8H   001DD2H   00000BH   BYTE   UNIT     CODE           ?PR?_HAL_W2_SET_OP_MODE?HAL_W2_ISR
001DD3H   001DDDH   00000BH   BYTE   UNIT     CODE           ?PR?_HAL_W2_ENABLE?HAL_W2_ISR
001DDEH   001DE8H   00000BH   BYTE   UNIT     CODE           ?PR?_HAL_W2_ALL_IRQ_ENABLE?HAL_W2_ISR
001DE9H   001DF2H   00000AH   BYTE   UNIT     CODE           ?PR?_WRITEPROGDMPCONFIGURATIONSET?MAIN
001DF3H   001DFCH   00000AH   BYTE   UNIT     CODE           ?PR?_SETOTPBANKVALID?MAIN
001DFDH   001E06H   00000AH   BYTE   UNIT     CODE           ?PR?_SETXGYROOFFSETTC?MAIN
001E07H   001E10H   00000AH   BYTE   UNIT     CODE           ?PR?_SETYGYROOFFSETTC?MAIN
001E11H   001E1AH   00000AH   BYTE   UNIT     CODE           ?PR?_SETZGYROOFFSETTC?MAIN
001E1BH   001E24H   00000AH   BYTE   UNIT     CODE           ?PR?START_T0?MAIN
001E25H   001E2EH   00000AH   BYTE   UNIT     CODE           ?PR?STOP_T0?MAIN
001E2FH   001E38H   00000AH   BYTE   UNIT     CODE           ?PR?_SPI_RW?MAIN
001E39H   001E42H   00000AH   BYTE   UNIT     CODE           ?PR?PIN_ISR_SETUP?MAIN
001E43H   001E4CH   00000AH   BYTE   UNIT     CODE           ?PR?HAL_W2_WAIT_DATA_READY_ISR?HAL_W2_ISR
001E4DH   001E56H   00000AH   BYTE   UNIT     CODE           ?PR?I2C_IRQ_HANDLER?HAL_W2_ISR
001E57H   001E5FH   000009H   BYTE   UNIT     CODE           ?PR?DMPGETFIFOPACKETSIZE?MAIN
001E60H   001E68H   000009H   BYTE   UNIT     CODE           ?PR?_SETMEMORYSTARTADDRESS?MAIN
001E69H   001E71H   000009H   BYTE   UNIT     CODE           ?PR?_SETINTENABLED?MAIN
001E72H   001E7AH   000009H   BYTE   UNIT     CODE           ?PR?_SETRATE?MAIN
001E7BH   001E83H   000009H   BYTE   UNIT     CODE           ?PR?_SETDMPCONFIG1?MAIN
001E84H   001E8CH   000009H   BYTE   UNIT     CODE           ?PR?_SETDMPCONFIG2?MAIN
001E8DH   001E95H   000009H   BYTE   UNIT     CODE           ?PR?_SETMOTIONDETECTIONTHRESHOLD?MAIN
001E96H   001E9EH   000009H   BYTE   UNIT     CODE           ?PR?_SETZEROMOTIONDETECTIONTHRESHOLD?MAIN
001E9FH   001EA7H   000009H   BYTE   UNIT     CODE           ?PR?_SETMOTIONDETECTIONDURATION?MAIN
001EA8H   001EB0H   000009H   BYTE   UNIT     CODE           ?PR?_SETZEROMOTIONDETECTIONDURATION?MAIN
001EB1H   001EB8H   000008H   BYTE   UNIT     CODE           ?PR?_SETYACCELOFFSET?MAIN
001EB9H   001EC0H   000008H   BYTE   UNIT     CODE           ?PR?_SETZACCELOFFSET?MAIN
001EC1H   001EC8H   000008H   BYTE   UNIT     CODE           ?PR?_SETXGYROOFFSET?MAIN
001EC9H   001ECEH   000006H   BYTE   UNIT     CODE           ?PR?_HAL_W2_SET_SLAVE_ADDRESS?HAL_W2_ISR
001ECFH   002874H   0009A6H   BYTE   UNIT     CONST          ?CO?MAIN

* * * * * * * * * * *  X D A T A   M E M O R Y  * * * * * * * * * * * * *
000000H   0002A0H   0002A1H   BYTE   UNIT     XDATA          ?XD?MAIN
0002A1H   00035AH   0000BAH   BYTE   UNIT     XDATA          _XDATA_GROUP_
00035BH   000362H   000008H   BYTE   UNIT     XDATA          ?XD?INIT_MEM



OVERLAY MAP OF MODULE:   FProject (?C_STARTUP)


FUNCTION/MODULE                              DATA_GROUP   XDATA_GROUP
--> CALLED FUNCTION/MODULE                   START  STOP  START  STOP
=====================================================================
?C_C51STARTUP                                ----- -----  ----- -----
  +--> MAIN/MAIN
  +--> ?C_INITSEG

MAIN/MAIN                                    ----- -----  ----- -----
  +--> SETUP/MAIN
  +--> ?CO?MAIN
  +--> CONFIGURA_DMP/MAIN
  +--> LER_DMP/MAIN
  +--> _DMPGETQUATERNION_INT16/MAIN
  +--> _SEND_PACKET_TO_HOST/MAIN
  +--> _DELAY_MS/HAL_DELAY
  +--> START_T0/MAIN
  +--> STOP_T0/MAIN
LX51 LINKER/LOCATER V4.66.62.0                                                        11/16/2016  21:07:52  PAGE 5


  +--> _GETMOTION6_PACKET/MAIN

SETUP/MAIN                                   ----- -----  ----- -----
  +--> INICIARIO/MAIN
  +--> INICIARRF/MAIN
  +--> _HAL_W2_CONFIGURE_MASTER/HAL_W2_ISR
  +--> LUZES_INICIAIS/MAIN
  +--> ?CO?MAIN
  +--> MPU_8051_MALLOC_SETUP/MAIN
  +--> MPU_INITIALIZE/MAIN
  +--> MPU_TESTCONNECTION/MAIN
  +--> _SETXACCELOFFSET/MAIN
  +--> _SETYACCELOFFSET/MAIN
  +--> _SETZACCELOFFSET/MAIN
  +--> _SETXGYROOFFSET/MAIN
  +--> _SETYGYROOFFSET/MAIN
  +--> _SETZGYROOFFSET/MAIN
  +--> _SEND_PACKET_TO_HOST/MAIN
  +--> _DELAY_MS/HAL_DELAY

INICIARIO/MAIN                               ----- -----  ----- -----

INICIARRF/MAIN                               ----- -----  ----- -----
  +--> RF_INIT/MAIN
  +--> RX_MODE/MAIN

RF_INIT/MAIN                                 ----- -----  ----- -----
  +--> MAIN
  +--> _SPI_WRITE_BUF/MAIN
  +--> _SPI_RW_REG/MAIN

MAIN                                         ----- -----  ----- -----
  +--> ?CO?MAIN
  +--> _UART_PUTCHAR/MAIN
  +--> _SPI_RW/MAIN

?CO?MAIN                                     ----- -----  ----- -----

_UART_PUTCHAR/MAIN                           ----- -----  ----- -----

_SPI_RW/MAIN                                 ----- -----  ----- -----

_SPI_WRITE_BUF/MAIN                          0029H 002DH  ----- -----
  +--> MAIN
  +--> _SPI_RW/MAIN

_SPI_RW_REG/MAIN                             ----- -----  ----- -----
  +--> _SPI_RW/MAIN

RX_MODE/MAIN                                 ----- -----  ----- -----
  +--> _SPI_RW_REG/MAIN

_HAL_W2_CONFIGURE_MASTER/HAL_W2_ISR          ----- -----  ----- -----
  +--> _HAL_W2_ENABLE/HAL_W2_ISR
  +--> _HAL_W2_SET_CLK_FREQ/HAL_W2_ISR
  +--> _HAL_W2_SET_OP_MODE/HAL_W2_ISR
  +--> _HAL_W2_ALL_IRQ_ENABLE/HAL_W2_ISR

_HAL_W2_ENABLE/HAL_W2_ISR                    ----- -----  ----- -----

_HAL_W2_SET_CLK_FREQ/HAL_W2_ISR              ----- -----  ----- -----

_HAL_W2_SET_OP_MODE/HAL_W2_ISR               ----- -----  ----- -----

_HAL_W2_ALL_IRQ_ENABLE/HAL_W2_ISR            ----- -----  ----- -----
LX51 LINKER/LOCATER V4.66.62.0                                                        11/16/2016  21:07:52  PAGE 6



LUZES_INICIAIS/MAIN                          ----- -----  ----- -----
  +--> _DELAY_MS/HAL_DELAY

_DELAY_MS/HAL_DELAY                          ----- -----  ----- -----
  +--> _DELAY_US/HAL_DELAY

_DELAY_US/HAL_DELAY                          ----- -----  ----- -----

MPU_8051_MALLOC_SETUP/MAIN                   ----- -----  ----- -----
  +--> _INIT_MEMPOOL/INIT_MEM

_INIT_MEMPOOL/INIT_MEM                       ----- -----  ----- -----

MPU_INITIALIZE/MAIN                          ----- -----  ----- -----
  +--> _SETCLOCKSOURCE/MAIN
  +--> _SETFULLSCALEGYRORANGE/MAIN
  +--> _SETFULLSCALEACCELRANGE/MAIN
  +--> _SETSLEEPENABLED/MAIN

_SETCLOCKSOURCE/MAIN                         ----- -----  ----- -----
  +--> _I2C_MPU_WRITEBITS/HAL_W2_ISR

_I2C_MPU_WRITEBITS/HAL_W2_ISR                0022H 0028H  ----- -----
  +--> _I2C_MPU_READBYTE/HAL_W2_ISR
  +--> _I2C_MPU_WRITEBYTE/HAL_W2_ISR

_I2C_MPU_READBYTE/HAL_W2_ISR                 002BH 002DH  ----- -----
  +--> _I2C_MPU_READBYTES/HAL_W2_ISR

_I2C_MPU_READBYTES/HAL_W2_ISR                002EH 0035H  ----- -----
  +--> _HAL_W2_INIT_TRANSFER/HAL_W2_ISR
  +--> HAL_W2_WAIT_DATA_READY_ISR/HAL_W2_ISR
  +--> HAL_W2_SOFT_RESET/HAL_W2_ISR
  +--> HAL_W2_ISR

_HAL_W2_INIT_TRANSFER/HAL_W2_ISR             ----- -----  ----- -----
  +--> HAL_W2_ISR

HAL_W2_ISR                                   ----- -----  ----- -----
  +--> HAL_W2_WAIT_DATA_READY_ISR/HAL_W2_ISR

HAL_W2_WAIT_DATA_READY_ISR/HAL_W2_ISR        ----- -----  ----- -----

HAL_W2_SOFT_RESET/HAL_W2_ISR                 0036H 0037H  ----- -----
  +--> _DELAY_US/HAL_DELAY

_I2C_MPU_WRITEBYTE/HAL_W2_ISR                0029H 0029H  ----- -----
  +--> _I2C_MPU_WRITEBYTES/HAL_W2_ISR

_I2C_MPU_WRITEBYTES/HAL_W2_ISR               002AH 002FH  ----- -----
  +--> _HAL_W2_INIT_TRANSFER/HAL_W2_ISR
  +--> HAL_W2_WAIT_DATA_READY_ISR/HAL_W2_ISR
  +--> HAL_W2_ISR

_SETFULLSCALEGYRORANGE/MAIN                  ----- -----  ----- -----
  +--> _I2C_MPU_WRITEBITS/HAL_W2_ISR

_SETFULLSCALEACCELRANGE/MAIN                 ----- -----  ----- -----
  +--> _I2C_MPU_WRITEBITS/HAL_W2_ISR

_SETSLEEPENABLED/MAIN                        ----- -----  ----- -----
  +--> _I2C_MPU_WRITEBIT/HAL_W2_ISR

_I2C_MPU_WRITEBIT/HAL_W2_ISR                 0022H 0026H  ----- -----
LX51 LINKER/LOCATER V4.66.62.0                                                        11/16/2016  21:07:52  PAGE 7


  +--> _I2C_MPU_READBYTE/HAL_W2_ISR
  +--> _I2C_MPU_WRITEBYTE/HAL_W2_ISR

MPU_TESTCONNECTION/MAIN                      ----- -----  ----- -----
  +--> MAIN
  +--> _I2C_MPU_READBITS/HAL_W2_ISR

_I2C_MPU_READBITS/HAL_W2_ISR                 0022H 002AH  ----- -----
  +--> _I2C_MPU_READBYTE/HAL_W2_ISR

_SETXACCELOFFSET/MAIN                        ----- -----  ----- -----
  +--> MAIN
  +--> _I2C_MPU_WRITEWORD/HAL_W2_ISR

_I2C_MPU_WRITEWORD/HAL_W2_ISR                0022H 0023H  ----- -----
  +--> _I2C_MPU_WRITEWORDS/HAL_W2_ISR

_I2C_MPU_WRITEWORDS/HAL_W2_ISR               0024H 0029H  ----- -----
  +--> _HAL_W2_INIT_TRANSFER/HAL_W2_ISR
  +--> HAL_W2_WAIT_DATA_READY_ISR/HAL_W2_ISR
  +--> HAL_W2_ISR

_SETYACCELOFFSET/MAIN                        ----- -----  ----- -----
  +--> MAIN
  +--> _I2C_MPU_WRITEWORD/HAL_W2_ISR

_SETZACCELOFFSET/MAIN                        ----- -----  ----- -----
  +--> MAIN
  +--> _I2C_MPU_WRITEWORD/HAL_W2_ISR

_SETXGYROOFFSET/MAIN                         ----- -----  ----- -----
  +--> MAIN
  +--> _I2C_MPU_WRITEWORD/HAL_W2_ISR

_SETYGYROOFFSET/MAIN                         ----- -----  ----- -----
  +--> _I2C_MPU_WRITEWORD/HAL_W2_ISR

_SETZGYROOFFSET/MAIN                         ----- -----  ----- -----
  +--> _I2C_MPU_WRITEWORD/HAL_W2_ISR

_SEND_PACKET_TO_HOST/MAIN                    0022H 0026H  ----- -----
  +--> MAIN
  +--> _TX_MODE_NOACK/MAIN
  +--> RX_MODE/MAIN

_TX_MODE_NOACK/MAIN                          0027H 0028H  ----- -----
  +--> _SPI_RW_REG/MAIN
  +--> MAIN
  +--> _SPI_WRITE_BUF/MAIN

CONFIGURA_DMP/MAIN                           ----- -----  ----- -----
  +--> _DELAY_MS/HAL_DELAY
  +--> ?CO?MAIN
  +--> DMPINITIALIZE/MAIN
  +--> _SETXACCELOFFSET/MAIN
  +--> _SETYACCELOFFSET/MAIN
  +--> _SETZACCELOFFSET/MAIN
  +--> _SETXGYROOFFSET/MAIN
  +--> _SETYGYROOFFSET/MAIN
  +--> _SETZGYROOFFSET/MAIN
  +--> _SETDMPENABLED/MAIN
  +--> PIN_ISR_SETUP/MAIN
  +--> GETINTSTATUS/MAIN
  +--> MAIN
  +--> DMPGETFIFOPACKETSIZE/MAIN
LX51 LINKER/LOCATER V4.66.62.0                                                        11/16/2016  21:07:52  PAGE 8


  +--> _SEND_PACKET_TO_HOST/MAIN

DMPINITIALIZE/MAIN                           ----- -----  02A1H 0338H
  +--> I2C_MPU_RESET/MAIN
  +--> _DELAY_MS/HAL_DELAY
  +--> _SETSLEEPENABLED/MAIN
  +--> _SETMEMORYBANK/MAIN
  +--> _SETMEMORYSTARTADDRESS/MAIN
  +--> GETXGYROOFFSETTC/MAIN
  +--> GETYGYROOFFSETTC/MAIN
  +--> GETZGYROOFFSETTC/MAIN
  +--> _SETSLAVEADDRESS/MAIN
  +--> _SETI2CMASTERMODEENABLED/MAIN
  +--> RESETI2CMASTER/MAIN
  +--> ?CO?MAIN
  +--> _WRITEPROGMEMORYBLOCK/MAIN
  +--> _WRITEPROGDMPCONFIGURATIONSET/MAIN
  +--> _SETCLOCKSOURCE/MAIN
  +--> _SETINTENABLED/MAIN
  +--> _SETRATE/MAIN
  +--> _SETEXTERNALFRAMESYNC/MAIN
  +--> _SETDLPFMODE/MAIN
  +--> _SETFULLSCALEGYRORANGE/MAIN
  +--> _SETDMPCONFIG1/MAIN
  +--> _SETDMPCONFIG2/MAIN
  +--> _SETOTPBANKVALID/MAIN
  +--> _SETXGYROOFFSETTC/MAIN
  +--> _SETYGYROOFFSETTC/MAIN
  +--> _SETZGYROOFFSETTC/MAIN
  +--> MAIN
  +--> RESETFIFO/MAIN
  +--> _GETFIFOBYTES/MAIN
  +--> _SETMOTIONDETECTIONTHRESHOLD/MAIN
  +--> _SETZEROMOTIONDETECTIONTHRESHOLD/MAIN
  +--> _SETMOTIONDETECTIONDURATION/MAIN
  +--> _SETZEROMOTIONDETECTIONDURATION/MAIN
  +--> _SETFIFOENABLED/MAIN
  +--> _SETDMPENABLED/MAIN
  +--> RESETDMP/MAIN
  +--> _READMEMORYBLOCK/MAIN
  +--> GETFIFOCOUNT/MAIN
  +--> GETINTSTATUS/MAIN
  +--> _WRITEMEMORYBLOCK/MAIN

I2C_MPU_RESET/MAIN                           ----- -----  ----- -----
  +--> _I2C_MPU_WRITEBIT/HAL_W2_ISR

_SETMEMORYBANK/MAIN                          ----- -----  ----- -----
  +--> _I2C_MPU_WRITEBYTE/HAL_W2_ISR

_SETMEMORYSTARTADDRESS/MAIN                  ----- -----  ----- -----
  +--> _I2C_MPU_WRITEBYTE/HAL_W2_ISR

GETXGYROOFFSETTC/MAIN                        ----- -----  ----- -----
  +--> MAIN
  +--> _I2C_MPU_READBITS/HAL_W2_ISR

GETYGYROOFFSETTC/MAIN                        ----- -----  ----- -----
  +--> MAIN
  +--> _I2C_MPU_READBITS/HAL_W2_ISR

GETZGYROOFFSETTC/MAIN                        ----- -----  ----- -----
  +--> MAIN
  +--> _I2C_MPU_READBITS/HAL_W2_ISR

LX51 LINKER/LOCATER V4.66.62.0                                                        11/16/2016  21:07:52  PAGE 9


_SETSLAVEADDRESS/MAIN                        ----- -----  ----- -----
  +--> _I2C_MPU_WRITEBYTE/HAL_W2_ISR

_SETI2CMASTERMODEENABLED/MAIN                ----- -----  ----- -----
  +--> _I2C_MPU_WRITEBIT/HAL_W2_ISR

RESETI2CMASTER/MAIN                          ----- -----  ----- -----
  +--> _I2C_MPU_WRITEBIT/HAL_W2_ISR

_WRITEPROGMEMORYBLOCK/MAIN                   ----- -----  0339H 0340H
  +--> _WRITEMEMORYBLOCK/MAIN

_WRITEMEMORYBLOCK/MAIN                       ----- -----  0349H 035AH
  +--> MAIN
  +--> _SETMEMORYBANK/MAIN
  +--> _SETMEMORYSTARTADDRESS/MAIN
  +--> _MALLOC/MALLOC
  +--> _I2C_MPU_WRITEBYTES/HAL_W2_ISR
  +--> _I2C_MPU_READBYTES/HAL_W2_ISR
  +--> _FREE/FREE

_MALLOC/MALLOC                               002AH 002DH  ----- -----

_FREE/FREE                                   002AH 002DH  ----- -----

_WRITEPROGDMPCONFIGURATIONSET/MAIN           ----- -----  ----- -----
  +--> _WRITEDMPCONFIGURATIONSET/MAIN

_WRITEDMPCONFIGURATIONSET/MAIN               ----- -----  0339H 0348H
  +--> MAIN
  +--> _MALLOC/MALLOC
  +--> _REALLOC/REALLOC
  +--> _WRITEMEMORYBLOCK/MAIN
  +--> _I2C_MPU_WRITEBYTE/HAL_W2_ISR
  +--> _FREE/FREE

_REALLOC/REALLOC                             0022H 0029H  ----- -----
  +--> _MALLOC/MALLOC
  +--> _FREE/FREE

_SETINTENABLED/MAIN                          ----- -----  ----- -----
  +--> _I2C_MPU_WRITEBYTE/HAL_W2_ISR

_SETRATE/MAIN                                ----- -----  ----- -----
  +--> _I2C_MPU_WRITEBYTE/HAL_W2_ISR

_SETEXTERNALFRAMESYNC/MAIN                   ----- -----  ----- -----
  +--> _I2C_MPU_WRITEBITS/HAL_W2_ISR

_SETDLPFMODE/MAIN                            ----- -----  ----- -----
  +--> _I2C_MPU_WRITEBITS/HAL_W2_ISR

_SETDMPCONFIG1/MAIN                          ----- -----  ----- -----
  +--> _I2C_MPU_WRITEBYTE/HAL_W2_ISR

_SETDMPCONFIG2/MAIN                          ----- -----  ----- -----
  +--> _I2C_MPU_WRITEBYTE/HAL_W2_ISR

_SETOTPBANKVALID/MAIN                        ----- -----  ----- -----
  +--> _I2C_MPU_WRITEBIT/HAL_W2_ISR

_SETXGYROOFFSETTC/MAIN                       ----- -----  ----- -----
  +--> MAIN
  +--> _I2C_MPU_WRITEBITS/HAL_W2_ISR

LX51 LINKER/LOCATER V4.66.62.0                                                        11/16/2016  21:07:52  PAGE 10


_SETYGYROOFFSETTC/MAIN                       ----- -----  ----- -----
  +--> MAIN
  +--> _I2C_MPU_WRITEBITS/HAL_W2_ISR

_SETZGYROOFFSETTC/MAIN                       ----- -----  ----- -----
  +--> MAIN
  +--> _I2C_MPU_WRITEBITS/HAL_W2_ISR

RESETFIFO/MAIN                               ----- -----  ----- -----
  +--> _I2C_MPU_WRITEBIT/HAL_W2_ISR

_GETFIFOBYTES/MAIN                           ----- -----  0339H 033BH
  +--> MAIN
  +--> _I2C_MPU_READBYTES/HAL_W2_ISR

_SETMOTIONDETECTIONTHRESHOLD/MAIN            ----- -----  ----- -----
  +--> _I2C_MPU_WRITEBYTE/HAL_W2_ISR

_SETZEROMOTIONDETECTIONTHRESHOLD/MAIN        ----- -----  ----- -----
  +--> _I2C_MPU_WRITEBYTE/HAL_W2_ISR

_SETMOTIONDETECTIONDURATION/MAIN             ----- -----  ----- -----
  +--> _I2C_MPU_WRITEBYTE/HAL_W2_ISR

_SETZEROMOTIONDETECTIONDURATION/MAIN         ----- -----  ----- -----
  +--> _I2C_MPU_WRITEBYTE/HAL_W2_ISR

_SETFIFOENABLED/MAIN                         ----- -----  ----- -----
  +--> _I2C_MPU_WRITEBIT/HAL_W2_ISR

_SETDMPENABLED/MAIN                          ----- -----  ----- -----
  +--> _I2C_MPU_WRITEBIT/HAL_W2_ISR

RESETDMP/MAIN                                ----- -----  ----- -----
  +--> _I2C_MPU_WRITEBIT/HAL_W2_ISR

_READMEMORYBLOCK/MAIN                        ----- -----  0339H 0342H
  +--> MAIN
  +--> _I2C_MPU_READBYTES/HAL_W2_ISR
  +--> _SETMEMORYBANK/MAIN
  +--> _SETMEMORYSTARTADDRESS/MAIN

GETFIFOCOUNT/MAIN                            ----- -----  ----- -----
  +--> MAIN
  +--> _I2C_MPU_READBYTES/HAL_W2_ISR

GETINTSTATUS/MAIN                            ----- -----  ----- -----
  +--> MAIN
  +--> _I2C_MPU_READBYTE/HAL_W2_ISR

PIN_ISR_SETUP/MAIN                           ----- -----  ----- -----

DMPGETFIFOPACKETSIZE/MAIN                    ----- -----  ----- -----

LER_DMP/MAIN                                 ----- -----  ----- -----
  +--> ?CO?MAIN
  +--> MAIN
  +--> GETINTSTATUS/MAIN
  +--> RESETFIFO/MAIN
  +--> _DELAY_MS/HAL_DELAY
  +--> _GETFIFOBYTES/MAIN
  +--> _SEND_PACKET_TO_HOST/MAIN
  +--> GETFIFOCOUNT/MAIN

_DMPGETQUATERNION_INT16/MAIN                 ----- -----  02A1H 02A6H
LX51 LINKER/LOCATER V4.66.62.0                                                        11/16/2016  21:07:52  PAGE 11


  +--> MAIN

START_T0/MAIN                                ----- -----  ----- -----
  +--> MAIN

STOP_T0/MAIN                                 ----- -----  ----- -----
  +--> MAIN

_GETMOTION6_PACKET/MAIN                      ----- -----  02A1H 02A2H
  +--> _I2C_MPU_READBYTES/HAL_W2_ISR
  +--> MAIN

?C_INITSEG                                   ----- -----  ----- -----

*** NEW ROOT *******************************

TMR0_IRQ/MAIN                                ----- -----  ----- -----
  +--> MAIN

*** NEW ROOT *******************************

RF_IRQ/MAIN                                  ----- -----  ----- -----
  +--> _SPI_READ/MAIN
  +--> _SPI_READ_BUF/MAIN
  +--> _SPI_RW_REG/MAIN

_SPI_READ/MAIN                               ----- -----  ----- -----
  +--> _SPI_RW/MAIN

_SPI_READ_BUF/MAIN                           0038H 003CH  ----- -----
  +--> MAIN
  +--> _SPI_RW/MAIN

*** NEW ROOT *******************************

EXT0_IRQ/MAIN                                ----- -----  ----- -----

*** NEW ROOT *******************************

I2C_IRQ/MAIN                                 ----- -----  ----- -----
  +--> I2C_IRQ_HANDLER/HAL_W2_ISR

I2C_IRQ_HANDLER/HAL_W2_ISR                   ----- -----  ----- -----



PUBLIC SYMBOLS OF MODULE:  FProject (?C_STARTUP)


      VALUE       CLASS    TYPE      PUBLIC SYMBOL NAME
      =================================================
      020002A1H   XDATA    BYTE      ?_dmpGetQuaternion_int16?BYTE
      0000003DH   DATA     BYTE      ?_hal_w2_read?BYTE
      00000016H   DATA     BYTE      ?_hal_w2_write?BYTE
      0000000FH   DATA     BYTE      ?_i2c_mpu_readBit?BYTE
      00000022H   DATA     BYTE      ?_i2c_mpu_readBits?BYTE
      0000002EH   DATA     BYTE      ?_i2c_mpu_readBytes?BYTE
      00000022H   DATA     BYTE      ?_i2c_mpu_writeBit?BYTE
      00000022H   DATA     BYTE      ?_i2c_mpu_writeBits?BYTE
      0000002AH   DATA     BYTE      ?_i2c_mpu_writeBytes?BYTE
      00000024H   DATA     BYTE      ?_i2c_mpu_writeWords?BYTE
      02000339H   XDATA    BYTE      ?_readMemoryBlock?BYTE
      00000048H   DATA     BYTE      ?_send_packet_from_host_to_computer?BYTE
      00000043H   DATA     BYTE      ?_send_packet_to_computer?BYTE
      00000022H   DATA     BYTE      ?_send_packet_to_host?BYTE
LX51 LINKER/LOCATER V4.66.62.0                                                        11/16/2016  21:07:52  PAGE 12


      00000038H   DATA     BYTE      ?_SPI_Read_Buf?BYTE
      00000029H   DATA     BYTE      ?_SPI_Write_Buf?BYTE
      02000339H   XDATA    BYTE      ?_writeDMPConfigurationSet?BYTE
      02000349H   XDATA    BYTE      ?_writeMemoryBlock?BYTE
      02000339H   XDATA    BYTE      ?_writeProgMemoryBlock?BYTE
      0100006FH   CODE     ---       ?C?CLDOPTR
      01000056H   CODE     ---       ?C?CLDPTR
      00000000H   NUMBER   ---       ?C?CODESEG
      0100040FH   CODE     ---       ?C?COPY
      010000AEH   CODE     ---       ?C?CSTOPTR
      0100009CH   CODE     ---       ?C?CSTPTR
      010000D0H   CODE     ---       ?C?IILDX
      010000E6H   CODE     ---       ?C?ILDIX
      010000FCH   CODE     ---       ?C?ILDPTR
      01000146H   CODE     ---       ?C?ISTOPTR
      01000127H   CODE     ---       ?C?ISTPTR
      0100031BH   CODE     ---       ?C?MEMCMP
      01000173H   CODE     ---       ?C?PLDIIDATA
      01000183H   CODE     ---       ?C?PLDXDATA
      0100018CH   CODE     ---       ?C?PSTXDATA
      00000000H   NUMBER   ---       ?C?XDATASEG
      010012E5H   CODE     ---       ?C_START
      01000000H   CODE     ---       ?C_STARTUP
      0200035BH   XDATA    ---       __mem_avail__
      01001AD5H   CODE     ---       _delay_ms
      01001A9CH   CODE     ---       _delay_us
      0100149AH   CODE     ---       _dmpGetQuaternion_int16
      01000E18H   CODE     ---       _free
      010018C0H   CODE     ---       _getFIFOBytes
      010010CBH   CODE     ---       _getMotion6_packet
      01001DDEH   CODE     ---       _hal_w2_all_irq_enable
      01001DA7H   CODE     ---       _hal_w2_alter_clock
      0100198EH   CODE     ---       _hal_w2_configure_master
      01001DD3H   CODE     ---       _hal_w2_enable
      01001B46H   CODE     ---       _hal_w2_init_transfer
      01001DBDH   CODE     ---       _hal_w2_irq_adr_match_enable
      01001DB2H   CODE     ---       _hal_w2_irq_stop_cond_enable
      01001760H   CODE     ---       _hal_w2_read
      01001D9CH   CODE     ---       _hal_w2_respond_to_gen_adr
      01001CEAH   CODE     ---       _hal_w2_set_clk_freq
      01001DC8H   CODE     ---       _hal_w2_set_op_mode
      01001EC9H   CODE     ---       _hal_w2_set_slave_address
      01001853H   CODE     ---       _hal_w2_write
      0100196AH   CODE     ---       _i2c_mpu_readBit
      010015CCH   CODE     ---       _i2c_mpu_readBits
      01001B58H   CODE     ---       _i2c_mpu_readByte
      0100156FH   CODE     ---       _i2c_mpu_readBytes
      010016CDH   CODE     ---       _i2c_mpu_writeBit
      0100150CH   CODE     ---       _i2c_mpu_writeBits
      01001B9DH   CODE     ---       _i2c_mpu_writeByte
      01001819H   CODE     ---       _i2c_mpu_writeBytes
      01001B0FH   CODE     ---       _i2c_mpu_writeWord
      01001624H   CODE     ---       _i2c_mpu_writeWords
      010017A2H   CODE     ---       _init_mempool
      01001169H   CODE     ---       _malloc
      010019EEH   CODE     ---       _putstring
      01001010H   CODE     ---       _readMemoryBlock
      010013AFH   CODE     ---       _realloc
      0100188BH   CODE     ---       _send_packet_from_host_to_computer
      01000016H   CODE     ---       _send_packet_to_computer
      0100167AH   CODE     ---       _send_packet_to_host
      01001BEEH   CODE     ---       _setClockSource
      01001C96H   CODE     ---       _setDLPFMode
      01001E7BH   CODE     ---       _setDMPConfig1
      01001E84H   CODE     ---       _setDMPConfig2
LX51 LINKER/LOCATER V4.66.62.0                                                        11/16/2016  21:07:52  PAGE 13


      01001D7BH   CODE     ---       _setDMPEnabled
      01001C88H   CODE     ---       _setExternalFrameSync
      01001D91H   CODE     ---       _setFIFOEnabled
      01001C0AH   CODE     ---       _setFullScaleAccelRange
      01001BFCH   CODE     ---       _setFullScaleGyroRange
      01001D86H   CODE     ---       _setI2CMasterModeEnabled
      01001E69H   CODE     ---       _setIntEnabled
      01001A42H   CODE     ---       _setMemoryBank
      01001E60H   CODE     ---       _setMemoryStartAddress
      01001E9FH   CODE     ---       _setMotionDetectionDuration
      01001E8DH   CODE     ---       _setMotionDetectionThreshold
      01001DF3H   CODE     ---       _setOTPBankValid
      01001E72H   CODE     ---       _setRate
      01001A5DH   CODE     ---       _setSlaveAddress
      01001D5AH   CODE     ---       _setSleepEnabled
      01000003H   CODE     ---       _setXAccelOffset
      01001EC1H   CODE     ---       _setXGyroOffset
      01001DFDH   CODE     ---       _setXGyroOffsetTC
      01001EB1H   CODE     ---       _setYAccelOffset
      01001D65H   CODE     ---       _setYGyroOffset
      01001E07H   CODE     ---       _setYGyroOffsetTC
      01001EB9H   CODE     ---       _setZAccelOffset
      01001EA8H   CODE     ---       _setZeroMotionDetectionDuration
      01001E96H   CODE     ---       _setZeroMotionDetectionThreshold
      01001D70H   CODE     ---       _setZGyroOffset
      01001E11H   CODE     ---       _setZGyroOffsetTC
      01001D06H   CODE     ---       _SPI_Read
      01001918H   CODE     ---       _SPI_Read_Buf
      01001E2FH   CODE     ---       _SPI_RW
      01001AFCH   CODE     ---       _SPI_RW_Reg
      010019CFH   CODE     ---       _SPI_Write_Buf
      010018ECH   CODE     ---       _TX_Mode_NOACK
      01001B95H   CODE     ---       _uart_putchar
      01000A58H   CODE     ---       _writeDMPConfigurationSet
      010008B4H   CODE     ---       _writeMemoryBlock
      01001DE9H   CODE     ---       _writeProgDMPConfigurationSet
      010019AFH   CODE     ---       _writeProgMemoryBlock
*SFR* 000000D0H.6 DATA     BIT       AC
*SFR* 000000E0H   DATA     BYTE      ACC
*SFR* 000000D3H   DATA     BYTE      ADCCON1
*SFR* 000000D2H   DATA     BYTE      ADCCON2
*SFR* 000000D1H   DATA     BYTE      ADCCON3
*SFR* 000000D4H   DATA     BYTE      ADCDATH
*SFR* 000000D5H   DATA     BYTE      ADCDATL
*SFR* 000000D8H   DATA     BYTE      ADCON
      01002870H   CONST    ---       ADDR_HOST
*SFR* 000000EFH   DATA     BYTE      ARCON
*SFR* 000000F0H   DATA     BYTE      B
*SFR* 000000D8H.7 DATA     BIT       BD
      02000293H   XDATA    ---       buffer
*SFR* 000000C2H   DATA     WORD      CC1
*SFR* 000000C4H   DATA     WORD      CC2
*SFR* 000000C6H   DATA     WORD      CC3
*SFR* 000000C1H   DATA     BYTE      CCEN
*SFR* 000000C3H   DATA     BYTE      CCH1
*SFR* 000000C5H   DATA     BYTE      CCH2
*SFR* 000000C7H   DATA     BYTE      CCH3
*SFR* 000000C2H   DATA     BYTE      CCL1
*SFR* 000000C4H   DATA     BYTE      CCL2
*SFR* 000000C6H   DATA     BYTE      CCL3
*SFR* 000000DDH   DATA     BYTE      CCPDATIA
*SFR* 000000DEH   DATA     BYTE      CCPDATIB
*SFR* 000000DFH   DATA     BYTE      CCPDATO
*SFR* 000000A3H   DATA     BYTE      CLKCTRL
*SFR* 000000ADH   DATA     BYTE      CLKLFCTRL
LX51 LINKER/LOCATER V4.66.62.0                                                        11/16/2016  21:07:52  PAGE 14


*SFR* 000000DBH   DATA     BYTE      COMPCON
      01000F1CH   CODE     ---       configura_dmp
*SFR* 000000CAH   DATA     WORD      CRC
*SFR* 000000CBH   DATA     BYTE      CRCH
*SFR* 000000CAH   DATA     BYTE      CRCL
*SFR* 000000D0H.7 DATA     BIT       CY
      00000050H   DATA     BYTE      data_ready
      0200028FH   XDATA    BYTE      devStatus
      01002781H   CONST    ---       dmpConfig
      01001E57H   CODE     ---       dmpGetFIFOPacketSize
      01000435H   CODE     ---       dmpInitialize
      01001FF8H   CONST    ---       dmpMemory
      02000291H   XDATA    ---       dmpPacketBuffer
      0200028DH   XDATA    WORD      dmpPacketSize
      0000001FH   DATA     BYTE      dmpReady
      01002841H   CONST    ---       dmpUpdates
*SFR* 00000083H   DATA     BYTE      DPH
*SFR* 00000085H   DATA     BYTE      DPH1
*SFR* 00000082H   DATA     BYTE      DPL
*SFR* 00000084H   DATA     BYTE      DPL1
*SFR* 00000092H   DATA     BYTE      DPS
*SFR* 000000A8H.7 DATA     BIT       EA
*SFR* 000000A8H.4 DATA     BIT       ES0
*SFR* 000000A8H.1 DATA     BIT       ET0
*SFR* 000000A8H.3 DATA     BIT       ET1
*SFR* 000000A8H.5 DATA     BIT       ET2
*SFR* 000000A8H   DATA     BIT       EX0
*SFR* 000000A8H.2 DATA     BIT       EX1
*SFR* 000000B8H.7 DATA     BIT       EXEN2
*SFR* 000000C0H.7 DATA     BIT       EXF2
      0100000EH   CODE     ---       ext0_irq
*SFR* 000000D0H.5 DATA     BIT       F0
*SFR* 000000FAH   DATA     BYTE      FCR
*SFR* 000000FBH   DATA     BYTE      FDCR
      02000000H   XDATA    ---       fifoBuffer
      0200028BH   XDATA    WORD      fifoCount
*SFR* 000000F9H   DATA     BYTE      FPCR
*SFR* 000000F8H   DATA     BYTE      FSR
      01001CA4H   CODE     ---       getDMPConfig1
      01001CB2H   CODE     ---       getDMPConfig2
      01001C6CH   CODE     ---       getFIFOCount
      01001B22H   CODE     ---       getFIFOEnabled
      01001C7AH   CODE     ---       getIntStatus
      01001CDCH   CODE     ---       getMotionDetectionDuration
      01001CC0H   CODE     ---       getMotionDetectionThreshold
      01001B6AH   CODE     ---       getOTPBankValid
      01001C18H   CODE     ---       getXAccelOffset
      01001C42H   CODE     ---       getXGyroOffset
      01001BAEH   CODE     ---       getXGyroOffsetTC
      01001C26H   CODE     ---       getYAccelOffset
      01001C50H   CODE     ---       getYGyroOffset
      01001BBEH   CODE     ---       getYGyroOffsetTC
      01001C34H   CODE     ---       getZAccelOffset
      01001AE9H   CODE     ---       getZeroMotionDetectionDuration
      01001CCEH   CODE     ---       getZeroMotionDetectionThreshold
      01001C5EH   CODE     ---       getZGyroOffset
      01001BCEH   CODE     ---       getZGyroOffsetTC
      01001427H   CODE     ---       hal_w2_soft_reset
      01001943H   CODE     ---       hal_w2_wait_data_ready
      01001E43H   CODE     ---       hal_w2_wait_data_ready_ISR
      010017DEH   CODE     ---       I2C_IRQ
      01001E4DH   CODE     ---       I2C_IRQ_handler
      01001D1FH   CODE     ---       i2c_mpu_reset
*SFR* 000000C8H.5 DATA     BIT       I2FR
*SFR* 000000C8H.6 DATA     BIT       I3FR
LX51 LINKER/LOCATER V4.66.62.0                                                        11/16/2016  21:07:52  PAGE 15


*SFR* 00000088H.1 DATA     BIT       IE0
*SFR* 00000088H.3 DATA     BIT       IE1
*SFR* 000000A8H   DATA     BYTE      IEN0
*SFR* 000000B8H   DATA     BYTE      IEN1
*SFR* 000000F8H.3 DATA     BIT       INFEN
      01001B34H   CODE     ---       iniciarIO
      01001D43H   CODE     ---       iniciarRF
*SFR* 000000A6H   DATA     BYTE      INTEXP
*SFR* 000000A9H   DATA     BYTE      IP0
*SFR* 000000B9H   DATA     BYTE      IP1
*SFR* 000000C0H   DATA     BYTE      IRCON
*SFR* 00000088H   DATA     BIT       IT0
*SFR* 00000088H.2 DATA     BIT       IT1
*SFR* 00000080H.3 DATA     BIT       LEDVM
      01000D14H   CODE     ---       ler_dmp
      01001A0AH   CODE     ---       luzes_iniciais
      01000BE7H   CODE     ---       main
      02000081H   XDATA    ---       malloc_memory_pool
      00000020H.4 DATA     BIT       MAX_RT
*SFR* 000000F8H.7 DATA     BIT       MCDIS
*SFR* 000000E9H   DATA     BYTE      MD0
*SFR* 000000EAH   DATA     BYTE      MD1
*SFR* 000000EBH   DATA     BYTE      MD2
*SFR* 000000ECH   DATA     BYTE      MD3
*SFR* 000000EDH   DATA     BYTE      MD4
*SFR* 000000EEH   DATA     BYTE      MD5
*SFR* 000000A7H   DATA     BYTE      MEMCON
*SFR* 000000B8H.4 DATA     BIT       MISC
*SFR* 000000C0H.4 DATA     BIT       MISCF
*SFR* 000000C9H   DATA     BYTE      MPAGE
      01001D4FH   CODE     ---       mpu_8051_malloc_setup
      01001AC1H   CODE     ---       mpu_initialize
      01001AABH   CODE     ---       mpu_testConnection
      0000001EH   DATA     BYTE      mpuInterrupt
      02000040H   XDATA    BYTE      mpuIntStatus
      00000021H.0 BIT      BIT       newPayload
*SFR* 000000AEH   DATA     BYTE      OPMCON
*SFR* 000000D0H.2 DATA     BIT       OV
*SFR* 000000D0H   DATA     BIT       P
*SFR* 00000080H   DATA     BYTE      P0
*SFR* 00000080H   DATA     BIT       P00
*SFR* 00000080H.1 DATA     BIT       P01
*SFR* 00000080H.2 DATA     BIT       P02
*SFR* 00000080H.3 DATA     BIT       P03
*SFR* 00000080H.4 DATA     BIT       P04
*SFR* 00000080H.5 DATA     BIT       P05
*SFR* 00000080H.6 DATA     BIT       P06
*SFR* 00000080H.7 DATA     BIT       P07
*SFR* 0000009EH   DATA     BYTE      P0CON
*SFR* 00000093H   DATA     BYTE      P0DIR
*SFR* 00000090H   DATA     BYTE      P1
*SFR* 00000090H   DATA     BIT       P10
*SFR* 00000090H.1 DATA     BIT       P11
*SFR* 00000090H.2 DATA     BIT       P12
*SFR* 00000090H.3 DATA     BIT       P13
*SFR* 00000090H.4 DATA     BIT       P14
*SFR* 00000090H.5 DATA     BIT       P15
*SFR* 00000090H.6 DATA     BIT       P16
*SFR* 00000090H.7 DATA     BIT       P17
*SFR* 0000009FH   DATA     BYTE      P1CON
*SFR* 00000094H   DATA     BYTE      P1DIR
*SFR* 000000A0H   DATA     BYTE      P2
*SFR* 000000A0H   DATA     BIT       P20
*SFR* 000000A0H.1 DATA     BIT       P21
*SFR* 000000A0H.2 DATA     BIT       P22
LX51 LINKER/LOCATER V4.66.62.0                                                        11/16/2016  21:07:52  PAGE 16


*SFR* 000000A0H.3 DATA     BIT       P23
*SFR* 000000A0H.4 DATA     BIT       P24
*SFR* 000000A0H.5 DATA     BIT       P25
*SFR* 000000A0H.6 DATA     BIT       P26
*SFR* 000000A0H.7 DATA     BIT       P27
*SFR* 00000097H   DATA     BYTE      P2CON
*SFR* 00000095H   DATA     BYTE      P2DIR
*SFR* 000000B0H   DATA     BYTE      P3
*SFR* 000000B0H   DATA     BIT       P30
*SFR* 000000B0H.1 DATA     BIT       P31
*SFR* 000000B0H.2 DATA     BIT       P32
*SFR* 000000B0H.3 DATA     BIT       P33
*SFR* 000000B0H.4 DATA     BIT       P34
*SFR* 000000B0H.5 DATA     BIT       P35
*SFR* 000000B0H.6 DATA     BIT       P36
*SFR* 000000B0H.7 DATA     BIT       P37
*SFR* 0000008FH   DATA     BYTE      P3CON
*SFR* 00000096H   DATA     BYTE      P3DIR
      0200027FH   XDATA    ---       packet_motion6
      02000277H   XDATA    ---       packet_quat
      02000275H   XDATA    WORD      packetSize
      02000290H   XDATA    BYTE      payloadWidth
*SFR* 00000087H   DATA     BYTE      PCON
      01001E39H   CODE     ---       pin_isr_setup
*SFR* 000000DCH   DATA     BYTE      POFCON
*SFR* 000000D0H   DATA     BYTE      PSW
*SFR* 000000B2H   DATA     BYTE      PWMCON
*SFR* 000000A1H   DATA     BYTE      PWMDC0
*SFR* 000000A2H   DATA     BYTE      PWMDC1
*SFR* 000000A4H   DATA     BYTE      PWRDWN
*SFR* 00000098H.2 DATA     BIT       RB80
*SFR* 000000F8H.1 DATA     BIT       RDEND
*SFR* 000000F8H.2 DATA     BIT       RDIS
*SFR* 000000F8H.4 DATA     BIT       RDYN
*SFR* 00000098H.4 DATA     BIT       REN0
      01001D37H   CODE     ---       resetDMP
      01001D13H   CODE     ---       resetFIFO
      01001D2BH   CODE     ---       resetI2CMaster
*SFR* 000000B8H.1 DATA     BIT       RF
      0100171BH   CODE     ---       rf_init
      0100132AH   CODE     ---       RF_IRQ
*SFR* 000000E8H   DATA     BIT       RFCE
*SFR* 000000E8H.2 DATA     BIT       RFCKEN
*SFR* 000000E8H   DATA     BYTE      RFCON
*SFR* 000000E8H.1 DATA     BIT       RFCSN
*SFR* 000000C0H.1 DATA     BIT       RFF
*SFR* 000000B8H   DATA     BIT       RFSPI
*SFR* 000000C0H   DATA     BIT       RFSPIF
*SFR* 00000098H   DATA     BIT       RI0
*SFR* 000000D6H   DATA     BYTE      RNGCTL
*SFR* 000000D7H   DATA     BYTE      RNGDAT
*SFR* 000000D0H.3 DATA     BIT       RS0
*SFR* 000000D0H.4 DATA     BIT       RS1
*SFR* 000000B1H   DATA     BYTE      RSTREAS
*SFR* 000000B4H   DATA     BYTE      RTC2CMP0
*SFR* 000000B5H   DATA     BYTE      RTC2CMP1
*SFR* 000000B3H   DATA     BYTE      RTC2CON
*SFR* 000000B6H   DATA     BYTE      RTC2CPT00
*SFR* 000000ABH   DATA     BYTE      RTC2CPT01
*SFR* 000000ACH   DATA     BYTE      RTC2CPT10
      02000041H   XDATA    ---       rx_buf
      00000020H.6 DATA     BIT       RX_DR
      01001B7BH   CODE     ---       RX_Mode
*SFR* 00000099H   DATA     BYTE      S0BUF
*SFR* 00000098H   DATA     BYTE      S0CON
LX51 LINKER/LOCATER V4.66.62.0                                                        11/16/2016  21:07:52  PAGE 17


*SFR* 000000BAH   DATA     BYTE      S0RELH
*SFR* 000000AAH   DATA     BYTE      S0RELL
*SFR* 00000080H.2 DATA     BIT       S1
*SFR* 00000090H.4 DATA     BIT       S2
      01001205H   CODE     ---       setup
*SFR* 00000098H.7 DATA     BIT       SM0
*SFR* 00000098H.6 DATA     BIT       SM1
*SFR* 00000098H.5 DATA     BIT       SM20
*SFR* 00000081H   DATA     BYTE      SP
*SFR* 000000B8H.2 DATA     BIT       SPI
*SFR* 000000C0H.2 DATA     BIT       SPIF
*SFR* 000000FCH   DATA     BYTE      SPIMCON0
*SFR* 000000FDH   DATA     BYTE      SPIMCON1
*SFR* 000000FFH   DATA     BYTE      SPIMDAT
*SFR* 000000FEH   DATA     BYTE      SPIMSTAT
*SFR* 000000E4H   DATA     BYTE      SPIRCON0
*SFR* 000000E5H   DATA     BYTE      SPIRCON1
*SFR* 000000E7H   DATA     BYTE      SPIRDAT
*SFR* 000000E6H   DATA     BYTE      SPIRSTAT
*SFR* 000000BCH   DATA     BYTE      SPISCON0
*SFR* 000000BDH   DATA     BYTE      SPISCON1
*SFR* 000000BFH   DATA     BYTE      SPISDAT
*SFR* 000000B7H   DATA     BYTE      SPISRDSZ
*SFR* 000000BEH   DATA     BYTE      SPISSTAT
      00000020H   DATA     BYTE      sta
      01001E1BH   CODE     ---       start_T0
      01001E25H   CODE     ---       stop_T0
*SFR* 000000F8H.6 DATA     BIT       STP
*SFR* 000000CCH   DATA     WORD      T2
*SFR* 000000C8H.2 DATA     BIT       T2CM
*SFR* 000000C8H   DATA     BYTE      T2CON
*SFR* 000000C8H   DATA     BIT       T2I0
*SFR* 000000C8H.1 DATA     BIT       T2I1
*SFR* 000000C8H.7 DATA     BIT       T2PS
*SFR* 000000C8H.3 DATA     BIT       T2R0
*SFR* 000000C8H.4 DATA     BIT       T2R1
*SFR* 00000098H.3 DATA     BIT       TB80
*SFR* 00000088H   DATA     BYTE      TCON
*SFR* 00000088H.5 DATA     BIT       TF0
*SFR* 00000088H.7 DATA     BIT       TF1
*SFR* 000000C0H.6 DATA     BIT       TF2
*SFR* 0000008CH   DATA     BYTE      TH0
*SFR* 0000008DH   DATA     BYTE      TH1
*SFR* 000000CDH   DATA     BYTE      TH2
*SFR* 00000098H.1 DATA     BIT       TI0
      0000001CH   DATA     INT       timer_flag
*SFR* 0000008AH   DATA     BYTE      TL0
*SFR* 0000008BH   DATA     BYTE      TL1
*SFR* 000000CCH   DATA     BYTE      TL2
*SFR* 00000089H   DATA     BYTE      TMOD
      01001BDEH   CODE     ---       TMR0_IRQ
*SFR* 00000088H.4 DATA     BIT       TR0
*SFR* 00000088H.6 DATA     BIT       TR1
      02000061H   XDATA    ---       tx_buf
      00000020H.5 DATA     BIT       TX_DS
      01001A77H   CODE     ---       uart_init
      00000051H   DATA     BYTE      w2_status
*SFR* 000000E2H   DATA     BYTE      W2CON0
*SFR* 000000E1H   DATA     BYTE      W2CON1
*SFR* 000000DAH   DATA     BYTE      W2DAT
*SFR* 000000D9H   DATA     BYTE      W2SADR
*SFR* 000000AFH   DATA     BYTE      WDSV
*SFR* 000000F8H.5 DATA     BIT       WEN
*SFR* 000000F8H   DATA     BIT       WPEN
*SFR* 000000A5H   DATA     BYTE      WUCON
LX51 LINKER/LOCATER V4.66.62.0                                                        11/16/2016  21:07:52  PAGE 18


*SFR* 000000C0H.5 DATA     BIT       WUF
*SFR* 000000B8H.5 DATA     BIT       WUIRQ
*SFR* 000000CFH   DATA     BYTE      WUOPC0
*SFR* 000000CEH   DATA     BYTE      WUOPC1
*SFR* 000000B8H.3 DATA     BIT       WUPIN
*SFR* 000000C0H.3 DATA     BIT       WUPINF



SYMBOL TABLE OF MODULE:  FProject (?C_STARTUP)

      VALUE       REP       CLASS    TYPE      SYMBOL NAME
      ====================================================
      ---         MODULE    ---      ---       ?C_STARTUP
      01000000H   PUBLIC    CODE     ---       ?C_STARTUP
      000000E0H   SYMBOL    DATA     ---       ACC
      000000F0H   SYMBOL    DATA     ---       B
      00000083H   SYMBOL    DATA     ---       DPH
      00000082H   SYMBOL    DATA     ---       DPL
      00000000H   SYMBOL    NUMBER   ---       IBPSTACK
      00000100H   SYMBOL    NUMBER   ---       IBPSTACKTOP
      00000080H   SYMBOL    NUMBER   ---       IDATALEN
      010012A1H   SYMBOL    CODE     ---       IDATALOOP
      00000000H   SYMBOL    NUMBER   ---       PBPSTACK
      00000100H   SYMBOL    NUMBER   ---       PBPSTACKTOP
      00000000H   SYMBOL    NUMBER   ---       PDATALEN
      00000000H   SYMBOL    NUMBER   ---       PDATASTART
      00000000H   SYMBOL    NUMBER   ---       PPAGE
      00000000H   SYMBOL    NUMBER   ---       PPAGEENABLE
      000000A0H   SYMBOL    DATA     ---       PPAGE_SFR
      00000081H   SYMBOL    DATA     ---       SP
      0100129EH   SYMBOL    CODE     ---       STARTUP1
      00000000H   SYMBOL    NUMBER   ---       XBPSTACK
      00000000H   SYMBOL    NUMBER   ---       XBPSTACKTOP
      00000000H   SYMBOL    NUMBER   ---       XDATALEN
      00000000H   SYMBOL    NUMBER   ---       XDATASTART
      01000000H   LINE      CODE     ---       #126
      0100129EH   LINE      CODE     ---       #133
      010012A0H   LINE      CODE     ---       #134
      010012A1H   LINE      CODE     ---       #135
      010012A2H   LINE      CODE     ---       #136
      010012A4H   LINE      CODE     ---       #185
      010012A7H   LINE      CODE     ---       #196

      ---         MODULE    ---      ---       MAIN
      02000293H   PUBLIC    XDATA    ---       buffer
      02000291H   PUBLIC    XDATA    ---       dmpPacketBuffer
      02000290H   PUBLIC    XDATA    BYTE      payloadWidth
      00000020H.4 PUBLIC    DATA     BIT       MAX_RT
      0200028FH   PUBLIC    XDATA    BYTE      devStatus
      0200028DH   PUBLIC    XDATA    WORD      dmpPacketSize
      0000001FH   PUBLIC    DATA     BYTE      dmpReady
      0200028BH   PUBLIC    XDATA    WORD      fifoCount
      0200027FH   PUBLIC    XDATA    ---       packet_motion6
      0000001EH   PUBLIC    DATA     BYTE      mpuInterrupt
      00000020H.5 PUBLIC    DATA     BIT       TX_DS
      0000001CH   PUBLIC    DATA     INT       timer_flag
      00000020H.6 PUBLIC    DATA     BIT       RX_DR
      00000020H   PUBLIC    DATA     BYTE      sta
      00000021H.0 PUBLIC    BIT      BIT       newPayload
      02000277H   PUBLIC    XDATA    ---       packet_quat
      02000275H   PUBLIC    XDATA    WORD      packetSize
      02000081H   PUBLIC    XDATA    ---       malloc_memory_pool
      02000061H   PUBLIC    XDATA    ---       tx_buf
      02000041H   PUBLIC    XDATA    ---       rx_buf
LX51 LINKER/LOCATER V4.66.62.0                                                        11/16/2016  21:07:52  PAGE 19


      02000040H   PUBLIC    XDATA    BYTE      mpuIntStatus
      02000000H   PUBLIC    XDATA    ---       fifoBuffer
      01002870H   PUBLIC    CONST    ---       ADDR_HOST
      01002841H   PUBLIC    CONST    ---       dmpUpdates
      01002781H   PUBLIC    CONST    ---       dmpConfig
      01001FF8H   PUBLIC    CONST    ---       dmpMemory
      010017DEH   PUBLIC    CODE     ---       I2C_IRQ
      01001A0AH   PUBLIC    CODE     ---       luzes_iniciais
      01000BE7H   PUBLIC    CODE     ---       main
      01000D14H   PUBLIC    CODE     ---       ler_dmp
      01000F1CH   PUBLIC    CODE     ---       configura_dmp
      01001205H   PUBLIC    CODE     ---       setup
      01001B34H   PUBLIC    CODE     ---       iniciarIO
      0100000EH   PUBLIC    CODE     ---       ext0_irq
      01001E39H   PUBLIC    CODE     ---       pin_isr_setup
      00000048H   PUBLIC    DATA     BYTE      ?_send_packet_from_host_to_computer?BYTE
      0100188BH   PUBLIC    CODE     ---       _send_packet_from_host_to_computer
      00000043H   PUBLIC    DATA     BYTE      ?_send_packet_to_computer?BYTE
      01000016H   PUBLIC    CODE     ---       _send_packet_to_computer
      00000022H   PUBLIC    DATA     BYTE      ?_send_packet_to_host?BYTE
      0100167AH   PUBLIC    CODE     ---       _send_packet_to_host
      010019EEH   PUBLIC    CODE     ---       _putstring
      01001B95H   PUBLIC    CODE     ---       _uart_putchar
      01001A77H   PUBLIC    CODE     ---       uart_init
      01001D43H   PUBLIC    CODE     ---       iniciarRF
      0100171BH   PUBLIC    CODE     ---       rf_init
      0100132AH   PUBLIC    CODE     ---       RF_IRQ
      010018ECH   PUBLIC    CODE     ---       _TX_Mode_NOACK
      01001B7BH   PUBLIC    CODE     ---       RX_Mode
      00000029H   PUBLIC    DATA     BYTE      ?_SPI_Write_Buf?BYTE
      010019CFH   PUBLIC    CODE     ---       _SPI_Write_Buf
      00000038H   PUBLIC    DATA     BYTE      ?_SPI_Read_Buf?BYTE
      01001918H   PUBLIC    CODE     ---       _SPI_Read_Buf
      01001D06H   PUBLIC    CODE     ---       _SPI_Read
      01001AFCH   PUBLIC    CODE     ---       _SPI_RW_Reg
      01001E2FH   PUBLIC    CODE     ---       _SPI_RW
      01001E25H   PUBLIC    CODE     ---       stop_T0
      01001E1BH   PUBLIC    CODE     ---       start_T0
      01001BDEH   PUBLIC    CODE     ---       TMR0_IRQ
      020002A1H   PUBLIC    XDATA    BYTE      ?_dmpGetQuaternion_int16?BYTE
      0100149AH   PUBLIC    CODE     ---       _dmpGetQuaternion_int16
      01000435H   PUBLIC    CODE     ---       dmpInitialize
      01001D37H   PUBLIC    CODE     ---       resetDMP
      01001D91H   PUBLIC    CODE     ---       _setFIFOEnabled
      01001B22H   PUBLIC    CODE     ---       getFIFOEnabled
      01001EA8H   PUBLIC    CODE     ---       _setZeroMotionDetectionDuration
      01001AE9H   PUBLIC    CODE     ---       getZeroMotionDetectionDuration
      01001E9FH   PUBLIC    CODE     ---       _setMotionDetectionDuration
      01001CDCH   PUBLIC    CODE     ---       getMotionDetectionDuration
      01001E96H   PUBLIC    CODE     ---       _setZeroMotionDetectionThreshold
      01001CCEH   PUBLIC    CODE     ---       getZeroMotionDetectionThreshold
      01001E8DH   PUBLIC    CODE     ---       _setMotionDetectionThreshold
      01001CC0H   PUBLIC    CODE     ---       getMotionDetectionThreshold
      01001E11H   PUBLIC    CODE     ---       _setZGyroOffsetTC
      01001BCEH   PUBLIC    CODE     ---       getZGyroOffsetTC
      01001E07H   PUBLIC    CODE     ---       _setYGyroOffsetTC
      01001BBEH   PUBLIC    CODE     ---       getYGyroOffsetTC
      01001DFDH   PUBLIC    CODE     ---       _setXGyroOffsetTC
      01001BAEH   PUBLIC    CODE     ---       getXGyroOffsetTC
      01001DF3H   PUBLIC    CODE     ---       _setOTPBankValid
      01001B6AH   PUBLIC    CODE     ---       getOTPBankValid
      01001E84H   PUBLIC    CODE     ---       _setDMPConfig2
      01001CB2H   PUBLIC    CODE     ---       getDMPConfig2
      01001E7BH   PUBLIC    CODE     ---       _setDMPConfig1
      01001CA4H   PUBLIC    CODE     ---       getDMPConfig1
LX51 LINKER/LOCATER V4.66.62.0                                                        11/16/2016  21:07:52  PAGE 20


      01001C96H   PUBLIC    CODE     ---       _setDLPFMode
      01001C88H   PUBLIC    CODE     ---       _setExternalFrameSync
      01001E72H   PUBLIC    CODE     ---       _setRate
      01001E69H   PUBLIC    CODE     ---       _setIntEnabled
      01001D2BH   PUBLIC    CODE     ---       resetI2CMaster
      01001D86H   PUBLIC    CODE     ---       _setI2CMasterModeEnabled
      01001A5DH   PUBLIC    CODE     ---       _setSlaveAddress
      01001D1FH   PUBLIC    CODE     ---       i2c_mpu_reset
      02000339H   PUBLIC    XDATA    BYTE      ?_writeProgMemoryBlock?BYTE
      010019AFH   PUBLIC    CODE     ---       _writeProgMemoryBlock
      01001DE9H   PUBLIC    CODE     ---       _writeProgDMPConfigurationSet
      02000339H   PUBLIC    XDATA    BYTE      ?_readMemoryBlock?BYTE
      01001010H   PUBLIC    CODE     ---       _readMemoryBlock
      02000339H   PUBLIC    XDATA    BYTE      ?_writeDMPConfigurationSet?BYTE
      01000A58H   PUBLIC    CODE     ---       _writeDMPConfigurationSet
      02000349H   PUBLIC    XDATA    BYTE      ?_writeMemoryBlock?BYTE
      010008B4H   PUBLIC    CODE     ---       _writeMemoryBlock
      01001E60H   PUBLIC    CODE     ---       _setMemoryStartAddress
      010018C0H   PUBLIC    CODE     ---       _getFIFOBytes
      01001E57H   PUBLIC    CODE     ---       dmpGetFIFOPacketSize
      01001D13H   PUBLIC    CODE     ---       resetFIFO
      01001D7BH   PUBLIC    CODE     ---       _setDMPEnabled
      01001C7AH   PUBLIC    CODE     ---       getIntStatus
      01001C6CH   PUBLIC    CODE     ---       getFIFOCount
      01001A42H   PUBLIC    CODE     ---       _setMemoryBank
      01001C5EH   PUBLIC    CODE     ---       getZGyroOffset
      01001C50H   PUBLIC    CODE     ---       getYGyroOffset
      01001C42H   PUBLIC    CODE     ---       getXGyroOffset
      01001C34H   PUBLIC    CODE     ---       getZAccelOffset
      01001C26H   PUBLIC    CODE     ---       getYAccelOffset
      01001C18H   PUBLIC    CODE     ---       getXAccelOffset
      01001D70H   PUBLIC    CODE     ---       _setZGyroOffset
      01001D65H   PUBLIC    CODE     ---       _setYGyroOffset
      01001EC1H   PUBLIC    CODE     ---       _setXGyroOffset
      01001EB9H   PUBLIC    CODE     ---       _setZAccelOffset
      01001EB1H   PUBLIC    CODE     ---       _setYAccelOffset
      01000003H   PUBLIC    CODE     ---       _setXAccelOffset
      010010CBH   PUBLIC    CODE     ---       _getMotion6_packet
      01001AABH   PUBLIC    CODE     ---       mpu_testConnection
      01001AC1H   PUBLIC    CODE     ---       mpu_initialize
      01001D5AH   PUBLIC    CODE     ---       _setSleepEnabled
      01001C0AH   PUBLIC    CODE     ---       _setFullScaleAccelRange
      01001BFCH   PUBLIC    CODE     ---       _setFullScaleGyroRange
      01001BEEH   PUBLIC    CODE     ---       _setClockSource
      01001D4FH   PUBLIC    CODE     ---       mpu_8051_malloc_setup
      00000098H.3 SFRSYM    DATA     BIT       TB80
      000000BEH   SFRSYM    DATA     BYTE      SPISSTAT
      000000C8H   SFRSYM    DATA     BIT       T2I0
      000000C3H   SFRSYM    DATA     BYTE      CCH1
      00000080H   SFRSYM    DATA     BYTE      P0
      000000C8H.1 SFRSYM    DATA     BIT       T2I1
      000000DFH   SFRSYM    DATA     BYTE      CCPDATO
      000000C5H   SFRSYM    DATA     BYTE      CCH2
      00000090H   SFRSYM    DATA     BYTE      P1
      000000C7H   SFRSYM    DATA     BYTE      CCH3
      000000A0H   SFRSYM    DATA     BYTE      P2
      00000098H.5 SFRSYM    DATA     BIT       SM20
      000000B0H   SFRSYM    DATA     BYTE      P3
      00000080H.2 SFRSYM    DATA     BIT       S1
      000000D0H.6 SFRSYM    DATA     BIT       AC
      000000C2H   SFRSYM    DATA     BYTE      CCL1
      00000090H.4 SFRSYM    DATA     BIT       S2
      000000C4H   SFRSYM    DATA     BYTE      CCL2
      000000D8H.7 SFRSYM    DATA     BIT       BD
      000000B8H   SFRSYM    DATA     BIT       RFSPI
LX51 LINKER/LOCATER V4.66.62.0                                                        11/16/2016  21:07:52  PAGE 21


      000000A8H.7 SFRSYM    DATA     BIT       EA
      000000CCH   SFRSYM    DATA     WORD      T2
      000000C6H   SFRSYM    DATA     BYTE      CCL3
      000000B7H   SFRSYM    DATA     BYTE      SPISRDSZ
      000000C8H.3 SFRSYM    DATA     BIT       T2R0
      000000C8H.4 SFRSYM    DATA     BIT       T2R1
      000000A8H   SFRSYM    DATA     BYTE      IEN0
      000000B8H   SFRSYM    DATA     BYTE      IEN1
      000000A5H   SFRSYM    DATA     BYTE      WUCON
      00000085H   SFRSYM    DATA     BYTE      DPH1
      000000DBH   SFRSYM    DATA     BYTE      COMPCON
      000000A3H   SFRSYM    DATA     BYTE      CLKCTRL
      00000084H   SFRSYM    DATA     BYTE      DPL1
      000000C8H.5 SFRSYM    DATA     BIT       I2FR
      000000B8H.3 SFRSYM    DATA     BIT       WUPIN
      000000C8H.6 SFRSYM    DATA     BIT       I3FR
      000000FFH   SFRSYM    DATA     BYTE      SPIMDAT
      000000C0H.7 SFRSYM    DATA     BIT       EXF2
      00000098H.4 SFRSYM    DATA     BIT       REN0
      000000C8H.2 SFRSYM    DATA     BIT       T2CM
      000000B8H.1 SFRSYM    DATA     BIT       RF
      000000B8H.5 SFRSYM    DATA     BIT       WUIRQ
      000000E7H   SFRSYM    DATA     BYTE      SPIRDAT
      000000C1H   SFRSYM    DATA     BYTE      CCEN
      000000E2H   SFRSYM    DATA     BYTE      W2CON0
      000000BFH   SFRSYM    DATA     BYTE      SPISDAT
      000000D0H.7 SFRSYM    DATA     BIT       CY
      000000E1H   SFRSYM    DATA     BYTE      W2CON1
      000000FBH   SFRSYM    DATA     BYTE      FDCR
      000000E8H   SFRSYM    DATA     BIT       RFCE
      000000CBH   SFRSYM    DATA     BYTE      CRCH
      00000081H   SFRSYM    DATA     BYTE      SP
      000000D0H.2 SFRSYM    DATA     BIT       OV
      000000CAH   SFRSYM    DATA     BYTE      CRCL
      000000ADH   SFRSYM    DATA     BYTE      CLKLFCTRL
      000000B1H   SFRSYM    DATA     BYTE      RSTREAS
      000000C8H.7 SFRSYM    DATA     BIT       T2PS
      000000F9H   SFRSYM    DATA     BYTE      FPCR
      000000B8H.4 SFRSYM    DATA     BIT       MISC
      000000A1H   SFRSYM    DATA     BYTE      PWMDC0
      000000B4H   SFRSYM    DATA     BYTE      RTC2CMP0
      000000A2H   SFRSYM    DATA     BYTE      PWMDC1
      000000B5H   SFRSYM    DATA     BYTE      RTC2CMP1
      00000080H   SFRSYM    DATA     BIT       P00
      000000BAH   SFRSYM    DATA     BYTE      S0RELH
      00000090H   SFRSYM    DATA     BIT       P10
      00000080H.1 SFRSYM    DATA     BIT       P01
      00000087H   SFRSYM    DATA     BYTE      PCON
      000000A0H   SFRSYM    DATA     BIT       P20
      00000090H.1 SFRSYM    DATA     BIT       P11
      00000080H.2 SFRSYM    DATA     BIT       P02
      000000B0H   SFRSYM    DATA     BIT       P30
      000000A0H.1 SFRSYM    DATA     BIT       P21
      00000090H.2 SFRSYM    DATA     BIT       P12
      00000080H.3 SFRSYM    DATA     BIT       P03
      000000C0H.2 SFRSYM    DATA     BIT       SPIF
      000000F8H.2 SFRSYM    DATA     BIT       RDIS
      000000B0H.1 SFRSYM    DATA     BIT       P31
      000000A0H.2 SFRSYM    DATA     BIT       P22
      00000090H.3 SFRSYM    DATA     BIT       P13
      00000080H.4 SFRSYM    DATA     BIT       P04
      000000AAH   SFRSYM    DATA     BYTE      S0RELL
      000000B0H.2 SFRSYM    DATA     BIT       P32
      000000A0H.3 SFRSYM    DATA     BIT       P23
      00000090H.4 SFRSYM    DATA     BIT       P14
LX51 LINKER/LOCATER V4.66.62.0                                                        11/16/2016  21:07:52  PAGE 22


      00000080H.5 SFRSYM    DATA     BIT       P05
      000000D9H   SFRSYM    DATA     BYTE      W2SADR
      00000089H   SFRSYM    DATA     BYTE      TMOD
      00000088H   SFRSYM    DATA     BYTE      TCON
      000000B0H.3 SFRSYM    DATA     BIT       P33
      000000A0H.4 SFRSYM    DATA     BIT       P24
      00000090H.5 SFRSYM    DATA     BIT       P15
      00000080H.6 SFRSYM    DATA     BIT       P06
      000000B0H.4 SFRSYM    DATA     BIT       P34
      000000A0H.5 SFRSYM    DATA     BIT       P25
      00000090H.6 SFRSYM    DATA     BIT       P16
      00000080H.7 SFRSYM    DATA     BIT       P07
      000000C2H   SFRSYM    DATA     WORD      CC1
      000000B0H.5 SFRSYM    DATA     BIT       P35
      000000A0H.6 SFRSYM    DATA     BIT       P26
      00000090H.7 SFRSYM    DATA     BIT       P17
      000000C4H   SFRSYM    DATA     WORD      CC2
      000000B0H.6 SFRSYM    DATA     BIT       P36
      000000A0H.7 SFRSYM    DATA     BIT       P27
      000000C6H   SFRSYM    DATA     WORD      CC3
      000000B0H.7 SFRSYM    DATA     BIT       P37
      000000E8H.2 SFRSYM    DATA     BIT       RFCKEN
      000000F8H   SFRSYM    DATA     BIT       WPEN
      000000DDH   SFRSYM    DATA     BYTE      CCPDATIA
      000000DEH   SFRSYM    DATA     BYTE      CCPDATIB
      00000088H.1 SFRSYM    DATA     BIT       IE0
      000000F8H.4 SFRSYM    DATA     BIT       RDYN
      00000088H.3 SFRSYM    DATA     BIT       IE1
      000000CFH   SFRSYM    DATA     BYTE      WUOPC0
      000000F0H   SFRSYM    DATA     BYTE      B
      000000E9H   SFRSYM    DATA     BYTE      MD0
      000000CEH   SFRSYM    DATA     BYTE      WUOPC1
      000000A7H   SFRSYM    DATA     BYTE      MEMCON
      000000EAH   SFRSYM    DATA     BYTE      MD1
      000000D7H   SFRSYM    DATA     BYTE      RNGDAT
      000000EBH   SFRSYM    DATA     BYTE      MD2
      000000ECH   SFRSYM    DATA     BYTE      MD3
      000000EDH   SFRSYM    DATA     BYTE      MD4
      000000AFH   SFRSYM    DATA     BYTE      WDSV
      000000EEH   SFRSYM    DATA     BYTE      MD5
      000000E0H   SFRSYM    DATA     BYTE      ACC
      000000DCH   SFRSYM    DATA     BYTE      POFCON
      000000A8H.4 SFRSYM    DATA     BIT       ES0
      000000A8H.1 SFRSYM    DATA     BIT       ET0
      000000A9H   SFRSYM    DATA     BYTE      IP0
      000000A8H.3 SFRSYM    DATA     BIT       ET1
      00000088H.5 SFRSYM    DATA     BIT       TF0
      000000B9H   SFRSYM    DATA     BYTE      IP1
      000000A8H.5 SFRSYM    DATA     BIT       ET2
      00000098H   SFRSYM    DATA     BIT       RI0
      00000088H.7 SFRSYM    DATA     BIT       TF1
      000000C0H   SFRSYM    DATA     BIT       RFSPIF
      000000C0H.6 SFRSYM    DATA     BIT       TF2
      000000FCH   SFRSYM    DATA     BYTE      SPIMCON0
      000000D6H   SFRSYM    DATA     BYTE      RNGCTL
      0000008CH   SFRSYM    DATA     BYTE      TH0
      000000A8H   SFRSYM    DATA     BIT       EX0
      00000098H.1 SFRSYM    DATA     BIT       TI0
      00000088H   SFRSYM    DATA     BIT       IT0
      000000FDH   SFRSYM    DATA     BYTE      SPIMCON1
      0000008DH   SFRSYM    DATA     BYTE      TH1
      000000A8H.2 SFRSYM    DATA     BIT       EX1
      00000088H.2 SFRSYM    DATA     BIT       IT1
      000000CDH   SFRSYM    DATA     BYTE      TH2
      000000AEH   SFRSYM    DATA     BYTE      OPMCON
LX51 LINKER/LOCATER V4.66.62.0                                                        11/16/2016  21:07:52  PAGE 23


      000000D0H   SFRSYM    DATA     BIT       P
      00000098H.7 SFRSYM    DATA     BIT       SM0
      0000008AH   SFRSYM    DATA     BYTE      TL0
      00000098H.6 SFRSYM    DATA     BIT       SM1
      000000E4H   SFRSYM    DATA     BYTE      SPIRCON0
      0000008BH   SFRSYM    DATA     BYTE      TL1
      000000E5H   SFRSYM    DATA     BYTE      SPIRCON1
      000000CCH   SFRSYM    DATA     BYTE      TL2
      000000BCH   SFRSYM    DATA     BYTE      SPISCON0
      000000BDH   SFRSYM    DATA     BYTE      SPISCON1
      000000D0H.3 SFRSYM    DATA     BIT       RS0
      00000088H.4 SFRSYM    DATA     BIT       TR0
      000000D0H.4 SFRSYM    DATA     BIT       RS1
      000000B2H   SFRSYM    DATA     BYTE      PWMCON
      00000088H.6 SFRSYM    DATA     BIT       TR1
      000000CAH   SFRSYM    DATA     WORD      CRC
      000000A6H   SFRSYM    DATA     BYTE      INTEXP
      000000C0H.3 SFRSYM    DATA     BIT       WUPINF
      000000FAH   SFRSYM    DATA     BYTE      FCR
      000000D3H   SFRSYM    DATA     BYTE      ADCCON1
      000000D2H   SFRSYM    DATA     BYTE      ADCCON2
      00000083H   SFRSYM    DATA     BYTE      DPH
      000000D1H   SFRSYM    DATA     BYTE      ADCCON3
      000000C0H.1 SFRSYM    DATA     BIT       RFF
      00000093H   SFRSYM    DATA     BYTE      P0DIR
      00000082H   SFRSYM    DATA     BYTE      DPL
      0000009EH   SFRSYM    DATA     BYTE      P0CON
      00000099H   SFRSYM    DATA     BYTE      S0BUF
      00000094H   SFRSYM    DATA     BYTE      P1DIR
      0000009FH   SFRSYM    DATA     BYTE      P1CON
      00000095H   SFRSYM    DATA     BYTE      P2DIR
      000000B8H.7 SFRSYM    DATA     BIT       EXEN2
      000000DAH   SFRSYM    DATA     BYTE      W2DAT
      00000097H   SFRSYM    DATA     BYTE      P2CON
      00000096H   SFRSYM    DATA     BYTE      P3DIR
      000000A4H   SFRSYM    DATA     BYTE      PWRDWN
      00000098H   SFRSYM    DATA     BYTE      S0CON
      0000008FH   SFRSYM    DATA     BYTE      P3CON
      000000B6H   SFRSYM    DATA     BYTE      RTC2CPT00
      000000D8H   SFRSYM    DATA     BYTE      ADCON
      000000ACH   SFRSYM    DATA     BYTE      RTC2CPT10
      000000ABH   SFRSYM    DATA     BYTE      RTC2CPT01
      000000C8H   SFRSYM    DATA     BYTE      T2CON
      00000092H   SFRSYM    DATA     BYTE      DPS
      000000F8H.5 SFRSYM    DATA     BIT       WEN
      000000F8H   SFRSYM    DATA     BYTE      FSR
      000000D4H   SFRSYM    DATA     BYTE      ADCDATH
      000000C9H   SFRSYM    DATA     BYTE      MPAGE
      000000B8H.2 SFRSYM    DATA     BIT       SPI
      000000F8H.1 SFRSYM    DATA     BIT       RDEND
      000000D5H   SFRSYM    DATA     BYTE      ADCDATL
      000000F8H.3 SFRSYM    DATA     BIT       INFEN
      000000F8H.7 SFRSYM    DATA     BIT       MCDIS
      000000C0H.5 SFRSYM    DATA     BIT       WUF
      000000C0H.4 SFRSYM    DATA     BIT       MISCF
      000000EFH   SFRSYM    DATA     BYTE      ARCON
      000000D0H.5 SFRSYM    DATA     BIT       F0
      000000F8H.6 SFRSYM    DATA     BIT       STP
      000000FEH   SFRSYM    DATA     BYTE      SPIMSTAT
      00000080H.3 SFRSYM    DATA     BIT       LEDVM
      000000E8H   SFRSYM    DATA     BYTE      RFCON
      000000D0H   SFRSYM    DATA     BYTE      PSW
      00000098H.2 SFRSYM    DATA     BIT       RB80
      000000C0H   SFRSYM    DATA     BYTE      IRCON
      000000E8H.1 SFRSYM    DATA     BIT       RFCSN
LX51 LINKER/LOCATER V4.66.62.0                                                        11/16/2016  21:07:52  PAGE 24


      000000E6H   SFRSYM    DATA     BYTE      SPIRSTAT
      000000B3H   SFRSYM    DATA     BYTE      RTC2CON

      010006CBH   BLOCK     CODE     ---       LVL=0
      ---         BLOCKEND  ---      ---       LVL=0

      01001D4FH   BLOCK     CODE     ---       LVL=0
      01001D4FH   LINE      CODE     ---       #20
      01001D4FH   LINE      CODE     ---       #21
      ---         BLOCKEND  ---      ---       LVL=0

      01001BEEH   BLOCK     CODE     ---       LVL=0
      00000007H   SYMBOL    DATA     BYTE      source
      01001BEEH   LINE      CODE     ---       #23
      01001BEEH   LINE      CODE     ---       #24
      ---         BLOCKEND  ---      ---       LVL=0

      01001BFCH   BLOCK     CODE     ---       LVL=0
      00000007H   SYMBOL    DATA     BYTE      range
      01001BFCH   LINE      CODE     ---       #26
      01001BFCH   LINE      CODE     ---       #27
      ---         BLOCKEND  ---      ---       LVL=0

      01001C0AH   BLOCK     CODE     ---       LVL=0
      00000007H   SYMBOL    DATA     BYTE      range
      01001C0AH   LINE      CODE     ---       #29
      01001C0AH   LINE      CODE     ---       #30
      ---         BLOCKEND  ---      ---       LVL=0

      01001D5AH   BLOCK     CODE     ---       LVL=0
      00000007H   SYMBOL    DATA     BYTE      enabled
      01001D5AH   LINE      CODE     ---       #32
      01001D5AH   LINE      CODE     ---       #33
      ---         BLOCKEND  ---      ---       LVL=0

      01001AC1H   BLOCK     CODE     ---       LVL=0
      01001AC1H   LINE      CODE     ---       #35
      01001AC1H   LINE      CODE     ---       #36
      01001AC6H   LINE      CODE     ---       #37
      01001ACBH   LINE      CODE     ---       #38
      01001AD0H   LINE      CODE     ---       #39
      ---         BLOCKEND  ---      ---       LVL=0

      01001AABH   BLOCK     CODE     ---       LVL=0
      01001AABH   LINE      CODE     ---       #41
      01001AABH   LINE      CODE     ---       #42
      01001AB5H   LINE      CODE     ---       #43
      01001AC0H   LINE      CODE     ---       #44
      ---         BLOCKEND  ---      ---       LVL=0

      010010CBH   BLOCK     CODE     ---       LVL=0
      020002A1H   SYMBOL    XDATA    ---       packet6
      010010CBH   LINE      CODE     ---       #45
      010010D3H   LINE      CODE     ---       #46
      010010E5H   LINE      CODE     ---       #47
      010010F8H   LINE      CODE     ---       #48
      010010FFH   LINE      CODE     ---       #49
      01001107H   LINE      CODE     ---       #50
      01001110H   LINE      CODE     ---       #51
      0100111BH   LINE      CODE     ---       #52
      01001126H   LINE      CODE     ---       #53
      01001131H   LINE      CODE     ---       #54
      0100113CH   LINE      CODE     ---       #55
      01001147H   LINE      CODE     ---       #56
      01001152H   LINE      CODE     ---       #57
LX51 LINKER/LOCATER V4.66.62.0                                                        11/16/2016  21:07:52  PAGE 25


      0100115DH   LINE      CODE     ---       #58
      01001168H   LINE      CODE     ---       #59
      ---         BLOCKEND  ---      ---       LVL=0

      01000003H   BLOCK     CODE     ---       LVL=0
      00000006H   SYMBOL    DATA     INT       offset
      01000003H   LINE      CODE     ---       #60
      01000003H   LINE      CODE     ---       #61
      ---         BLOCKEND  ---      ---       LVL=0

      01001EB1H   BLOCK     CODE     ---       LVL=0
      00000006H   SYMBOL    DATA     INT       offset
      01001EB1H   LINE      CODE     ---       #63
      01001EB1H   LINE      CODE     ---       #64
      ---         BLOCKEND  ---      ---       LVL=0

      01001EB9H   BLOCK     CODE     ---       LVL=0
      00000006H   SYMBOL    DATA     INT       offset
      01001EB9H   LINE      CODE     ---       #66
      01001EB9H   LINE      CODE     ---       #67
      ---         BLOCKEND  ---      ---       LVL=0

      01001EC1H   BLOCK     CODE     ---       LVL=0
      00000006H   SYMBOL    DATA     INT       offset
      01001EC1H   LINE      CODE     ---       #69
      01001EC1H   LINE      CODE     ---       #70
      ---         BLOCKEND  ---      ---       LVL=0

      01001D65H   BLOCK     CODE     ---       LVL=0
      00000006H   SYMBOL    DATA     INT       offset
      01001D65H   LINE      CODE     ---       #72
      01001D65H   LINE      CODE     ---       #73
      ---         BLOCKEND  ---      ---       LVL=0

      01001D70H   BLOCK     CODE     ---       LVL=0
      00000006H   SYMBOL    DATA     INT       offset
      01001D70H   LINE      CODE     ---       #75
      01001D70H   LINE      CODE     ---       #76
      ---         BLOCKEND  ---      ---       LVL=0

      01001C18H   BLOCK     CODE     ---       LVL=0
      01001C18H   LINE      CODE     ---       #79
      01001C18H   LINE      CODE     ---       #80
      01001C22H   LINE      CODE     ---       #81
      01001C25H   LINE      CODE     ---       #82
      ---         BLOCKEND  ---      ---       LVL=0

      01001C26H   BLOCK     CODE     ---       LVL=0
      01001C26H   LINE      CODE     ---       #83
      01001C26H   LINE      CODE     ---       #84
      01001C30H   LINE      CODE     ---       #85
      01001C33H   LINE      CODE     ---       #86
      ---         BLOCKEND  ---      ---       LVL=0

      01001C34H   BLOCK     CODE     ---       LVL=0
      01001C34H   LINE      CODE     ---       #87
      01001C34H   LINE      CODE     ---       #88
      01001C3EH   LINE      CODE     ---       #89
      01001C41H   LINE      CODE     ---       #90
      ---         BLOCKEND  ---      ---       LVL=0

      01001C42H   BLOCK     CODE     ---       LVL=0
      01001C42H   LINE      CODE     ---       #91
      01001C42H   LINE      CODE     ---       #92
      01001C4CH   LINE      CODE     ---       #93
LX51 LINKER/LOCATER V4.66.62.0                                                        11/16/2016  21:07:52  PAGE 26


      01001C4FH   LINE      CODE     ---       #94
      ---         BLOCKEND  ---      ---       LVL=0

      01001C50H   BLOCK     CODE     ---       LVL=0
      01001C50H   LINE      CODE     ---       #95
      01001C50H   LINE      CODE     ---       #96
      01001C5AH   LINE      CODE     ---       #97
      01001C5DH   LINE      CODE     ---       #98
      ---         BLOCKEND  ---      ---       LVL=0

      01001C5EH   BLOCK     CODE     ---       LVL=0
      01001C5EH   LINE      CODE     ---       #99
      01001C5EH   LINE      CODE     ---       #100
      01001C68H   LINE      CODE     ---       #101
      01001C6BH   LINE      CODE     ---       #102
      ---         BLOCKEND  ---      ---       LVL=0

      01001A42H   BLOCK     CODE     ---       LVL=0
      00000007H   SYMBOL    DATA     BYTE      bank
      00000005H   SYMBOL    DATA     BYTE      prefetchEnabled
      00000003H   SYMBOL    DATA     BYTE      userBank
      01001A42H   LINE      CODE     ---       #104
      01001A42H   LINE      CODE     ---       #105
      01001A46H   LINE      CODE     ---       #106
      01001A4DH   LINE      CODE     ---       #107
      01001A54H   LINE      CODE     ---       #108
      ---         BLOCKEND  ---      ---       LVL=0

      01001C6CH   BLOCK     CODE     ---       LVL=0
      01001C6CH   LINE      CODE     ---       #111
      01001C6CH   LINE      CODE     ---       #112
      01001C76H   LINE      CODE     ---       #113
      01001C79H   LINE      CODE     ---       #114
      ---         BLOCKEND  ---      ---       LVL=0

      01001C7AH   BLOCK     CODE     ---       LVL=0
      01001C7AH   LINE      CODE     ---       #116
      01001C7AH   LINE      CODE     ---       #117
      01001C82H   LINE      CODE     ---       #118
      01001C87H   LINE      CODE     ---       #119
      ---         BLOCKEND  ---      ---       LVL=0

      01001D7BH   BLOCK     CODE     ---       LVL=0
      00000007H   SYMBOL    DATA     BYTE      enabled
      01001D7BH   LINE      CODE     ---       #121
      01001D7BH   LINE      CODE     ---       #122
      ---         BLOCKEND  ---      ---       LVL=0

      01001D13H   BLOCK     CODE     ---       LVL=0
      01001D13H   LINE      CODE     ---       #125
      01001D13H   LINE      CODE     ---       #126
      ---         BLOCKEND  ---      ---       LVL=0

      01001E57H   BLOCK     CODE     ---       LVL=0
      01001E57H   LINE      CODE     ---       #129
      01001E57H   LINE      CODE     ---       #130
      01001E5FH   LINE      CODE     ---       #131
      ---         BLOCKEND  ---      ---       LVL=0

      010018C0H   BLOCK     CODE     ---       LVL=0
      02000339H   SYMBOL    XDATA    ---       data_ptr
      00000005H   SYMBOL    DATA     BYTE      data_len
      010018C0H   LINE      CODE     ---       #133
      010018C6H   LINE      CODE     ---       #134
      010018CCH   LINE      CODE     ---       #135
LX51 LINKER/LOCATER V4.66.62.0                                                        11/16/2016  21:07:52  PAGE 27


      010018E1H   LINE      CODE     ---       #136
      010018E1H   LINE      CODE     ---       #137
      010018EBH   LINE      CODE     ---       #138
      010018EBH   LINE      CODE     ---       #139
      ---         BLOCKEND  ---      ---       LVL=0

      01001E60H   BLOCK     CODE     ---       LVL=0
      00000007H   SYMBOL    DATA     BYTE      address
      01001E60H   LINE      CODE     ---       #140
      01001E60H   LINE      CODE     ---       #141
      ---         BLOCKEND  ---      ---       LVL=0

      010008B4H   BLOCK     CODE     ---       LVL=0
      02000349H   SYMBOL    XDATA    ---       data_ptr
      0200034CH   SYMBOL    XDATA    WORD      dataSize
      0200034EH   SYMBOL    XDATA    BYTE      bank
      0200034FH   SYMBOL    XDATA    BYTE      address
      02000350H   SYMBOL    XDATA    BYTE      verify
      02000351H   SYMBOL    XDATA    BYTE      useProgMem
      010008C2H   BLOCK     CODE     NEAR LAB  LVL=1
      02000352H   SYMBOL    XDATA    BYTE      chunkSize_wmb
      02000353H   SYMBOL    XDATA    ---       verifyBuffer_wmb
      02000356H   SYMBOL    XDATA    ---       progBuffer_wmb
      02000359H   SYMBOL    XDATA    WORD      i_wmb
      00000007H   SYMBOL    DATA     BYTE      j_wmb
      ---         BLOCKEND  ---      ---       LVL=1
      010008B4H   LINE      CODE     ---       #145
      010008C2H   LINE      CODE     ---       #149
      010008C8H   LINE      CODE     ---       #152
      010008D2H   LINE      CODE     ---       #153
      010008DAH   LINE      CODE     ---       #154
      010008EDH   LINE      CODE     ---       #155
      01000902H   LINE      CODE     ---       #156
      0100091BH   LINE      CODE     ---       #158
      0100091EH   LINE      CODE     ---       #161
      01000934H   LINE      CODE     ---       #164
      01000948H   LINE      CODE     ---       #166
      0100094EH   LINE      CODE     ---       #168
      0100097AH   LINE      CODE     ---       #169
      0100097AH   LINE      CODE     ---       #171
      01000987H   LINE      CODE     ---       #172
      01000987H   LINE      CODE     ---       #174
      01000996H   LINE      CODE     ---       #177
      010009A7H   LINE      CODE     ---       #178
      010009A7H   LINE      CODE     ---       #179
      010009AAH   LINE      CODE     ---       #180
      010009B6H   LINE      CODE     ---       #181
      010009D2H   LINE      CODE     ---       #182
      010009D8H   LINE      CODE     ---       #183
      010009E7H   LINE      CODE     ---       #184
      010009EAH   LINE      CODE     ---       #185
      010009EAH   LINE      CODE     ---       #186
      010009EAH   LINE      CODE     ---       #189
      010009F9H   LINE      CODE     ---       #192
      010009FFH   LINE      CODE     ---       #195
      01000A14H   LINE      CODE     ---       #196
      01000A20H   LINE      CODE     ---       #197
      01000A20H   LINE      CODE     ---       #198
      01000A23H   LINE      CODE     ---       #199
      01000A23H   LINE      CODE     ---       #200
      01000A26H   LINE      CODE     ---       #201
      01000A32H   LINE      CODE     ---       #202
      01000A41H   LINE      CODE     ---       #203
      01000A43H   LINE      CODE     ---       #204
      ---         BLOCKEND  ---      ---       LVL=0
LX51 LINKER/LOCATER V4.66.62.0                                                        11/16/2016  21:07:52  PAGE 28



      01000A58H   BLOCK     CODE     ---       LVL=0
      02000339H   SYMBOL    XDATA    ---       data_ptr
      0200033CH   SYMBOL    XDATA    WORD      dataSize
      0200033EH   SYMBOL    XDATA    BYTE      useProgMem
      01000A66H   BLOCK     CODE     NEAR LAB  LVL=1
      0200033FH   SYMBOL    XDATA    ---       progBuffer_wdcs
      02000342H   SYMBOL    XDATA    BYTE      success_wdcs
      02000343H   SYMBOL    XDATA    BYTE      special_wdcs
      02000344H   SYMBOL    XDATA    WORD      i_wdcs
      00000006H   SYMBOL    DATA     WORD      j_wdcs
      02000346H   SYMBOL    XDATA    BYTE      bank_wdcs
      02000347H   SYMBOL    XDATA    BYTE      offset_wdcs
      02000348H   SYMBOL    XDATA    BYTE      length_wdcs
      ---         BLOCKEND  ---      ---       LVL=1
      01000A58H   LINE      CODE     ---       #209
      01000A66H   LINE      CODE     ---       #210
      01000A6CH   LINE      CODE     ---       #214
      01000A72H   LINE      CODE     ---       #215
      01000A7CH   LINE      CODE     ---       #216
      01000A7CH   LINE      CODE     ---       #221
      01000A98H   LINE      CODE     ---       #222
      01000AA2H   LINE      CODE     ---       #223
      01000AABH   LINE      CODE     ---       #224
      01000AB4H   LINE      CODE     ---       #225
      01000ABAH   LINE      CODE     ---       #226
      01000ABCH   LINE      CODE     ---       #227
      01000AC6H   LINE      CODE     ---       #228
      01000AD0H   LINE      CODE     ---       #229
      01000ADAH   LINE      CODE     ---       #230
      01000ADAH   LINE      CODE     ---       #233
      01000AE7H   LINE      CODE     ---       #235
      01000AEAH   LINE      CODE     ---       #236
      01000B02H   LINE      CODE     ---       #237
      01000B36H   LINE      CODE     ---       #238
      01000B36H   LINE      CODE     ---       #239
      01000B43H   LINE      CODE     ---       #240
      01000B43H   LINE      CODE     ---       #241
      01000B6FH   LINE      CODE     ---       #242
      01000B7DH   LINE      CODE     ---       #243
      01000B7FH   LINE      CODE     ---       #249
      01000B88H   LINE      CODE     ---       #250
      01000B95H   LINE      CODE     ---       #251
      01000B97H   LINE      CODE     ---       #252
      01000BA1H   LINE      CODE     ---       #253
      01000BA1H   LINE      CODE     ---       #257
      01000BA8H   LINE      CODE     ---       #263
      01000BB1H   LINE      CODE     ---       #265
      01000BB7H   LINE      CODE     ---       #266
      01000BB9H   LINE      CODE     ---       #268
      01000BBEH   LINE      CODE     ---       #269
      01000BBEH   LINE      CODE     ---       #270
      01000BBEH   LINE      CODE     ---       #272
      01000BC7H   LINE      CODE     ---       #273
      01000BD4H   LINE      CODE     ---       #274
      01000BD7H   LINE      CODE     ---       #275
      01000BD7H   LINE      CODE     ---       #276
      01000BD7H   LINE      CODE     ---       #277
      01000BE4H   LINE      CODE     ---       #278
      01000BE6H   LINE      CODE     ---       #279
      ---         BLOCKEND  ---      ---       LVL=0

      01001010H   BLOCK     CODE     ---       LVL=0
      02000339H   SYMBOL    XDATA    ---       data_ptr
      0200033CH   SYMBOL    XDATA    WORD      dataSize
LX51 LINKER/LOCATER V4.66.62.0                                                        11/16/2016  21:07:52  PAGE 29


      0200033EH   SYMBOL    XDATA    BYTE      bank
      0200033FH   SYMBOL    XDATA    BYTE      address
      0100101EH   BLOCK     CODE     NEAR LAB  LVL=1
      02000340H   SYMBOL    XDATA    BYTE      chunkSize_rmb
      02000341H   SYMBOL    XDATA    WORD      i_rmb
      ---         BLOCKEND  ---      ---       LVL=1
      01001010H   LINE      CODE     ---       #283
      0100101EH   LINE      CODE     ---       #286
      0100101FH   LINE      CODE     ---       #287
      01001022H   LINE      CODE     ---       #288
      0100103BH   LINE      CODE     ---       #290
      0100103EH   LINE      CODE     ---       #293
      01001052H   LINE      CODE     ---       #296
      01001064H   LINE      CODE     ---       #299
      0100107FH   LINE      CODE     ---       #302
      0100108CH   LINE      CODE     ---       #305
      01001092H   LINE      CODE     ---       #308
      010010A4H   LINE      CODE     ---       #309
      010010B0H   LINE      CODE     ---       #310
      010010B3H   LINE      CODE     ---       #311
      010010B6H   LINE      CODE     ---       #312
      010010B6H   LINE      CODE     ---       #313
      010010B9H   LINE      CODE     ---       #314
      ---         BLOCKEND  ---      ---       LVL=0

      01001DE9H   BLOCK     CODE     ---       LVL=0
      00000001H   SYMBOL    DATA     ---       data_ptr
      00000004H   SYMBOL    DATA     WORD      dataSize
      01001DE9H   LINE      CODE     ---       #317
      01001DE9H   LINE      CODE     ---       #318
      01001DF2H   LINE      CODE     ---       #319
      ---         BLOCKEND  ---      ---       LVL=0

      010019AFH   BLOCK     CODE     ---       LVL=0
      00000001H   SYMBOL    DATA     ---       data_ptr
      00000004H   SYMBOL    DATA     WORD      dataSize
      0200033EH   SYMBOL    XDATA    BYTE      bank
      0200033FH   SYMBOL    XDATA    BYTE      address
      02000340H   SYMBOL    XDATA    BYTE      verify
      010019AFH   LINE      CODE     ---       #320
      010019AFH   LINE      CODE     ---       #321
      010019CEH   LINE      CODE     ---       #322
      ---         BLOCKEND  ---      ---       LVL=0

      01001D1FH   BLOCK     CODE     ---       LVL=0
      01001D1FH   LINE      CODE     ---       #323
      01001D1FH   LINE      CODE     ---       #324
      ---         BLOCKEND  ---      ---       LVL=0

      01001A5DH   BLOCK     CODE     ---       LVL=0
      00000007H   SYMBOL    DATA     BYTE      num
      00000006H   SYMBOL    DATA     BYTE      address
      01001A5DH   LINE      CODE     ---       #326
      01001A5FH   LINE      CODE     ---       #327
      01001A65H   LINE      CODE     ---       #328
      01001A76H   LINE      CODE     ---       #329
      ---         BLOCKEND  ---      ---       LVL=0

      01001D86H   BLOCK     CODE     ---       LVL=0
      00000007H   SYMBOL    DATA     BYTE      enabled
      01001D86H   LINE      CODE     ---       #330
      01001D86H   LINE      CODE     ---       #331
      ---         BLOCKEND  ---      ---       LVL=0

      01001D2BH   BLOCK     CODE     ---       LVL=0
LX51 LINKER/LOCATER V4.66.62.0                                                        11/16/2016  21:07:52  PAGE 30


      01001D2BH   LINE      CODE     ---       #333
      01001D2BH   LINE      CODE     ---       #334
      ---         BLOCKEND  ---      ---       LVL=0

      01001E69H   BLOCK     CODE     ---       LVL=0
      00000007H   SYMBOL    DATA     BYTE      enabled
      01001E69H   LINE      CODE     ---       #336
      01001E69H   LINE      CODE     ---       #337
      ---         BLOCKEND  ---      ---       LVL=0

      01001E72H   BLOCK     CODE     ---       LVL=0
      00000007H   SYMBOL    DATA     BYTE      rate
      01001E72H   LINE      CODE     ---       #339
      01001E72H   LINE      CODE     ---       #340
      ---         BLOCKEND  ---      ---       LVL=0

      01001C88H   BLOCK     CODE     ---       LVL=0
      00000007H   SYMBOL    DATA     BYTE      sync
      01001C88H   LINE      CODE     ---       #342
      01001C88H   LINE      CODE     ---       #343
      ---         BLOCKEND  ---      ---       LVL=0

      01001C96H   BLOCK     CODE     ---       LVL=0
      00000007H   SYMBOL    DATA     BYTE      mode
      01001C96H   LINE      CODE     ---       #345
      01001C96H   LINE      CODE     ---       #346
      ---         BLOCKEND  ---      ---       LVL=0

      01001CA4H   BLOCK     CODE     ---       LVL=0
      01001CA4H   LINE      CODE     ---       #350
      01001CA4H   LINE      CODE     ---       #351
      01001CACH   LINE      CODE     ---       #352
      01001CB1H   LINE      CODE     ---       #353
      ---         BLOCKEND  ---      ---       LVL=0

      01001E7BH   BLOCK     CODE     ---       LVL=0
      00000007H   SYMBOL    DATA     BYTE      config
      01001E7BH   LINE      CODE     ---       #354
      01001E7BH   LINE      CODE     ---       #355
      ---         BLOCKEND  ---      ---       LVL=0

      01001CB2H   BLOCK     CODE     ---       LVL=0
      01001CB2H   LINE      CODE     ---       #360
      01001CB2H   LINE      CODE     ---       #361
      01001CBAH   LINE      CODE     ---       #362
      01001CBFH   LINE      CODE     ---       #363
      ---         BLOCKEND  ---      ---       LVL=0

      01001E84H   BLOCK     CODE     ---       LVL=0
      00000007H   SYMBOL    DATA     BYTE      config
      01001E84H   LINE      CODE     ---       #364
      01001E84H   LINE      CODE     ---       #365
      ---         BLOCKEND  ---      ---       LVL=0

      01001B6AH   BLOCK     CODE     ---       LVL=0
      01001B6AH   LINE      CODE     ---       #367
      01001B6AH   LINE      CODE     ---       #368
      01001B75H   LINE      CODE     ---       #369
      01001B7AH   LINE      CODE     ---       #370
      ---         BLOCKEND  ---      ---       LVL=0

      01001DF3H   BLOCK     CODE     ---       LVL=0
      00000007H   SYMBOL    DATA     BYTE      enabled
      01001DF3H   LINE      CODE     ---       #371
      01001DF3H   LINE      CODE     ---       #372
LX51 LINKER/LOCATER V4.66.62.0                                                        11/16/2016  21:07:52  PAGE 31


      ---         BLOCKEND  ---      ---       LVL=0

      01001BAEH   BLOCK     CODE     ---       LVL=0
      01001BAEH   LINE      CODE     ---       #374
      01001BAEH   LINE      CODE     ---       #375
      01001BB8H   LINE      CODE     ---       #376
      01001BBDH   LINE      CODE     ---       #377
      ---         BLOCKEND  ---      ---       LVL=0

      01001DFDH   BLOCK     CODE     ---       LVL=0
      00000007H   SYMBOL    DATA     CHAR      offset
      01001DFDH   LINE      CODE     ---       #378
      01001DFDH   LINE      CODE     ---       #379
      ---         BLOCKEND  ---      ---       LVL=0

      01001BBEH   BLOCK     CODE     ---       LVL=0
      01001BBEH   LINE      CODE     ---       #384
      01001BBEH   LINE      CODE     ---       #385
      01001BC8H   LINE      CODE     ---       #386
      01001BCDH   LINE      CODE     ---       #387
      ---         BLOCKEND  ---      ---       LVL=0

      01001E07H   BLOCK     CODE     ---       LVL=0
      00000007H   SYMBOL    DATA     CHAR      offset
      01001E07H   LINE      CODE     ---       #388
      01001E07H   LINE      CODE     ---       #389
      ---         BLOCKEND  ---      ---       LVL=0

      01001BCEH   BLOCK     CODE     ---       LVL=0
      01001BCEH   LINE      CODE     ---       #394
      01001BCEH   LINE      CODE     ---       #395
      01001BD8H   LINE      CODE     ---       #396
      01001BDDH   LINE      CODE     ---       #397
      ---         BLOCKEND  ---      ---       LVL=0

      01001E11H   BLOCK     CODE     ---       LVL=0
      00000007H   SYMBOL    DATA     CHAR      offset
      01001E11H   LINE      CODE     ---       #398
      01001E11H   LINE      CODE     ---       #399
      ---         BLOCKEND  ---      ---       LVL=0

      01001CC0H   BLOCK     CODE     ---       LVL=0
      01001CC0H   LINE      CODE     ---       #402
      01001CC0H   LINE      CODE     ---       #403
      01001CC8H   LINE      CODE     ---       #404
      01001CCDH   LINE      CODE     ---       #405
      ---         BLOCKEND  ---      ---       LVL=0

      01001E8DH   BLOCK     CODE     ---       LVL=0
      00000007H   SYMBOL    DATA     BYTE      threshold
      01001E8DH   LINE      CODE     ---       #406
      01001E8DH   LINE      CODE     ---       #407
      ---         BLOCKEND  ---      ---       LVL=0

      01001CCEH   BLOCK     CODE     ---       LVL=0
      01001CCEH   LINE      CODE     ---       #409
      01001CCEH   LINE      CODE     ---       #410
      01001CD6H   LINE      CODE     ---       #411
      01001CDBH   LINE      CODE     ---       #412
      ---         BLOCKEND  ---      ---       LVL=0

      01001E96H   BLOCK     CODE     ---       LVL=0
      00000007H   SYMBOL    DATA     BYTE      threshold
      01001E96H   LINE      CODE     ---       #414
      01001E96H   LINE      CODE     ---       #415
LX51 LINKER/LOCATER V4.66.62.0                                                        11/16/2016  21:07:52  PAGE 32


      ---         BLOCKEND  ---      ---       LVL=0

      01001CDCH   BLOCK     CODE     ---       LVL=0
      01001CDCH   LINE      CODE     ---       #417
      01001CDCH   LINE      CODE     ---       #418
      01001CE4H   LINE      CODE     ---       #419
      01001CE9H   LINE      CODE     ---       #420
      ---         BLOCKEND  ---      ---       LVL=0

      01001E9FH   BLOCK     CODE     ---       LVL=0
      00000007H   SYMBOL    DATA     BYTE      duration
      01001E9FH   LINE      CODE     ---       #422
      01001E9FH   LINE      CODE     ---       #423
      ---         BLOCKEND  ---      ---       LVL=0

      01001AE9H   BLOCK     CODE     ---       LVL=0
      01001AE9H   LINE      CODE     ---       #426
      01001AE9H   LINE      CODE     ---       #427
      01001AF6H   LINE      CODE     ---       #428
      01001AFBH   LINE      CODE     ---       #429
      ---         BLOCKEND  ---      ---       LVL=0

      01001EA8H   BLOCK     CODE     ---       LVL=0
      00000007H   SYMBOL    DATA     BYTE      duration
      01001EA8H   LINE      CODE     ---       #431
      01001EA8H   LINE      CODE     ---       #432
      ---         BLOCKEND  ---      ---       LVL=0

      01001B22H   BLOCK     CODE     ---       LVL=0
      01001B22H   LINE      CODE     ---       #434
      01001B22H   LINE      CODE     ---       #435
      01001B2EH   LINE      CODE     ---       #436
      01001B33H   LINE      CODE     ---       #437
      ---         BLOCKEND  ---      ---       LVL=0

      01001D91H   BLOCK     CODE     ---       LVL=0
      00000007H   SYMBOL    DATA     BYTE      enabled
      01001D91H   LINE      CODE     ---       #439
      01001D91H   LINE      CODE     ---       #440
      ---         BLOCKEND  ---      ---       LVL=0

      01001D37H   BLOCK     CODE     ---       LVL=0
      01001D37H   LINE      CODE     ---       #442
      01001D37H   LINE      CODE     ---       #443
      ---         BLOCKEND  ---      ---       LVL=0

      01000435H   BLOCK     CODE     ---       LVL=0
      01000435H   BLOCK     CODE     NEAR LAB  LVL=1
      020002A1H   SYMBOL    XDATA    BYTE      xgOffsetTC
      020002A2H   SYMBOL    XDATA    BYTE      ygOffsetTC
      020002A3H   SYMBOL    XDATA    BYTE      zgOffsetTC
      020002A4H   SYMBOL    XDATA    ---       dmpUpdate
      020002B4H   SYMBOL    XDATA    BYTE      j
      020002B5H   SYMBOL    XDATA    WORD      pos
      020002B7H   SYMBOL    XDATA    WORD      fifoCount
      020002B9H   SYMBOL    XDATA    ---       fifoBuffer
      ---         BLOCKEND  ---      ---       LVL=1
      01000435H   LINE      CODE     ---       #447
      01000435H   LINE      CODE     ---       #450
      0100043CH   LINE      CODE     ---       #455
      0100043FH   LINE      CODE     ---       #456
      01000446H   LINE      CODE     ---       #466
      0100044BH   LINE      CODE     ---       #469
      01000454H   LINE      CODE     ---       #471
      01000459H   LINE      CODE     ---       #476
LX51 LINKER/LOCATER V4.66.62.0                                                        11/16/2016  21:07:52  PAGE 33


      01000460H   LINE      CODE     ---       #486
      01000468H   LINE      CODE     ---       #487
      01000470H   LINE      CODE     ---       #488
      01000478H   LINE      CODE     ---       #498
      0100047FH   LINE      CODE     ---       #500
      01000484H   LINE      CODE     ---       #502
      0100048BH   LINE      CODE     ---       #504
      0100048EH   LINE      CODE     ---       #505
      01000495H   LINE      CODE     ---       #512
      010004B2H   LINE      CODE     ---       #519
      010004C5H   LINE      CODE     ---       #523
      010004CAH   LINE      CODE     ---       #526
      010004CFH   LINE      CODE     ---       #529
      010004D4H   LINE      CODE     ---       #532
      010004D9H   LINE      CODE     ---       #535
      010004DEH   LINE      CODE     ---       #538
      010004E3H   LINE      CODE     ---       #541
      010004E8H   LINE      CODE     ---       #542
      010004EDH   LINE      CODE     ---       #545
      010004F2H   LINE      CODE     ---       #548
      010004FAH   LINE      CODE     ---       #549
      01000502H   LINE      CODE     ---       #550
      0100050AH   LINE      CODE     ---       #559
      0100051EH   LINE      CODE     ---       #562
      01000521H   LINE      CODE     ---       #565
      01000535H   LINE      CODE     ---       #567
      01000538H   LINE      CODE     ---       #570
      0100053BH   LINE      CODE     ---       #573
      0100053EH   LINE      CODE     ---       #578
      01000548H   LINE      CODE     ---       #581
      0100054DH   LINE      CODE     ---       #584
      01000552H   LINE      CODE     ---       #587
      01000557H   LINE      CODE     ---       #590
      0100055CH   LINE      CODE     ---       #593
      0100055FH   LINE      CODE     ---       #596
      01000564H   LINE      CODE     ---       #599
      01000569H   LINE      CODE     ---       #602
      0100056CH   LINE      CODE     ---       #605
      01000580H   LINE      CODE     ---       #606
      01000583H   LINE      CODE     ---       #609
      01000597H   LINE      CODE     ---       #610
      0100059AH   LINE      CODE     ---       #613
      010005AEH   LINE      CODE     ---       #614
      010005B1H   LINE      CODE     ---       #617
      010005BCH   LINE      CODE     ---       #622
      010005BCH   LINE      CODE     ---       #630
      010005CEH   LINE      CODE     ---       #631
      010005EEH   LINE      CODE     ---       #634
      01000601H   LINE      CODE     ---       #640
      01000601H   LINE      CODE     ---       #648
      01000613H   LINE      CODE     ---       #649
      01000616H   LINE      CODE     ---       #654
      0100061BH   LINE      CODE     ---       #657
      01000624H   LINE      CODE     ---       #663
      01000627H   LINE      CODE     ---       #664
      0100062AH   LINE      CODE     ---       #665
      0100062CH   LINE      CODE     ---       #667
      0100062FH   LINE      CODE     ---       #668
      0100062FH   LINE      CODE     ---       #669
      0100062FH   LINE      CODE     ---       #671
      01000632H   LINE      CODE     ---       #672
      01000632H   LINE      CODE     ---       #673
      01000634H   LINE      CODE     ---       #674
      ---         BLOCKEND  ---      ---       LVL=0

LX51 LINKER/LOCATER V4.66.62.0                                                        11/16/2016  21:07:52  PAGE 34


      0100149AH   BLOCK     CODE     ---       LVL=0
      020002A1H   SYMBOL    XDATA    ---       data_ptr
      020002A4H   SYMBOL    XDATA    ---       packet
      0100149AH   LINE      CODE     ---       #675
      010014A0H   LINE      CODE     ---       #677
      010014B5H   LINE      CODE     ---       #678
      010014CCH   LINE      CODE     ---       #679
      010014DEH   LINE      CODE     ---       #680
      010014F0H   LINE      CODE     ---       #681
      01001509H   LINE      CODE     ---       #682
      0100150BH   LINE      CODE     ---       #683
      ---         BLOCKEND  ---      ---       LVL=0

      01001BDEH   BLOCK     CODE     ---       LVL=0
      01001BDEH   LINE      CODE     ---       #25
      01001BE0H   LINE      CODE     ---       #27
      01001BE0H   LINE      CODE     ---       #28
      01001BE0H   LINE      CODE     ---       #29
      01001BE8H   LINE      CODE     ---       #30
      01001BE8H   LINE      CODE     ---       #31
      01001BEBH   LINE      CODE     ---       #32
      01001BEBH   LINE      CODE     ---       #33
      ---         BLOCKEND  ---      ---       LVL=0

      01001E1BH   BLOCK     CODE     ---       LVL=0
      01001E1BH   LINE      CODE     ---       #35
      01001E1BH   LINE      CODE     ---       #36
      01001E1BH   LINE      CODE     ---       #37
      01001E1BH   LINE      CODE     ---       #38
      01001E1BH   LINE      CODE     ---       #39
      01001E1EH   LINE      CODE     ---       #40
      01001E20H   LINE      CODE     ---       #41
      01001E22H   LINE      CODE     ---       #42
      01001E24H   LINE      CODE     ---       #43
      ---         BLOCKEND  ---      ---       LVL=0

      01001E25H   BLOCK     CODE     ---       LVL=0
      01001E25H   LINE      CODE     ---       #45
      01001E25H   LINE      CODE     ---       #46
      01001E25H   LINE      CODE     ---       #47
      01001E25H   LINE      CODE     ---       #48
      01001E25H   LINE      CODE     ---       #49
      01001E28H   LINE      CODE     ---       #50
      01001E2AH   LINE      CODE     ---       #51
      01001E2CH   LINE      CODE     ---       #52
      01001E2EH   LINE      CODE     ---       #53
      ---         BLOCKEND  ---      ---       LVL=0

      01001E2FH   BLOCK     CODE     ---       LVL=0
      00000007H   SYMBOL    DATA     BYTE      value
      01001E2FH   LINE      CODE     ---       #32
      01001E2FH   LINE      CODE     ---       #33
      01001E2FH   LINE      CODE     ---       #34
      01001E31H   LINE      CODE     ---       #36
      01001E36H   LINE      CODE     ---       #38
      01001E38H   LINE      CODE     ---       #39
      ---         BLOCKEND  ---      ---       LVL=0

      01001AFCH   BLOCK     CODE     ---       LVL=0
      00000007H   SYMBOL    DATA     BYTE      reg
      00000006H   SYMBOL    DATA     BYTE      value
      01001AFEH   BLOCK     CODE     NEAR LAB  LVL=1
      00000005H   SYMBOL    DATA     BYTE      status
      ---         BLOCKEND  ---      ---       LVL=1
      01001AFCH   LINE      CODE     ---       #41
LX51 LINKER/LOCATER V4.66.62.0                                                        11/16/2016  21:07:52  PAGE 35


      01001AFEH   LINE      CODE     ---       #42
      01001AFEH   LINE      CODE     ---       #45
      01001B00H   LINE      CODE     ---       #46
      01001B05H   LINE      CODE     ---       #47
      01001B0AH   LINE      CODE     ---       #48
      01001B0CH   LINE      CODE     ---       #50
      01001B0EH   LINE      CODE     ---       #51
      ---         BLOCKEND  ---      ---       LVL=0

      01001D06H   BLOCK     CODE     ---       LVL=0
      00000007H   SYMBOL    DATA     BYTE      reg
      01001D06H   BLOCK     CODE     NEAR LAB  LVL=1
      00000007H   SYMBOL    DATA     BYTE      reg_val
      ---         BLOCKEND  ---      ---       LVL=1
      01001D06H   LINE      CODE     ---       #53
      01001D06H   LINE      CODE     ---       #54
      01001D06H   LINE      CODE     ---       #57
      01001D08H   LINE      CODE     ---       #58
      01001D0BH   LINE      CODE     ---       #59
      01001D10H   LINE      CODE     ---       #60
      01001D12H   LINE      CODE     ---       #62
      01001D12H   LINE      CODE     ---       #63
      ---         BLOCKEND  ---      ---       LVL=0

      01001918H   BLOCK     CODE     ---       LVL=0
      00000007H   SYMBOL    DATA     BYTE      reg
      00000039H   SYMBOL    DATA     ---       pBuf
      0000003CH   SYMBOL    DATA     BYTE      bytes
      0100191EH   BLOCK     CODE     NEAR LAB  LVL=1
      00000006H   SYMBOL    DATA     BYTE      status
      00000005H   SYMBOL    DATA     BYTE      byte_ctr
      ---         BLOCKEND  ---      ---       LVL=1
      01001918H   LINE      CODE     ---       #65
      0100191EH   LINE      CODE     ---       #66
      0100191EH   LINE      CODE     ---       #69
      0100191EH   LINE      CODE     ---       #70
      0100191EH   LINE      CODE     ---       #72
      01001927H   LINE      CODE     ---       #73
      0100193EH   LINE      CODE     ---       #75
      01001940H   LINE      CODE     ---       #77
      01001942H   LINE      CODE     ---       #78
      ---         BLOCKEND  ---      ---       LVL=0

      010019CFH   BLOCK     CODE     ---       LVL=0
      00000007H   SYMBOL    DATA     BYTE      reg
      0000002AH   SYMBOL    DATA     ---       pBuf
      0000002DH   SYMBOL    DATA     BYTE      bytes
      010019D5H   BLOCK     CODE     NEAR LAB  LVL=1
      00000006H   SYMBOL    DATA     BYTE      status
      00000005H   SYMBOL    DATA     BYTE      byte_ctr
      ---         BLOCKEND  ---      ---       LVL=1
      010019CFH   LINE      CODE     ---       #80
      010019D5H   LINE      CODE     ---       #81
      010019D5H   LINE      CODE     ---       #84
      010019D5H   LINE      CODE     ---       #85
      010019D5H   LINE      CODE     ---       #86
      010019DEH   LINE      CODE     ---       #87
      010019E9H   LINE      CODE     ---       #88
      010019EBH   LINE      CODE     ---       #89
      010019EDH   LINE      CODE     ---       #90
      ---         BLOCKEND  ---      ---       LVL=0

      01001B7BH   BLOCK     CODE     ---       LVL=0
      01001B7BH   LINE      CODE     ---       #93
      01001B7BH   LINE      CODE     ---       #94
LX51 LINKER/LOCATER V4.66.62.0                                                        11/16/2016  21:07:52  PAGE 36


      01001B7BH   LINE      CODE     ---       #95
      01001B7EH   LINE      CODE     ---       #96
      01001B80H   LINE      CODE     ---       #97
      01001B82H   LINE      CODE     ---       #98
      01001B89H   LINE      CODE     ---       #99
      01001B8BH   LINE      CODE     ---       #100
      ---         BLOCKEND  ---      ---       LVL=0

      010018ECH   BLOCK     CODE     ---       LVL=0
      00000027H   SYMBOL    DATA     INT       payloadLength
      010018ECH   LINE      CODE     ---       #102
      010018F0H   LINE      CODE     ---       #103
      010018F0H   LINE      CODE     ---       #104
      010018F2H   LINE      CODE     ---       #105
      010018F9H   LINE      CODE     ---       #106
      01001901H   LINE      CODE     ---       #107
      0100190FH   LINE      CODE     ---       #109
      01001911H   LINE      CODE     ---       #110
      01001917H   LINE      CODE     ---       #111
      ---         BLOCKEND  ---      ---       LVL=0

      0100132AH   BLOCK     CODE     ---       LVL=0
      0100132AH   LINE      CODE     ---       #114
      01001343H   LINE      CODE     ---       #116
      0100134AH   LINE      CODE     ---       #117
      0100134DH   LINE      CODE     ---       #118
      0100134DH   LINE      CODE     ---       #119
      0100135BH   LINE      CODE     ---       #120
      01001362H   LINE      CODE     ---       #121
      01001364H   LINE      CODE     ---       #122
      0100136EH   LINE      CODE     ---       #123
      01001373H   LINE      CODE     ---       #124
      01001373H   LINE      CODE     ---       #125
      01001375H   LINE      CODE     ---       #126
      0100137BH   LINE      CODE     ---       #127
      0100137DH   LINE      CODE     ---       #128
      0100137DH   LINE      CODE     ---       #129
      0100137DH   LINE      CODE     ---       #130
      01001380H   LINE      CODE     ---       #131
      01001387H   LINE      CODE     ---       #132
      0100138AH   LINE      CODE     ---       #133
      01001391H   LINE      CODE     ---       #134
      01001398H   LINE      CODE     ---       #135
      ---         BLOCKEND  ---      ---       LVL=0

      0100171BH   BLOCK     CODE     ---       LVL=0
      0100171BH   LINE      CODE     ---       #138
      0100171BH   LINE      CODE     ---       #139
      0100171BH   LINE      CODE     ---       #140
      0100171DH   LINE      CODE     ---       #141
      0100171FH   LINE      CODE     ---       #143
      01001727H   LINE      CODE     ---       #144
      0100172FH   LINE      CODE     ---       #145
      01001736H   LINE      CODE     ---       #147
      0100173DH   LINE      CODE     ---       #148
      01001744H   LINE      CODE     ---       #149
      0100174BH   LINE      CODE     ---       #150
      01001752H   LINE      CODE     ---       #152
      01001759H   LINE      CODE     ---       #153
      ---         BLOCKEND  ---      ---       LVL=0

      01001D43H   BLOCK     CODE     ---       LVL=0
      01001D43H   LINE      CODE     ---       #157
      01001D43H   LINE      CODE     ---       #159
      01001D45H   LINE      CODE     ---       #160
LX51 LINKER/LOCATER V4.66.62.0                                                        11/16/2016  21:07:52  PAGE 37


      01001D47H   LINE      CODE     ---       #161
      01001D49H   LINE      CODE     ---       #162
      01001D4CH   LINE      CODE     ---       #163
      ---         BLOCKEND  ---      ---       LVL=0

      01001A77H   BLOCK     CODE     ---       LVL=0
      01001A77H   LINE      CODE     ---       #8
      01001A77H   LINE      CODE     ---       #9
      01001A79H   LINE      CODE     ---       #10
      01001A7BH   LINE      CODE     ---       #11
      01001A7DH   LINE      CODE     ---       #12
      01001A7FH   LINE      CODE     ---       #13
      01001A82H   LINE      CODE     ---       #14
      01001A85H   LINE      CODE     ---       #16
      01001A88H   LINE      CODE     ---       #17
      01001A8BH   LINE      CODE     ---       #18
      01001A8DH   LINE      CODE     ---       #19
      01001A90H   LINE      CODE     ---       #20
      ---         BLOCKEND  ---      ---       LVL=0

      01001B8CH   BLOCK     CODE     VOID      LVL=0
      ---         BLOCKEND  ---      ---       LVL=0

      01001B95H   BLOCK     CODE     ---       LVL=0
      00000007H   SYMBOL    DATA     BYTE      x
      01001B95H   LINE      CODE     ---       #22
      01001B95H   LINE      CODE     ---       #23
      01001B98H   LINE      CODE     ---       #24
      01001B9AH   LINE      CODE     ---       #25
      01001B9CH   LINE      CODE     ---       #26
      ---         BLOCKEND  ---      ---       LVL=0

      010019EEH   BLOCK     CODE     ---       LVL=0
      0000004DH   SYMBOL    DATA     ---       s
      010019EEH   LINE      CODE     ---       #29
      010019F4H   LINE      CODE     ---       #30
      010019FFH   LINE      CODE     ---       #31
      01001A09H   LINE      CODE     ---       #32
      ---         BLOCKEND  ---      ---       LVL=0

      0100167AH   BLOCK     CODE     ---       LVL=0
      00000007H   SYMBOL    DATA     BYTE      packet_type
      00000023H   SYMBOL    DATA     ---       data_to_send
      00000026H   SYMBOL    DATA     BYTE      data_len
      01001680H   BLOCK     CODE     NEAR LAB  LVL=1
      00000006H   SYMBOL    DATA     WORD      i
      ---         BLOCKEND  ---      ---       LVL=1
      0100167AH   LINE      CODE     ---       #34
      01001680H   LINE      CODE     ---       #36
      01001685H   LINE      CODE     ---       #37
      01001689H   LINE      CODE     ---       #38
      01001698H   LINE      CODE     ---       #39
      010016B8H   LINE      CODE     ---       #40
      010016BFH   LINE      CODE     ---       #41
      010016CAH   LINE      CODE     ---       #42
      ---         BLOCKEND  ---      ---       LVL=0

      01000016H   BLOCK     CODE     ---       LVL=0
      00000006H   SYMBOL    DATA     BYTE      packet_type
      00000044H   SYMBOL    DATA     ---       data_to_send
      00000047H   SYMBOL    DATA     BYTE      data_len
      0100001CH   BLOCK     CODE     NEAR LAB  LVL=1
      00000004H   SYMBOL    DATA     WORD      i
      ---         BLOCKEND  ---      ---       LVL=1
      01000016H   LINE      CODE     ---       #47
LX51 LINKER/LOCATER V4.66.62.0                                                        11/16/2016  21:07:52  PAGE 38


      0100001CH   LINE      CODE     ---       #49
      0100001CH   LINE      CODE     ---       #50
      0100001FH   LINE      CODE     ---       #51
      01000024H   LINE      CODE     ---       #52
      01000037H   LINE      CODE     ---       #53
      0100003DH   LINE      CODE     ---       #54
      01000046H   LINE      CODE     ---       #55
      ---         BLOCKEND  ---      ---       LVL=0

      0100188BH   BLOCK     CODE     ---       LVL=0
      00000006H   SYMBOL    DATA     BYTE      packet_type
      00000049H   SYMBOL    DATA     ---       data_to_send
      0000004CH   SYMBOL    DATA     BYTE      data_len
      01001891H   BLOCK     CODE     NEAR LAB  LVL=1
      00000004H   SYMBOL    DATA     WORD      i
      ---         BLOCKEND  ---      ---       LVL=1
      0100188BH   LINE      CODE     ---       #59
      01001891H   LINE      CODE     ---       #61
      01001891H   LINE      CODE     ---       #62
      01001894H   LINE      CODE     ---       #63
      0100189BH   LINE      CODE     ---       #64
      010018A0H   LINE      CODE     ---       #65
      010018ACH   LINE      CODE     ---       #66
      010018B2H   LINE      CODE     ---       #67
      010018BBH   LINE      CODE     ---       #68
      ---         BLOCKEND  ---      ---       LVL=0

      01001E39H   BLOCK     CODE     ---       LVL=0
      01001E39H   LINE      CODE     ---       #50
      01001E39H   LINE      CODE     ---       #51
      01001E3BH   LINE      CODE     ---       #52
      01001E3EH   LINE      CODE     ---       #53
      01001E40H   LINE      CODE     ---       #54
      01001E42H   LINE      CODE     ---       #55
      ---         BLOCKEND  ---      ---       LVL=0

      0100000EH   BLOCK     CODE     ---       LVL=0
      0100000EH   LINE      CODE     ---       #56
      0100000EH   LINE      CODE     ---       #58
      01000011H   LINE      CODE     ---       #59
      ---         BLOCKEND  ---      ---       LVL=0

      01001B34H   BLOCK     CODE     ---       LVL=0
      01001B34H   LINE      CODE     ---       #65
      01001B34H   LINE      CODE     ---       #67
      01001B37H   LINE      CODE     ---       #68
      01001B3AH   LINE      CODE     ---       #69
      01001B3DH   LINE      CODE     ---       #70
      01001B40H   LINE      CODE     ---       #72
      01001B43H   LINE      CODE     ---       #73
      01001B45H   LINE      CODE     ---       #74
      ---         BLOCKEND  ---      ---       LVL=0

      01001205H   BLOCK     CODE     ---       LVL=0
      01001205H   LINE      CODE     ---       #76
      01001205H   LINE      CODE     ---       #77
      01001208H   LINE      CODE     ---       #78
      0100120BH   LINE      CODE     ---       #79
      01001210H   LINE      CODE     ---       #80
      01001215H   LINE      CODE     ---       #81
      01001221H   LINE      CODE     ---       #82
      01001224H   LINE      CODE     ---       #83
      01001227H   LINE      CODE     ---       #84
      01001233H   LINE      CODE     ---       #85
      0100123BH   LINE      CODE     ---       #86
LX51 LINKER/LOCATER V4.66.62.0                                                        11/16/2016  21:07:52  PAGE 39


      01001242H   LINE      CODE     ---       #87
      01001244H   LINE      CODE     ---       #88
      0100124EH   LINE      CODE     ---       #89
      0100124EH   LINE      CODE     ---       #90
      0100125AH   LINE      CODE     ---       #91
      0100126FH   LINE      CODE     ---       #92
      01001284H   LINE      CODE     ---       #94
      ---         BLOCKEND  ---      ---       LVL=0

      01000F1CH   BLOCK     CODE     ---       LVL=0
      01000F1CH   LINE      CODE     ---       #95
      01000F1CH   LINE      CODE     ---       #96
      01000F23H   LINE      CODE     ---       #97
      01000F2FH   LINE      CODE     ---       #98
      01000F37H   LINE      CODE     ---       #99
      01000F3EH   LINE      CODE     ---       #100
      01000F53H   LINE      CODE     ---       #101
      01000F68H   LINE      CODE     ---       #102
      01000F70H   LINE      CODE     ---       #103
      01000F7AH   LINE      CODE     ---       #104
      01000F7FH   LINE      CODE     ---       #105
      01000F8BH   LINE      CODE     ---       #106
      01000F8EH   LINE      CODE     ---       #107
      01000F9AH   LINE      CODE     ---       #108
      01000FA2H   LINE      CODE     ---       #109
      01000FAAH   LINE      CODE     ---       #110
      01000FADH   LINE      CODE     ---       #111
      01000FB4H   LINE      CODE     ---       #112
      01000FBFH   LINE      CODE     ---       #113
      01000FCAH   LINE      CODE     ---       #115
      01000FCCH   LINE      CODE     ---       #116
      01000FD8H   LINE      CODE     ---       #117
      01000FD8H   LINE      CODE     ---       #118
      ---         BLOCKEND  ---      ---       LVL=0

      01000D14H   BLOCK     CODE     ---       LVL=0
      01000D14H   LINE      CODE     ---       #120
      01000D14H   LINE      CODE     ---       #121
      01000D20H   LINE      CODE     ---       #122
      01000D22H   LINE      CODE     ---       #123
      01000D30H   LINE      CODE     ---       #124
      01000D32H   LINE      CODE     ---       #125
      01000D34H   LINE      CODE     ---       #126
      01000D36H   LINE      CODE     ---       #127
      01000D42H   LINE      CODE     ---       #129
      01000D45H   LINE      CODE     ---       #130
      01000D4DH   LINE      CODE     ---       #133
      01000D50H   LINE      CODE     ---       #134
      01000D57H   LINE      CODE     ---       #135
      01000D65H   LINE      CODE     ---       #136
      01000D6CH   LINE      CODE     ---       #137
      01000D74H   LINE      CODE     ---       #139
      01000D87H   LINE      CODE     ---       #142
      01000D8AH   LINE      CODE     ---       #143
      01000D99H   LINE      CODE     ---       #145
      01000DA0H   LINE      CODE     ---       #146
      01000DAFH   LINE      CODE     ---       #148
      01000DBEH   LINE      CODE     ---       #151
      01000DCDH   LINE      CODE     ---       #155
      01000DD7H   LINE      CODE     ---       #156
      01000DD7H   LINE      CODE     ---       #157
      ---         BLOCKEND  ---      ---       LVL=0

      01000BE7H   BLOCK     CODE     ---       LVL=0
      01000BE7H   LINE      CODE     ---       #158
LX51 LINKER/LOCATER V4.66.62.0                                                        11/16/2016  21:07:52  PAGE 40


      01000BE7H   LINE      CODE     ---       #159
      01000BEAH   LINE      CODE     ---       #160
      01000BEAH   LINE      CODE     ---       #161
      01000BEDH   LINE      CODE     ---       #162
      01000BF4H   LINE      CODE     ---       #163
      01000C00H   LINE      CODE     ---       #164
      01000C03H   LINE      CODE     ---       #165
      01000C0FH   LINE      CODE     ---       #166
      01000C12H   LINE      CODE     ---       #167
      01000C15H   LINE      CODE     ---       #168
      01000C18H   LINE      CODE     ---       #169
      01000C18H   LINE      CODE     ---       #170
      01000C1BH   LINE      CODE     ---       #171
      01000C22H   LINE      CODE     ---       #172
      01000C29H   LINE      CODE     ---       #173
      01000C2CH   LINE      CODE     ---       #174
      01000C38H   LINE      CODE     ---       #175
      01000C4BH   LINE      CODE     ---       #176
      01000C59H   LINE      CODE     ---       #178
      01000C60H   LINE      CODE     ---       #179
      01000C63H   LINE      CODE     ---       #180
      01000C6AH   LINE      CODE     ---       #181
      01000C6AH   LINE      CODE     ---       #182
      01000C6DH   LINE      CODE     ---       #184
      01000C75H   LINE      CODE     ---       #185
      01000C7EH   LINE      CODE     ---       #186
      01000C7EH   LINE      CODE     ---       #187
      01000C8AH   LINE      CODE     ---       #188
      01000C8DH   LINE      CODE     ---       #189
      01000C8FH   LINE      CODE     ---       #190
      01000C8FH   LINE      CODE     ---       #191
      01000C92H   LINE      CODE     ---       #192
      01000C99H   LINE      CODE     ---       #193
      01000C9BH   LINE      CODE     ---       #194
      01000C9BH   LINE      CODE     ---       #195
      01000C9BH   LINE      CODE     ---       #196
      01000C9BH   LINE      CODE     ---       #197
      01000C9EH   LINE      CODE     ---       #198
      01000CA0H   LINE      CODE     ---       #199
      01000CA0H   LINE      CODE     ---       #201
      01000CB0H   LINE      CODE     ---       #202
      01000CB7H   LINE      CODE     ---       #203
      01000CC5H   LINE      CODE     ---       #204
      01000CCBH   LINE      CODE     ---       #205
      01000CCBH   LINE      CODE     ---       #206
      01000CCEH   LINE      CODE     ---       #207
      ---         BLOCKEND  ---      ---       LVL=0

      01001A0AH   BLOCK     CODE     ---       LVL=0
      01001A0AH   LINE      CODE     ---       #208
      01001A0AH   LINE      CODE     ---       #209
      01001A0AH   LINE      CODE     ---       #210
      01001A0AH   LINE      CODE     ---       #211
      01001A0AH   LINE      CODE     ---       #212
      01001A0DH   LINE      CODE     ---       #213
      01001A0DH   LINE      CODE     ---       #214
      01001A0DH   LINE      CODE     ---       #215
      01001A0DH   LINE      CODE     ---       #216
      01001A10H   LINE      CODE     ---       #217
      01001A12H   LINE      CODE     ---       #218
      ---         BLOCKEND  ---      ---       LVL=0

      010017DEH   BLOCK     CODE     ---       LVL=0
      010017DEH   LINE      CODE     ---       #221
      010017FBH   LINE      CODE     ---       #222
LX51 LINKER/LOCATER V4.66.62.0                                                        11/16/2016  21:07:52  PAGE 41


      010017FEH   LINE      CODE     ---       #223
      ---         BLOCKEND  ---      ---       LVL=0

      ---         MODULE    ---      ---       HAL_W2_ISR
      00000051H   PUBLIC    DATA     BYTE      w2_status
      00000050H   PUBLIC    DATA     BYTE      data_ready
      00000024H   PUBLIC    DATA     BYTE      ?_i2c_mpu_writeWords?BYTE
      01001624H   PUBLIC    CODE     ---       _i2c_mpu_writeWords
      01001B0FH   PUBLIC    CODE     ---       _i2c_mpu_writeWord
      00000022H   PUBLIC    DATA     BYTE      ?_i2c_mpu_readBits?BYTE
      010015CCH   PUBLIC    CODE     ---       _i2c_mpu_readBits
      0000000FH   PUBLIC    DATA     BYTE      ?_i2c_mpu_readBit?BYTE
      0100196AH   PUBLIC    CODE     ---       _i2c_mpu_readBit
      00000022H   PUBLIC    DATA     BYTE      ?_i2c_mpu_writeBits?BYTE
      0100150CH   PUBLIC    CODE     ---       _i2c_mpu_writeBits
      00000022H   PUBLIC    DATA     BYTE      ?_i2c_mpu_writeBit?BYTE
      010016CDH   PUBLIC    CODE     ---       _i2c_mpu_writeBit
      0000002EH   PUBLIC    DATA     BYTE      ?_i2c_mpu_readBytes?BYTE
      0100156FH   PUBLIC    CODE     ---       _i2c_mpu_readBytes
      01001B58H   PUBLIC    CODE     ---       _i2c_mpu_readByte
      0000002AH   PUBLIC    DATA     BYTE      ?_i2c_mpu_writeBytes?BYTE
      01001819H   PUBLIC    CODE     ---       _i2c_mpu_writeBytes
      01001B9DH   PUBLIC    CODE     ---       _i2c_mpu_writeByte
      01001427H   PUBLIC    CODE     ---       hal_w2_soft_reset
      0000003DH   PUBLIC    DATA     BYTE      ?_hal_w2_read?BYTE
      01001760H   PUBLIC    CODE     ---       _hal_w2_read
      00000016H   PUBLIC    DATA     BYTE      ?_hal_w2_write?BYTE
      01001853H   PUBLIC    CODE     ---       _hal_w2_write
      01001B46H   PUBLIC    CODE     ---       _hal_w2_init_transfer
      01001943H   PUBLIC    CODE     ---       hal_w2_wait_data_ready
      0100198EH   PUBLIC    CODE     ---       _hal_w2_configure_master
      01001DDEH   PUBLIC    CODE     ---       _hal_w2_all_irq_enable
      01001DD3H   PUBLIC    CODE     ---       _hal_w2_enable
      01001DC8H   PUBLIC    CODE     ---       _hal_w2_set_op_mode
      01001CEAH   PUBLIC    CODE     ---       _hal_w2_set_clk_freq
      01001EC9H   PUBLIC    CODE     ---       _hal_w2_set_slave_address
      01001DBDH   PUBLIC    CODE     ---       _hal_w2_irq_adr_match_enable
      01001DB2H   PUBLIC    CODE     ---       _hal_w2_irq_stop_cond_enable
      01001DA7H   PUBLIC    CODE     ---       _hal_w2_alter_clock
      01001D9CH   PUBLIC    CODE     ---       _hal_w2_respond_to_gen_adr
      01001E4DH   PUBLIC    CODE     ---       I2C_IRQ_handler
      01001E43H   PUBLIC    CODE     ---       hal_w2_wait_data_ready_ISR
      00000098H.3 SFRSYM    DATA     BIT       TB80
      000000BEH   SFRSYM    DATA     BYTE      SPISSTAT
      000000C8H   SFRSYM    DATA     BIT       T2I0
      000000C3H   SFRSYM    DATA     BYTE      CCH1
      00000080H   SFRSYM    DATA     BYTE      P0
      000000C8H.1 SFRSYM    DATA     BIT       T2I1
      000000DFH   SFRSYM    DATA     BYTE      CCPDATO
      000000C5H   SFRSYM    DATA     BYTE      CCH2
      00000090H   SFRSYM    DATA     BYTE      P1
      000000C7H   SFRSYM    DATA     BYTE      CCH3
      000000A0H   SFRSYM    DATA     BYTE      P2
      00000098H.5 SFRSYM    DATA     BIT       SM20
      000000B0H   SFRSYM    DATA     BYTE      P3
      000000D0H.6 SFRSYM    DATA     BIT       AC
      000000C2H   SFRSYM    DATA     BYTE      CCL1
      000000C4H   SFRSYM    DATA     BYTE      CCL2
      000000D8H.7 SFRSYM    DATA     BIT       BD
      000000B8H   SFRSYM    DATA     BIT       RFSPI
      000000A8H.7 SFRSYM    DATA     BIT       EA
      000000CCH   SFRSYM    DATA     WORD      T2
      000000C6H   SFRSYM    DATA     BYTE      CCL3
      000000B7H   SFRSYM    DATA     BYTE      SPISRDSZ
      000000C8H.3 SFRSYM    DATA     BIT       T2R0
LX51 LINKER/LOCATER V4.66.62.0                                                        11/16/2016  21:07:52  PAGE 42


      000000C8H.4 SFRSYM    DATA     BIT       T2R1
      000000A8H   SFRSYM    DATA     BYTE      IEN0
      000000B8H   SFRSYM    DATA     BYTE      IEN1
      000000A5H   SFRSYM    DATA     BYTE      WUCON
      00000085H   SFRSYM    DATA     BYTE      DPH1
      000000DBH   SFRSYM    DATA     BYTE      COMPCON
      000000A3H   SFRSYM    DATA     BYTE      CLKCTRL
      00000084H   SFRSYM    DATA     BYTE      DPL1
      000000C8H.5 SFRSYM    DATA     BIT       I2FR
      000000B8H.3 SFRSYM    DATA     BIT       WUPIN
      000000C8H.6 SFRSYM    DATA     BIT       I3FR
      000000FFH   SFRSYM    DATA     BYTE      SPIMDAT
      000000C0H.7 SFRSYM    DATA     BIT       EXF2
      00000098H.4 SFRSYM    DATA     BIT       REN0
      000000C8H.2 SFRSYM    DATA     BIT       T2CM
      000000B8H.1 SFRSYM    DATA     BIT       RF
      000000B8H.5 SFRSYM    DATA     BIT       WUIRQ
      000000E7H   SFRSYM    DATA     BYTE      SPIRDAT
      000000C1H   SFRSYM    DATA     BYTE      CCEN
      000000E2H   SFRSYM    DATA     BYTE      W2CON0
      000000BFH   SFRSYM    DATA     BYTE      SPISDAT
      000000D0H.7 SFRSYM    DATA     BIT       CY
      000000E1H   SFRSYM    DATA     BYTE      W2CON1
      000000FBH   SFRSYM    DATA     BYTE      FDCR
      000000E8H   SFRSYM    DATA     BIT       RFCE
      000000CBH   SFRSYM    DATA     BYTE      CRCH
      00000081H   SFRSYM    DATA     BYTE      SP
      000000D0H.2 SFRSYM    DATA     BIT       OV
      000000CAH   SFRSYM    DATA     BYTE      CRCL
      000000ADH   SFRSYM    DATA     BYTE      CLKLFCTRL
      000000B1H   SFRSYM    DATA     BYTE      RSTREAS
      000000C8H.7 SFRSYM    DATA     BIT       T2PS
      000000F9H   SFRSYM    DATA     BYTE      FPCR
      000000B8H.4 SFRSYM    DATA     BIT       MISC
      000000A1H   SFRSYM    DATA     BYTE      PWMDC0
      000000B4H   SFRSYM    DATA     BYTE      RTC2CMP0
      000000A2H   SFRSYM    DATA     BYTE      PWMDC1
      000000B5H   SFRSYM    DATA     BYTE      RTC2CMP1
      00000080H   SFRSYM    DATA     BIT       P00
      000000BAH   SFRSYM    DATA     BYTE      S0RELH
      00000090H   SFRSYM    DATA     BIT       P10
      00000080H.1 SFRSYM    DATA     BIT       P01
      00000087H   SFRSYM    DATA     BYTE      PCON
      000000A0H   SFRSYM    DATA     BIT       P20
      00000090H.1 SFRSYM    DATA     BIT       P11
      00000080H.2 SFRSYM    DATA     BIT       P02
      000000B0H   SFRSYM    DATA     BIT       P30
      000000A0H.1 SFRSYM    DATA     BIT       P21
      00000090H.2 SFRSYM    DATA     BIT       P12
      00000080H.3 SFRSYM    DATA     BIT       P03
      000000C0H.2 SFRSYM    DATA     BIT       SPIF
      000000F8H.2 SFRSYM    DATA     BIT       RDIS
      000000B0H.1 SFRSYM    DATA     BIT       P31
      000000A0H.2 SFRSYM    DATA     BIT       P22
      00000090H.3 SFRSYM    DATA     BIT       P13
      00000080H.4 SFRSYM    DATA     BIT       P04
      000000AAH   SFRSYM    DATA     BYTE      S0RELL
      000000B0H.2 SFRSYM    DATA     BIT       P32
      000000A0H.3 SFRSYM    DATA     BIT       P23
      00000090H.4 SFRSYM    DATA     BIT       P14
      00000080H.5 SFRSYM    DATA     BIT       P05
      000000D9H   SFRSYM    DATA     BYTE      W2SADR
      00000089H   SFRSYM    DATA     BYTE      TMOD
      00000088H   SFRSYM    DATA     BYTE      TCON
      000000B0H.3 SFRSYM    DATA     BIT       P33
LX51 LINKER/LOCATER V4.66.62.0                                                        11/16/2016  21:07:52  PAGE 43


      000000A0H.4 SFRSYM    DATA     BIT       P24
      00000090H.5 SFRSYM    DATA     BIT       P15
      00000080H.6 SFRSYM    DATA     BIT       P06
      000000B0H.4 SFRSYM    DATA     BIT       P34
      000000A0H.5 SFRSYM    DATA     BIT       P25
      00000090H.6 SFRSYM    DATA     BIT       P16
      00000080H.7 SFRSYM    DATA     BIT       P07
      000000C2H   SFRSYM    DATA     WORD      CC1
      000000B0H.5 SFRSYM    DATA     BIT       P35
      000000A0H.6 SFRSYM    DATA     BIT       P26
      00000090H.7 SFRSYM    DATA     BIT       P17
      000000C4H   SFRSYM    DATA     WORD      CC2
      000000B0H.6 SFRSYM    DATA     BIT       P36
      000000A0H.7 SFRSYM    DATA     BIT       P27
      000000C6H   SFRSYM    DATA     WORD      CC3
      000000B0H.7 SFRSYM    DATA     BIT       P37
      000000E8H.2 SFRSYM    DATA     BIT       RFCKEN
      000000F8H   SFRSYM    DATA     BIT       WPEN
      000000DDH   SFRSYM    DATA     BYTE      CCPDATIA
      000000DEH   SFRSYM    DATA     BYTE      CCPDATIB
      00000088H.1 SFRSYM    DATA     BIT       IE0
      000000F8H.4 SFRSYM    DATA     BIT       RDYN
      00000088H.3 SFRSYM    DATA     BIT       IE1
      000000CFH   SFRSYM    DATA     BYTE      WUOPC0
      000000F0H   SFRSYM    DATA     BYTE      B
      000000E9H   SFRSYM    DATA     BYTE      MD0
      000000CEH   SFRSYM    DATA     BYTE      WUOPC1
      000000A7H   SFRSYM    DATA     BYTE      MEMCON
      000000EAH   SFRSYM    DATA     BYTE      MD1
      000000D7H   SFRSYM    DATA     BYTE      RNGDAT
      000000EBH   SFRSYM    DATA     BYTE      MD2
      000000ECH   SFRSYM    DATA     BYTE      MD3
      000000EDH   SFRSYM    DATA     BYTE      MD4
      000000AFH   SFRSYM    DATA     BYTE      WDSV
      000000EEH   SFRSYM    DATA     BYTE      MD5
      000000E0H   SFRSYM    DATA     BYTE      ACC
      000000DCH   SFRSYM    DATA     BYTE      POFCON
      000000A8H.4 SFRSYM    DATA     BIT       ES0
      000000A8H.1 SFRSYM    DATA     BIT       ET0
      000000A9H   SFRSYM    DATA     BYTE      IP0
      000000A8H.3 SFRSYM    DATA     BIT       ET1
      00000088H.5 SFRSYM    DATA     BIT       TF0
      000000B9H   SFRSYM    DATA     BYTE      IP1
      000000A8H.5 SFRSYM    DATA     BIT       ET2
      00000098H   SFRSYM    DATA     BIT       RI0
      00000088H.7 SFRSYM    DATA     BIT       TF1
      000000C0H   SFRSYM    DATA     BIT       RFSPIF
      000000C0H.6 SFRSYM    DATA     BIT       TF2
      000000FCH   SFRSYM    DATA     BYTE      SPIMCON0
      000000D6H   SFRSYM    DATA     BYTE      RNGCTL
      0000008CH   SFRSYM    DATA     BYTE      TH0
      000000A8H   SFRSYM    DATA     BIT       EX0
      00000098H.1 SFRSYM    DATA     BIT       TI0
      00000088H   SFRSYM    DATA     BIT       IT0
      000000FDH   SFRSYM    DATA     BYTE      SPIMCON1
      0000008DH   SFRSYM    DATA     BYTE      TH1
      000000A8H.2 SFRSYM    DATA     BIT       EX1
      00000088H.2 SFRSYM    DATA     BIT       IT1
      000000CDH   SFRSYM    DATA     BYTE      TH2
      000000AEH   SFRSYM    DATA     BYTE      OPMCON
      000000D0H   SFRSYM    DATA     BIT       P
      00000098H.7 SFRSYM    DATA     BIT       SM0
      0000008AH   SFRSYM    DATA     BYTE      TL0
      00000098H.6 SFRSYM    DATA     BIT       SM1
      000000E4H   SFRSYM    DATA     BYTE      SPIRCON0
LX51 LINKER/LOCATER V4.66.62.0                                                        11/16/2016  21:07:52  PAGE 44


      0000008BH   SFRSYM    DATA     BYTE      TL1
      000000E5H   SFRSYM    DATA     BYTE      SPIRCON1
      000000CCH   SFRSYM    DATA     BYTE      TL2
      000000BCH   SFRSYM    DATA     BYTE      SPISCON0
      000000BDH   SFRSYM    DATA     BYTE      SPISCON1
      000000D0H.3 SFRSYM    DATA     BIT       RS0
      00000088H.4 SFRSYM    DATA     BIT       TR0
      000000D0H.4 SFRSYM    DATA     BIT       RS1
      000000B2H   SFRSYM    DATA     BYTE      PWMCON
      00000088H.6 SFRSYM    DATA     BIT       TR1
      000000CAH   SFRSYM    DATA     WORD      CRC
      000000A6H   SFRSYM    DATA     BYTE      INTEXP
      000000C0H.3 SFRSYM    DATA     BIT       WUPINF
      000000FAH   SFRSYM    DATA     BYTE      FCR
      000000D3H   SFRSYM    DATA     BYTE      ADCCON1
      000000D2H   SFRSYM    DATA     BYTE      ADCCON2
      00000083H   SFRSYM    DATA     BYTE      DPH
      000000D1H   SFRSYM    DATA     BYTE      ADCCON3
      000000C0H.1 SFRSYM    DATA     BIT       RFF
      00000093H   SFRSYM    DATA     BYTE      P0DIR
      00000082H   SFRSYM    DATA     BYTE      DPL
      0000009EH   SFRSYM    DATA     BYTE      P0CON
      00000099H   SFRSYM    DATA     BYTE      S0BUF
      00000094H   SFRSYM    DATA     BYTE      P1DIR
      0000009FH   SFRSYM    DATA     BYTE      P1CON
      00000095H   SFRSYM    DATA     BYTE      P2DIR
      000000B8H.7 SFRSYM    DATA     BIT       EXEN2
      000000DAH   SFRSYM    DATA     BYTE      W2DAT
      00000097H   SFRSYM    DATA     BYTE      P2CON
      00000096H   SFRSYM    DATA     BYTE      P3DIR
      000000A4H   SFRSYM    DATA     BYTE      PWRDWN
      00000098H   SFRSYM    DATA     BYTE      S0CON
      0000008FH   SFRSYM    DATA     BYTE      P3CON
      000000B6H   SFRSYM    DATA     BYTE      RTC2CPT00
      000000D8H   SFRSYM    DATA     BYTE      ADCON
      000000ACH   SFRSYM    DATA     BYTE      RTC2CPT10
      000000ABH   SFRSYM    DATA     BYTE      RTC2CPT01
      000000C8H   SFRSYM    DATA     BYTE      T2CON
      00000092H   SFRSYM    DATA     BYTE      DPS
      000000F8H.5 SFRSYM    DATA     BIT       WEN
      000000F8H   SFRSYM    DATA     BYTE      FSR
      000000D4H   SFRSYM    DATA     BYTE      ADCDATH
      000000C9H   SFRSYM    DATA     BYTE      MPAGE
      000000B8H.2 SFRSYM    DATA     BIT       SPI
      000000F8H.1 SFRSYM    DATA     BIT       RDEND
      000000D5H   SFRSYM    DATA     BYTE      ADCDATL
      000000F8H.3 SFRSYM    DATA     BIT       INFEN
      000000F8H.7 SFRSYM    DATA     BIT       MCDIS
      000000C0H.5 SFRSYM    DATA     BIT       WUF
      000000C0H.4 SFRSYM    DATA     BIT       MISCF
      000000EFH   SFRSYM    DATA     BYTE      ARCON
      000000D0H.5 SFRSYM    DATA     BIT       F0
      000000F8H.6 SFRSYM    DATA     BIT       STP
      000000FEH   SFRSYM    DATA     BYTE      SPIMSTAT
      000000E8H   SFRSYM    DATA     BYTE      RFCON
      000000D0H   SFRSYM    DATA     BYTE      PSW
      00000098H.2 SFRSYM    DATA     BIT       RB80
      000000C0H   SFRSYM    DATA     BYTE      IRCON
      000000E8H.1 SFRSYM    DATA     BIT       RFCSN
      000000E6H   SFRSYM    DATA     BYTE      SPIRSTAT
      000000B3H   SFRSYM    DATA     BYTE      RTC2CON

      01001CF8H   BLOCK     CODE     ---       LVL=0
      ---         BLOCKEND  ---      ---       LVL=0

LX51 LINKER/LOCATER V4.66.62.0                                                        11/16/2016  21:07:52  PAGE 45


      01001E43H   BLOCK     CODE     ---       LVL=0
      01001E43H   LINE      CODE     ---       #39
      01001E43H   LINE      CODE     ---       #40
      01001E43H   LINE      CODE     ---       #41
      01001E46H   LINE      CODE     ---       #42
      01001E4AH   LINE      CODE     ---       #43
      01001E4CH   LINE      CODE     ---       #44
      ---         BLOCKEND  ---      ---       LVL=0

      01001E4DH   BLOCK     CODE     ---       LVL=0
      01001E4DH   LINE      CODE     ---       #45
      01001E4DH   LINE      CODE     ---       #46
      01001E4DH   LINE      CODE     ---       #48
      01001E50H   LINE      CODE     ---       #49
      01001E56H   LINE      CODE     ---       #51
      ---         BLOCKEND  ---      ---       LVL=0

      01001D9CH   BLOCK     CODE     ---       LVL=0
      00000007H   SYMBOL    DATA     BYTE      resp_gen
      01001D9CH   LINE      CODE     ---       #52
      01001D9CH   LINE      CODE     ---       #53
      01001D9CH   LINE      CODE     ---       #54
      01001D9FH   LINE      CODE     ---       #55
      01001D9FH   LINE      CODE     ---       #56
      01001DA2H   LINE      CODE     ---       #57
      01001DA3H   LINE      CODE     ---       #59
      01001DA3H   LINE      CODE     ---       #60
      01001DA6H   LINE      CODE     ---       #61
      01001DA6H   LINE      CODE     ---       #62
      ---         BLOCKEND  ---      ---       LVL=0

      01001DA7H   BLOCK     CODE     ---       LVL=0
      00000007H   SYMBOL    DATA     BYTE      alt_clk
      01001DA7H   LINE      CODE     ---       #64
      01001DA7H   LINE      CODE     ---       #65
      01001DA7H   LINE      CODE     ---       #66
      01001DAAH   LINE      CODE     ---       #67
      01001DAAH   LINE      CODE     ---       #68
      01001DADH   LINE      CODE     ---       #69
      01001DAEH   LINE      CODE     ---       #71
      01001DAEH   LINE      CODE     ---       #72
      01001DB1H   LINE      CODE     ---       #73
      01001DB1H   LINE      CODE     ---       #74
      ---         BLOCKEND  ---      ---       LVL=0

      01001DB2H   BLOCK     CODE     ---       LVL=0
      00000007H   SYMBOL    DATA     BYTE      stop_cond
      01001DB2H   LINE      CODE     ---       #76
      01001DB2H   LINE      CODE     ---       #77
      01001DB2H   LINE      CODE     ---       #78
      01001DB5H   LINE      CODE     ---       #79
      01001DB5H   LINE      CODE     ---       #80
      01001DB8H   LINE      CODE     ---       #81
      01001DB9H   LINE      CODE     ---       #83
      01001DB9H   LINE      CODE     ---       #84
      01001DBCH   LINE      CODE     ---       #85
      01001DBCH   LINE      CODE     ---       #86
      ---         BLOCKEND  ---      ---       LVL=0

      01001DBDH   BLOCK     CODE     ---       LVL=0
      00000007H   SYMBOL    DATA     BYTE      addr_match
      01001DBDH   LINE      CODE     ---       #88
      01001DBDH   LINE      CODE     ---       #89
      01001DBDH   LINE      CODE     ---       #90
      01001DC0H   LINE      CODE     ---       #91
LX51 LINKER/LOCATER V4.66.62.0                                                        11/16/2016  21:07:52  PAGE 46


      01001DC0H   LINE      CODE     ---       #92
      01001DC3H   LINE      CODE     ---       #93
      01001DC4H   LINE      CODE     ---       #95
      01001DC4H   LINE      CODE     ---       #96
      01001DC7H   LINE      CODE     ---       #97
      01001DC7H   LINE      CODE     ---       #98
      ---         BLOCKEND  ---      ---       LVL=0

      01001EC9H   BLOCK     CODE     ---       LVL=0
      00000007H   SYMBOL    DATA     BYTE      address
      01001EC9H   LINE      CODE     ---       #100
      01001EC9H   LINE      CODE     ---       #101
      01001EC9H   LINE      CODE     ---       #102
      01001ECEH   LINE      CODE     ---       #103
      ---         BLOCKEND  ---      ---       LVL=0

      01001CEAH   BLOCK     CODE     ---       LVL=0
      00000007H   SYMBOL    DATA     BYTE      freq
      01001CEAH   LINE      CODE     ---       #107
      01001CEAH   LINE      CODE     ---       #108
      01001CEAH   LINE      CODE     ---       #109
      01001CF7H   LINE      CODE     ---       #110
      ---         BLOCKEND  ---      ---       LVL=0

      01001DC8H   BLOCK     CODE     ---       LVL=0
      00000007H   SYMBOL    DATA     BYTE      mode
      01001DC8H   LINE      CODE     ---       #112
      01001DC8H   LINE      CODE     ---       #113
      01001DC8H   LINE      CODE     ---       #114
      01001DCBH   LINE      CODE     ---       #115
      01001DCBH   LINE      CODE     ---       #116
      01001DCEH   LINE      CODE     ---       #117
      01001DCFH   LINE      CODE     ---       #119
      01001DCFH   LINE      CODE     ---       #120
      01001DD2H   LINE      CODE     ---       #121
      01001DD2H   LINE      CODE     ---       #122
      ---         BLOCKEND  ---      ---       LVL=0

      01001DD3H   BLOCK     CODE     ---       LVL=0
      00000007H   SYMBOL    DATA     BYTE      en
      01001DD3H   LINE      CODE     ---       #124
      01001DD3H   LINE      CODE     ---       #125
      01001DD3H   LINE      CODE     ---       #126
      01001DD6H   LINE      CODE     ---       #127
      01001DD6H   LINE      CODE     ---       #128
      01001DD9H   LINE      CODE     ---       #129
      01001DDAH   LINE      CODE     ---       #131
      01001DDAH   LINE      CODE     ---       #132
      01001DDDH   LINE      CODE     ---       #133
      01001DDDH   LINE      CODE     ---       #134
      ---         BLOCKEND  ---      ---       LVL=0

      01001DDEH   BLOCK     CODE     ---       LVL=0
      00000007H   SYMBOL    DATA     BYTE      irq
      01001DDEH   LINE      CODE     ---       #136
      01001DDEH   LINE      CODE     ---       #137
      01001DDEH   LINE      CODE     ---       #140
      01001DE1H   LINE      CODE     ---       #141
      01001DE1H   LINE      CODE     ---       #142
      01001DE4H   LINE      CODE     ---       #143
      01001DE5H   LINE      CODE     ---       #145
      01001DE5H   LINE      CODE     ---       #146
      01001DE8H   LINE      CODE     ---       #147
      01001DE8H   LINE      CODE     ---       #148
      ---         BLOCKEND  ---      ---       LVL=0
LX51 LINKER/LOCATER V4.66.62.0                                                        11/16/2016  21:07:52  PAGE 47



      0100198EH   BLOCK     CODE     ---       LVL=0
      00000006H   SYMBOL    DATA     BYTE      mode
      0100198EH   LINE      CODE     ---       #150
      01001990H   LINE      CODE     ---       #151
      01001990H   LINE      CODE     ---       #152
      01001995H   LINE      CODE     ---       #153
      0100199AH   LINE      CODE     ---       #154
      0100199FH   LINE      CODE     ---       #156
      010019A2H   LINE      CODE     ---       #157
      010019A5H   LINE      CODE     ---       #158
      010019A8H   LINE      CODE     ---       #160
      010019ACH   LINE      CODE     ---       #161
      010019AEH   LINE      CODE     ---       #162
      ---         BLOCKEND  ---      ---       LVL=0

      01001943H   BLOCK     CODE     ---       LVL=0
      01001943H   BLOCK     CODE     NEAR LAB  LVL=1
      00000008H   SYMBOL    DATA     DWORD     timeout_counter
      0000000CH   SYMBOL    DATA     BYTE      w2_status
      0000000DH   SYMBOL    DATA     BYTE      data_ready
      0000000EH   SYMBOL    DATA     BYTE      nack_received
      ---         BLOCKEND  ---      ---       LVL=1
      01001943H   LINE      CODE     ---       #164
      01001943H   LINE      CODE     ---       #165
      01001943H   LINE      CODE     ---       #166
      0100194DH   LINE      CODE     ---       #172
      0100194DH   LINE      CODE     ---       #173
      01001950H   LINE      CODE     ---       #174
      01001956H   LINE      CODE     ---       #175
      0100195CH   LINE      CODE     ---       #176
      01001963H   LINE      CODE     ---       #177
      01001967H   LINE      CODE     ---       #180
      01001969H   LINE      CODE     ---       #181
      ---         BLOCKEND  ---      ---       LVL=0

      01001B46H   BLOCK     CODE     ---       LVL=0
      00000007H   SYMBOL    DATA     BYTE      address
      00000005H   SYMBOL    DATA     BYTE      direction
      01001B46H   BLOCK     CODE     NEAR LAB  LVL=1
      00000007H   SYMBOL    DATA     BYTE      w2_status
      ---         BLOCKEND  ---      ---       LVL=1
      01001B46H   LINE      CODE     ---       #183
      01001B46H   LINE      CODE     ---       #184
      01001B46H   LINE      CODE     ---       #187
      01001B49H   LINE      CODE     ---       #188
      01001B4DH   LINE      CODE     ---       #190
      01001B4DH   LINE      CODE     ---       #192
      01001B55H   LINE      CODE     ---       #193
      01001B55H   LINE      CODE     ---       #194
      01001B57H   LINE      CODE     ---       #195
      01001B57H   LINE      CODE     ---       #197
      01001B57H   LINE      CODE     ---       #198
      01001B57H   LINE      CODE     ---       #199
      01001B57H   LINE      CODE     ---       #200
      ---         BLOCKEND  ---      ---       LVL=0

      01001853H   BLOCK     CODE     ---       LVL=0
      00000007H   SYMBOL    DATA     BYTE      address
      00000017H   SYMBOL    DATA     ---       data_ptr
      0000001AH   SYMBOL    DATA     BYTE      data_len
      01001859H   BLOCK     CODE     NEAR LAB  LVL=1
      00000006H   SYMBOL    DATA     BYTE      ack_received
      0100186DH   BLOCK     CODE     NEAR LAB  LVL=2
      0000001BH   SYMBOL    DATA     BYTE      w2_status
LX51 LINKER/LOCATER V4.66.62.0                                                        11/16/2016  21:07:52  PAGE 48


      ---         BLOCKEND  ---      ---       LVL=2
      ---         BLOCKEND  ---      ---       LVL=1
      01001853H   LINE      CODE     ---       #202
      01001859H   LINE      CODE     ---       #203
      01001859H   LINE      CODE     ---       #205
      01001860H   LINE      CODE     ---       #207
      0100186DH   LINE      CODE     ---       #208
      0100186DH   LINE      CODE     ---       #210
      01001877H   LINE      CODE     ---       #211
      0100187CH   LINE      CODE     ---       #212
      01001881H   LINE      CODE     ---       #213
      01001881H   LINE      CODE     ---       #214
      01001883H   LINE      CODE     ---       #215
      01001883H   LINE      CODE     ---       #216
      01001885H   LINE      CODE     ---       #218
      01001888H   LINE      CODE     ---       #220
      0100188AH   LINE      CODE     ---       #221
      ---         BLOCKEND  ---      ---       LVL=0

      01001760H   BLOCK     CODE     ---       LVL=0
      00000007H   SYMBOL    DATA     BYTE      address
      0000003EH   SYMBOL    DATA     ---       data_ptr
      00000041H   SYMBOL    DATA     BYTE      data_len
      01001766H   BLOCK     CODE     NEAR LAB  LVL=1
      00000007H   SYMBOL    DATA     BYTE      w2_status
      00000042H   SYMBOL    DATA     BYTE      ack_received
      ---         BLOCKEND  ---      ---       LVL=1
      01001760H   LINE      CODE     ---       #223
      01001766H   LINE      CODE     ---       #224
      01001766H   LINE      CODE     ---       #228
      0100176DH   LINE      CODE     ---       #230
      01001771H   LINE      CODE     ---       #231
      01001771H   LINE      CODE     ---       #233
      01001774H   LINE      CODE     ---       #234
      01001774H   LINE      CODE     ---       #237
      0100177FH   LINE      CODE     ---       #238
      0100177FH   LINE      CODE     ---       #239
      01001783H   LINE      CODE     ---       #240
      01001783H   LINE      CODE     ---       #241
      01001786H   LINE      CODE     ---       #242
      01001786H   LINE      CODE     ---       #244
      01001789H   LINE      CODE     ---       #246
      01001793H   LINE      CODE     ---       #247
      0100179DH   LINE      CODE     ---       #248
      0100179FH   LINE      CODE     ---       #250
      010017A1H   LINE      CODE     ---       #251
      ---         BLOCKEND  ---      ---       LVL=0

      01001427H   BLOCK     CODE     ---       LVL=0
      01001427H   BLOCK     CODE     NEAR LAB  LVL=1
      00000036H   SYMBOL    DATA     BYTE      pulsecount
      00000037H   SYMBOL    DATA     BYTE      w2_freq
      ---         BLOCKEND  ---      ---       LVL=1
      01001427H   LINE      CODE     ---       #253
      01001427H   LINE      CODE     ---       #254
      01001427H   LINE      CODE     ---       #259
      0100142DH   LINE      CODE     ---       #261
      01001430H   LINE      CODE     ---       #262
      01001438H   LINE      CODE     ---       #266
      0100143BH   LINE      CODE     ---       #267
      0100143EH   LINE      CODE     ---       #270
      01001441H   LINE      CODE     ---       #275
      01001447H   LINE      CODE     ---       #278
      01001447H   LINE      CODE     ---       #280
      01001447H   LINE      CODE     ---       #284
LX51 LINKER/LOCATER V4.66.62.0                                                        11/16/2016  21:07:52  PAGE 49


      0100144AH   LINE      CODE     ---       #285
      0100144DH   LINE      CODE     ---       #286
      0100144DH   LINE      CODE     ---       #288
      01001453H   LINE      CODE     ---       #289
      01001453H   LINE      CODE     ---       #291
      01001453H   LINE      CODE     ---       #292
      01001456H   LINE      CODE     ---       #293
      0100145FH   LINE      CODE     ---       #296
      0100145FH   LINE      CODE     ---       #298
      01001466H   LINE      CODE     ---       #301
      01001466H   LINE      CODE     ---       #303
      0100146DH   LINE      CODE     ---       #306
      01001470H   LINE      CODE     ---       #309
      01001473H   LINE      CODE     ---       #310
      01001479H   LINE      CODE     ---       #312
      ---         BLOCKEND  ---      ---       LVL=0

      01001B9DH   BLOCK     CODE     ---       LVL=0
      00000007H   SYMBOL    DATA     BYTE      devAddr
      00000005H   SYMBOL    DATA     BYTE      regAddr
      00000029H   SYMBOL    DATA     BYTE      data_to_write
      01001B9DH   LINE      CODE     ---       #317
      01001B9FH   LINE      CODE     ---       #318
      01001BADH   LINE      CODE     ---       #319
      ---         BLOCKEND  ---      ---       LVL=0

      01001819H   BLOCK     CODE     ---       LVL=0
      00000007H   SYMBOL    DATA     BYTE      devAddr
      00000004H   SYMBOL    DATA     BYTE      regAddr
      00000006H   SYMBOL    DATA     BYTE      data_len
      0000002DH   SYMBOL    DATA     ---       data_ptr
      0100181DH   BLOCK     CODE     NEAR LAB  LVL=1
      00000007H   SYMBOL    DATA     BYTE      w2_status
      00000005H   SYMBOL    DATA     BYTE      ack_received
      ---         BLOCKEND  ---      ---       LVL=1
      01001819H   LINE      CODE     ---       #321
      0100181DH   LINE      CODE     ---       #326
      01001824H   LINE      CODE     ---       #327
      01001826H   LINE      CODE     ---       #328
      01001829H   LINE      CODE     ---       #329
      0100182DH   LINE      CODE     ---       #330
      0100182DH   LINE      CODE     ---       #331
      0100182FH   LINE      CODE     ---       #332
      0100182FH   LINE      CODE     ---       #334
      0100183BH   LINE      CODE     ---       #335
      0100183BH   LINE      CODE     ---       #336
      01001843H   LINE      CODE     ---       #337
      01001843H   LINE      CODE     ---       #338
      01001849H   LINE      CODE     ---       #339
      01001849H   LINE      CODE     ---       #340
      0100184BH   LINE      CODE     ---       #341
      0100184BH   LINE      CODE     ---       #342
      0100184DH   LINE      CODE     ---       #343
      01001850H   LINE      CODE     ---       #345
      01001852H   LINE      CODE     ---       #346
      ---         BLOCKEND  ---      ---       LVL=0

      01001B58H   BLOCK     CODE     ---       LVL=0
      00000007H   SYMBOL    DATA     BYTE      devAddr
      00000005H   SYMBOL    DATA     BYTE      regAddr
      0000002BH   SYMBOL    DATA     ---       data_ptr
      01001B58H   LINE      CODE     ---       #348
      01001B5EH   LINE      CODE     ---       #349
      01001B69H   LINE      CODE     ---       #350
      ---         BLOCKEND  ---      ---       LVL=0
LX51 LINKER/LOCATER V4.66.62.0                                                        11/16/2016  21:07:52  PAGE 50



      0100156FH   BLOCK     CODE     ---       LVL=0
      00000006H   SYMBOL    DATA     BYTE      devAddr
      00000004H   SYMBOL    DATA     BYTE      regAddr
      00000030H   SYMBOL    DATA     BYTE      data_len
      00000031H   SYMBOL    DATA     ---       data_ptr
      01001575H   BLOCK     CODE     NEAR LAB  LVL=1
      00000034H   SYMBOL    DATA     BYTE      w2_status
      00000035H   SYMBOL    DATA     BYTE      ack_received
      ---         BLOCKEND  ---      ---       LVL=1
      0100156FH   LINE      CODE     ---       #352
      01001575H   LINE      CODE     ---       #357
      0100157CH   LINE      CODE     ---       #358
      0100157EH   LINE      CODE     ---       #359
      01001583H   LINE      CODE     ---       #360
      01001588H   LINE      CODE     ---       #361
      01001588H   LINE      CODE     ---       #362
      0100158BH   LINE      CODE     ---       #363
      0100158BH   LINE      CODE     ---       #367
      01001594H   LINE      CODE     ---       #369
      01001598H   LINE      CODE     ---       #370
      01001598H   LINE      CODE     ---       #372
      0100159BH   LINE      CODE     ---       #374
      0100159BH   LINE      CODE     ---       #376
      010015A6H   LINE      CODE     ---       #377
      010015A6H   LINE      CODE     ---       #378
      010015AAH   LINE      CODE     ---       #379
      010015AAH   LINE      CODE     ---       #380
      010015ADH   LINE      CODE     ---       #381
      010015ADH   LINE      CODE     ---       #383
      010015B2H   LINE      CODE     ---       #385
      010015BCH   LINE      CODE     ---       #386
      010015C7H   LINE      CODE     ---       #387
      010015C9H   LINE      CODE     ---       #389
      010015CBH   LINE      CODE     ---       #390
      ---         BLOCKEND  ---      ---       LVL=0

      010016CDH   BLOCK     CODE     ---       LVL=0
      00000022H   SYMBOL    DATA     BYTE      devAddr
      00000023H   SYMBOL    DATA     BYTE      regAddr
      00000024H   SYMBOL    DATA     BYTE      bitNum
      00000025H   SYMBOL    DATA     BYTE      data_to_write
      010016D3H   BLOCK     CODE     NEAR LAB  LVL=1
      00000026H   SYMBOL    DATA     BYTE      b
      ---         BLOCKEND  ---      ---       LVL=1
      010016CDH   LINE      CODE     ---       #393
      010016D3H   LINE      CODE     ---       #395
      010016DCH   LINE      CODE     ---       #396
      01001711H   LINE      CODE     ---       #397
      0100171AH   LINE      CODE     ---       #398
      ---         BLOCKEND  ---      ---       LVL=0

      0100150CH   BLOCK     CODE     ---       LVL=0
      00000022H   SYMBOL    DATA     BYTE      devAddr
      00000023H   SYMBOL    DATA     BYTE      regAddr
      00000024H   SYMBOL    DATA     BYTE      bitStart
      00000025H   SYMBOL    DATA     BYTE      data_length
      00000026H   SYMBOL    DATA     BYTE      data_to_write
      01001512H   BLOCK     CODE     NEAR LAB  LVL=1
      00000027H   SYMBOL    DATA     BYTE      b
      0100151EH   BLOCK     CODE     NEAR LAB  LVL=2
      00000028H   SYMBOL    DATA     BYTE      mask
      ---         BLOCKEND  ---      ---       LVL=2
      ---         BLOCKEND  ---      ---       LVL=1
      0100150CH   LINE      CODE     ---       #399
LX51 LINKER/LOCATER V4.66.62.0                                                        11/16/2016  21:07:52  PAGE 51


      01001512H   LINE      CODE     ---       #408
      0100151EH   LINE      CODE     ---       #409
      0100154BH   LINE      CODE     ---       #410
      01001558H   LINE      CODE     ---       #411
      0100155CH   LINE      CODE     ---       #412
      0100155FH   LINE      CODE     ---       #413
      01001563H   LINE      CODE     ---       #414
      0100156CH   LINE      CODE     ---       #415
      0100156CH   LINE      CODE     ---       #416
      0100156EH   LINE      CODE     ---       #417
      0100156EH   LINE      CODE     ---       #418
      ---         BLOCKEND  ---      ---       LVL=0

      0100196AH   BLOCK     CODE     ---       LVL=0
      00000007H   SYMBOL    DATA     BYTE      devAddr
      00000005H   SYMBOL    DATA     BYTE      regAddr
      00000011H   SYMBOL    DATA     BYTE      bitNum
      00000012H   SYMBOL    DATA     ---       data_ptr
      0100196CH   BLOCK     CODE     NEAR LAB  LVL=1
      00000015H   SYMBOL    DATA     BYTE      b
      00000007H   SYMBOL    DATA     BYTE      count
      ---         BLOCKEND  ---      ---       LVL=1
      0100196AH   LINE      CODE     ---       #419
      0100196CH   LINE      CODE     ---       #421
      01001975H   LINE      CODE     ---       #422
      0100198DH   LINE      CODE     ---       #423
      0100198DH   LINE      CODE     ---       #424
      ---         BLOCKEND  ---      ---       LVL=0

      010015CCH   BLOCK     CODE     ---       LVL=0
      00000007H   SYMBOL    DATA     BYTE      devAddr
      00000005H   SYMBOL    DATA     BYTE      regAddr
      00000024H   SYMBOL    DATA     BYTE      bitStart
      00000025H   SYMBOL    DATA     BYTE      data_length
      00000026H   SYMBOL    DATA     ---       data_ptr
      010015CEH   BLOCK     CODE     NEAR LAB  LVL=1
      00000005H   SYMBOL    DATA     BYTE      count
      00000029H   SYMBOL    DATA     BYTE      b
      010015DCH   BLOCK     CODE     NEAR LAB  LVL=2
      0000002AH   SYMBOL    DATA     BYTE      mask
      ---         BLOCKEND  ---      ---       LVL=2
      ---         BLOCKEND  ---      ---       LVL=1
      010015CCH   LINE      CODE     ---       #425
      010015CEH   LINE      CODE     ---       #432
      010015DCH   LINE      CODE     ---       #433
      01001609H   LINE      CODE     ---       #434
      0100160BH   LINE      CODE     ---       #435
      01001618H   LINE      CODE     ---       #436
      01001621H   LINE      CODE     ---       #437
      01001621H   LINE      CODE     ---       #438
      01001623H   LINE      CODE     ---       #439
      ---         BLOCKEND  ---      ---       LVL=0

      01001B0FH   BLOCK     CODE     ---       LVL=0
      00000007H   SYMBOL    DATA     BYTE      devAddr
      00000005H   SYMBOL    DATA     BYTE      regAddr
      00000022H   SYMBOL    DATA     WORD      data_to_write
      01001B0FH   LINE      CODE     ---       #442
      01001B13H   LINE      CODE     ---       #443
      01001B21H   LINE      CODE     ---       #444
      ---         BLOCKEND  ---      ---       LVL=0

      01001624H   BLOCK     CODE     ---       LVL=0
      00000007H   SYMBOL    DATA     BYTE      devAddr
      00000006H   SYMBOL    DATA     BYTE      regAddr
LX51 LINKER/LOCATER V4.66.62.0                                                        11/16/2016  21:07:52  PAGE 52


      00000004H   SYMBOL    DATA     BYTE      data_length
      00000027H   SYMBOL    DATA     ---       data_ptr
      01001628H   BLOCK     CODE     NEAR LAB  LVL=1
      00000007H   SYMBOL    DATA     BYTE      w2_status
      00000005H   SYMBOL    DATA     BYTE      ack_received
      ---         BLOCKEND  ---      ---       LVL=1
      01001624H   LINE      CODE     ---       #445
      01001628H   LINE      CODE     ---       #456
      0100162FH   LINE      CODE     ---       #457
      01001631H   LINE      CODE     ---       #458
      01001634H   LINE      CODE     ---       #459
      01001638H   LINE      CODE     ---       #460
      01001638H   LINE      CODE     ---       #461
      0100163AH   LINE      CODE     ---       #462
      0100163AH   LINE      CODE     ---       #464
      01001648H   LINE      CODE     ---       #465
      01001648H   LINE      CODE     ---       #466
      01001653H   LINE      CODE     ---       #467
      01001653H   LINE      CODE     ---       #468
      01001659H   LINE      CODE     ---       #469
      01001659H   LINE      CODE     ---       #470
      0100165BH   LINE      CODE     ---       #471
      0100165BH   LINE      CODE     ---       #472
      0100165EH   LINE      CODE     ---       #473
      0100166AH   LINE      CODE     ---       #474
      0100166AH   LINE      CODE     ---       #475
      01001670H   LINE      CODE     ---       #476
      01001670H   LINE      CODE     ---       #477
      01001672H   LINE      CODE     ---       #478
      01001672H   LINE      CODE     ---       #479
      01001674H   LINE      CODE     ---       #480
      01001674H   LINE      CODE     ---       #481
      01001674H   LINE      CODE     ---       #482
      01001674H   LINE      CODE     ---       #483
      01001677H   LINE      CODE     ---       #485
      01001679H   LINE      CODE     ---       #486
      ---         BLOCKEND  ---      ---       LVL=0

      ---         MODULE    ---      ---       HAL_DELAY
      01001AD5H   PUBLIC    CODE     ---       _delay_ms
      01001A9CH   PUBLIC    CODE     ---       _delay_us

      01001A91H   BLOCK     CODE     ---       LVL=0
      ---         BLOCKEND  ---      ---       LVL=0

      01001A9CH   BLOCK     CODE     ---       LVL=0
      00000006H   SYMBOL    DATA     WORD      us
      01001A9CH   LINE      CODE     ---       #37
      01001A9CH   LINE      CODE     ---       #38
      01001A9CH   LINE      CODE     ---       #40
      01001A9CH   LINE      CODE     ---       #41
      01001A9DH   LINE      CODE     ---       #42
      01001A9EH   LINE      CODE     ---       #43
      01001A9FH   LINE      CODE     ---       #44
      01001AA0H   LINE      CODE     ---       #45
      01001AA1H   LINE      CODE     ---       #46
      01001AAAH   LINE      CODE     ---       #47
      ---         BLOCKEND  ---      ---       LVL=0

      01001AD5H   BLOCK     CODE     ---       LVL=0
      00000004H   SYMBOL    DATA     WORD      ms
      01001AD5H   LINE      CODE     ---       #49
      01001AD9H   LINE      CODE     ---       #50
      01001AD9H   LINE      CODE     ---       #52
      01001AD9H   LINE      CODE     ---       #53
LX51 LINKER/LOCATER V4.66.62.0                                                        11/16/2016  21:07:52  PAGE 53


      01001AD9H   LINE      CODE     ---       #54
      01001ADCH   LINE      CODE     ---       #55
      01001ADCH   LINE      CODE     ---       #56
      01001ADFH   LINE      CODE     ---       #57
      01001AE8H   LINE      CODE     ---       #58
      ---         BLOCKEND  ---      ---       LVL=0

      ---         MODULE    ---      ---       ?C_INIT
      010012E5H   PUBLIC    CODE     ---       ?C_START

      ---         MODULE    ---      ---       ?C?CLDPTR
      01000056H   PUBLIC    CODE     ---       ?C?CLDPTR

      ---         MODULE    ---      ---       ?C?CLDOPTR
      0100006FH   PUBLIC    CODE     ---       ?C?CLDOPTR

      ---         MODULE    ---      ---       ?C?CSTPTR
      0100009CH   PUBLIC    CODE     ---       ?C?CSTPTR

      ---         MODULE    ---      ---       ?C?CSTOPTR
      010000AEH   PUBLIC    CODE     ---       ?C?CSTOPTR

      ---         MODULE    ---      ---       ?C?IILDX
      010000D0H   PUBLIC    CODE     ---       ?C?IILDX

      ---         MODULE    ---      ---       ?C?ILDIX
      010000E6H   PUBLIC    CODE     ---       ?C?ILDIX

      ---         MODULE    ---      ---       ?C?ILDPTR
      010000FCH   PUBLIC    CODE     ---       ?C?ILDPTR

      ---         MODULE    ---      ---       ?C?ISTPTR
      01000127H   PUBLIC    CODE     ---       ?C?ISTPTR

      ---         MODULE    ---      ---       ?C?ISTOPTR
      01000146H   PUBLIC    CODE     ---       ?C?ISTOPTR

      ---         MODULE    ---      ---       ?C?PLDIIDATA
      01000173H   PUBLIC    CODE     ---       ?C?PLDIIDATA

      ---         MODULE    ---      ---       ?C?PLDXDATA
      01000183H   PUBLIC    CODE     ---       ?C?PLDXDATA

      ---         MODULE    ---      ---       ?C?PSTXDATA
      0100018CH   PUBLIC    CODE     ---       ?C?PSTXDATA

      ---         MODULE    ---      ---       ?C?MEMCMP
      0100031BH   PUBLIC    CODE     ---       ?C?MEMCMP

      ---         MODULE    ---      ---       MALLOC
      01001169H   PUBLIC    CODE     ---       _MALLOC

      ---         MODULE    ---      ---       INIT_MEM
      0200035BH   PUBLIC    XDATA    ---       __MEM_AVAIL__
      010017A2H   PUBLIC    CODE     ---       _INIT_MEMPOOL

      ---         MODULE    ---      ---       REALLOC
      010013AFH   PUBLIC    CODE     ---       _REALLOC

      ---         MODULE    ---      ---       FREE
      01000E18H   PUBLIC    CODE     ---       _FREE

      ---         MODULE    ---      ---       ?C?COPY
      0100040FH   PUBLIC    CODE     ---       ?C?COPY

LX51 LINKER/LOCATER V4.66.62.0                                                        11/16/2016  21:07:52  PAGE 54




*** WARNING L57: UNCALLED FUNCTION, IGNORED FOR OVERLAY PROCESS
    NAME:    GETXACCELOFFSET/MAIN

*** WARNING L57: UNCALLED FUNCTION, IGNORED FOR OVERLAY PROCESS
    NAME:    GETYACCELOFFSET/MAIN

*** WARNING L57: UNCALLED FUNCTION, IGNORED FOR OVERLAY PROCESS
    NAME:    GETZACCELOFFSET/MAIN

*** WARNING L57: UNCALLED FUNCTION, IGNORED FOR OVERLAY PROCESS
    NAME:    GETXGYROOFFSET/MAIN

*** WARNING L57: UNCALLED FUNCTION, IGNORED FOR OVERLAY PROCESS
    NAME:    GETYGYROOFFSET/MAIN

*** WARNING L57: UNCALLED FUNCTION, IGNORED FOR OVERLAY PROCESS
    NAME:    GETZGYROOFFSET/MAIN

*** WARNING L57: UNCALLED FUNCTION, IGNORED FOR OVERLAY PROCESS
    NAME:    GETDMPCONFIG1/MAIN

*** WARNING L57: UNCALLED FUNCTION, IGNORED FOR OVERLAY PROCESS
    NAME:    GETDMPCONFIG2/MAIN

*** WARNING L57: UNCALLED FUNCTION, IGNORED FOR OVERLAY PROCESS
    NAME:    GETOTPBANKVALID/MAIN

*** WARNING L57: UNCALLED FUNCTION, IGNORED FOR OVERLAY PROCESS
    NAME:    GETMOTIONDETECTIONTHRESHOLD/MAIN

*** WARNING L57: UNCALLED FUNCTION, IGNORED FOR OVERLAY PROCESS
    NAME:    GETZEROMOTIONDETECTIONTHRESHOLD/MAIN

*** WARNING L57: UNCALLED FUNCTION, IGNORED FOR OVERLAY PROCESS
    NAME:    GETMOTIONDETECTIONDURATION/MAIN

*** WARNING L57: UNCALLED FUNCTION, IGNORED FOR OVERLAY PROCESS
    NAME:    GETZEROMOTIONDETECTIONDURATION/MAIN

*** WARNING L57: UNCALLED FUNCTION, IGNORED FOR OVERLAY PROCESS
    NAME:    GETFIFOENABLED/MAIN

*** WARNING L57: UNCALLED FUNCTION, IGNORED FOR OVERLAY PROCESS
    NAME:    UART_INIT/MAIN

*** WARNING L57: UNCALLED FUNCTION, IGNORED FOR OVERLAY PROCESS
    NAME:    _PUTSTRING/MAIN

*** WARNING L57: UNCALLED FUNCTION, IGNORED FOR OVERLAY PROCESS
    NAME:    _SEND_PACKET_TO_COMPUTER/MAIN

*** WARNING L57: UNCALLED FUNCTION, IGNORED FOR OVERLAY PROCESS
    NAME:    _SEND_PACKET_FROM_HOST_TO_COMPUTER/MAIN

*** WARNING L57: UNCALLED FUNCTION, IGNORED FOR OVERLAY PROCESS
    NAME:    _HAL_W2_RESPOND_TO_GEN_ADR/HAL_W2_ISR

*** WARNING L57: UNCALLED FUNCTION, IGNORED FOR OVERLAY PROCESS
    NAME:    _HAL_W2_ALTER_CLOCK/HAL_W2_ISR

*** WARNING L57: UNCALLED FUNCTION, IGNORED FOR OVERLAY PROCESS
    NAME:    _HAL_W2_IRQ_STOP_COND_ENABLE/HAL_W2_ISR

LX51 LINKER/LOCATER V4.66.62.0                                                        11/16/2016  21:07:52  PAGE 55


*** WARNING L57: UNCALLED FUNCTION, IGNORED FOR OVERLAY PROCESS
    NAME:    _HAL_W2_IRQ_ADR_MATCH_ENABLE/HAL_W2_ISR

*** WARNING L57: UNCALLED FUNCTION, IGNORED FOR OVERLAY PROCESS
    NAME:    _HAL_W2_SET_SLAVE_ADDRESS/HAL_W2_ISR

*** WARNING L57: UNCALLED FUNCTION, IGNORED FOR OVERLAY PROCESS
    NAME:    HAL_W2_WAIT_DATA_READY/HAL_W2_ISR

*** WARNING L57: UNCALLED FUNCTION, IGNORED FOR OVERLAY PROCESS
    NAME:    _HAL_W2_WRITE/HAL_W2_ISR

*** WARNING L57: UNCALLED FUNCTION, IGNORED FOR OVERLAY PROCESS
    NAME:    _HAL_W2_READ/HAL_W2_ISR

Program Size: data=82.1 xdata=867 const=2470 code=7881
LX51 RUN COMPLETE.  26 WARNING(S),  0 ERROR(S)
