LX51 LINKER/LOCATER V4.66.62.0                                                          11/15/2016  20:29:03  PAGE 1


LX51 LINKER/LOCATER V4.66.62.0, INVOKED BY:
C:\KEIL_V5\C51\BIN\LX51.EXE STARTUP.obj, main.obj, .\hal_w2_isr.obj, .\hal_delay.obj TO FProject DISABLEWARNING (16)


CPU MODE:     8051 MODE
MEMORY MODEL: SMALL


INPUT MODULES INCLUDED:
  STARTUP.obj (?C_STARTUP)
         COMMENT TYPE 1: A51 / ASM51 Assembler
  main.obj (MAIN)
         COMMENT TYPE 0: C51 V9.55
  .\hal_w2_isr.obj (HAL_W2_ISR)
         COMMENT TYPE 0: C51 V9.55
  .\hal_delay.obj (HAL_DELAY)
         COMMENT TYPE 0: C51 V9.55
  C:\KEIL_V5\C51\LIB\C51S.LIB (?C_INIT)
         COMMENT TYPE 1: A51 / ASM51 Assembler
  C:\KEIL_V5\C51\LIB\C51S.LIB (?C?CLDPTR)
         COMMENT TYPE 1: A51 / ASM51 Assembler
  C:\KEIL_V5\C51\LIB\C51S.LIB (?C?CLDOPTR)
         COMMENT TYPE 1: A51 / ASM51 Assembler
  C:\KEIL_V5\C51\LIB\C51S.LIB (?C?CSTPTR)
         COMMENT TYPE 1: A51 / ASM51 Assembler
  C:\KEIL_V5\C51\LIB\C51S.LIB (?C?CSTOPTR)
         COMMENT TYPE 1: A51 / ASM51 Assembler
  C:\KEIL_V5\C51\LIB\C51S.LIB (?C?ILDPTR)
         COMMENT TYPE 1: A51 / ASM51 Assembler
  C:\KEIL_V5\C51\LIB\C51S.LIB (?C?PLDIIDATA)
         COMMENT TYPE 1: A51 / ASM51 Assembler
  C:\KEIL_V5\C51\LIB\C51S.LIB (?C?MEMCMP)
         COMMENT TYPE 1: A51 / ASM51 Assembler
  C:\KEIL_V5\C51\LIB\C51S.LIB (MALLOC)
         COMMENT TYPE 1: C51 Compiler
  C:\KEIL_V5\C51\LIB\C51S.LIB (INIT_MEM)
         COMMENT TYPE 1: C51 Compiler
  C:\KEIL_V5\C51\LIB\C51S.LIB (FREE)
         COMMENT TYPE 1: C51 Compiler
  C:\KEIL_V5\C51\LIB\C51S.LIB (?C?IILDX)
         COMMENT TYPE 1: A51 / ASM51 Assembler


ACTIVE MEMORY CLASSES OF MODULE:  FProject (?C_STARTUP)

BASE        START       END         USED      MEMORY CLASS
==========================================================
C:000000H   C:000000H   C:00FFFFH   001239H   CODE
I:000000H   I:000000H   I:0000FFH   000001H   IDATA
I:000000H   I:000000H   I:00007FH   000077H   DATA
C:000000H   C:000000H   C:00FFFFH   0008DDH   CONST
X:000000H   X:000000H   X:00FFFFH   00027CH   XDATA
I:000020H.0 I:000020H.0 I:00002FH.7 000000H.1 BIT


MEMORY MAP OF MODULE:  FProject (?C_STARTUP)


START     STOP      LENGTH    ALIGN  RELOC    MEMORY CLASS   SEGMENT NAME
=========================================================================

* * * * * * * * * * *   D A T A   M E M O R Y   * * * * * * * * * * * * *
000000H   000007H   000008H   ---    AT..     DATA           "REG BANK 0"
000008H   00001DH   000016H   BYTE   UNIT     DATA           ?DT?MAIN
00001EH   00001FH   000002H   BYTE   UNIT     DATA           ?DT?HAL_W2_ISR
000020H   000020H   000001H   BYTE   BITADDR  DATA           ?BA?MAIN
LX51 LINKER/LOCATER V4.66.62.0                                                        11/15/2016  20:29:03  PAGE 2


000021H.0 000021H.0 000000H.1 BIT    UNIT     BIT            ?BI?MAIN
000021H.1 000021H   000000H.7 ---    ---      **GAP**
000022H   00003CH   00001BH   BYTE   UNIT     DATA           _DATA_GROUP_
00003DH   000045H   000009H   BYTE   UNIT     DATA           ?DT?_WRITEMEMORYBLOCK?MAIN
000046H   00004CH   000007H   BYTE   UNIT     DATA           ?DT?HAL_W2_WAIT_DATA_READY?HAL_W2_ISR
00004DH   000053H   000007H   BYTE   UNIT     DATA           ?DT?_I2C_MPU_READBIT?HAL_W2_ISR
000054H   000059H   000006H   BYTE   UNIT     DATA           ?DT?_HAL_W2_WRITE?HAL_W2_ISR
00005AH   00005FH   000006H   BYTE   UNIT     DATA           ?DT?_HAL_W2_READ?HAL_W2_ISR
000060H   000064H   000005H   BYTE   UNIT     DATA           ?DT?_SEND_PACKET_TO_COMPUTER?MAIN
000065H   000069H   000005H   BYTE   UNIT     DATA           ?DT?_SEND_PACKET_FROM_HOST_TO_COMPUTER?MAIN
00006AH   00006DH   000004H   BYTE   UNIT     DATA           ?DT?_MALLOC?MALLOC
00006EH   000071H   000004H   BYTE   UNIT     DATA           ?DT?_FREE?FREE
000072H   000074H   000003H   BYTE   UNIT     DATA           ?DT?_GETFIFOBYTES?MAIN
000075H   000077H   000003H   BYTE   UNIT     DATA           ?DT?_PUTSTRING?MAIN
000078H   000078H   000001H   BYTE   UNIT     IDATA          ?STACK

* * * * * * * * * * *   C O D E   M E M O R Y   * * * * * * * * * * * * *
000000H   000002H   000003H   ---    OFFS..   CODE           ?CO??C_STARTUP?0
000003H   00000AH   000008H   BYTE   UNIT     CODE           ?PR?_SETXACCELOFFSET?MAIN
00000BH   00000DH   000003H   BYTE   OFFS..   CODE           ?MAIN?0000B
00000EH   000049H   00003CH   BYTE   UNIT     CODE           ?PR?_INIT_MEMPOOL?INIT_MEM
00004AH   00004AH   000001H   ---    ---      **GAP**
00004BH   00004DH   000003H   BYTE   OFFS..   CODE           ?MAIN?0004B
00004EH   000052H   000005H   ---    ---      **GAP**
000053H   000055H   000003H   BYTE   OFFS..   CODE           ?MAIN?00053
000056H   0002CAH   000275H   BYTE   UNIT     CODE           ?C?LIB_CODE
0002CBH   000424H   00015AH   BYTE   UNIT     CODE           ?PR?_WRITEMEMORYBLOCK?MAIN
000425H   000563H   00013FH   BYTE   UNIT     CODE           ?PR?MAIN?MAIN
000564H   000667H   000104H   BYTE   UNIT     CODE           ?PR?_FREE?FREE
000668H   000703H   00009CH   BYTE   UNIT     CODE           ?PR?_MALLOC?MALLOC
000704H   00079CH   000099H   BYTE   UNIT     CODE           ?PR?_GETMOTION6_PACKET?MAIN
00079DH   000828H   00008CH   BYTE   UNIT     CODE           ?C_C51STARTUP
000829H   0008B1H   000089H   BYTE   UNIT     CODE           ?PR?SETUP?MAIN
0008B2H   000937H   000086H   BYTE   UNIT     CODE           ?PR?RF_IRQ?MAIN
000938H   0009AAH   000073H   BYTE   UNIT     CODE           ?PR?HAL_W2_SOFT_RESET?HAL_W2_ISR
0009ABH   000A1AH   000070H   BYTE   UNIT     CODE           ?PR?MAIN
000A1BH   000A7DH   000063H   BYTE   UNIT     CODE           ?PR?_I2C_MPU_WRITEBITS?HAL_W2_ISR
000A7EH   000ADAH   00005DH   BYTE   UNIT     CODE           ?PR?_I2C_MPU_READBYTES?HAL_W2_ISR
000ADBH   000B32H   000058H   BYTE   UNIT     CODE           ?PR?_I2C_MPU_READBITS?HAL_W2_ISR
000B33H   000B88H   000056H   BYTE   UNIT     CODE           ?PR?_SEND_PACKET_TO_HOST?MAIN
000B89H   000BDEH   000056H   BYTE   UNIT     CODE           ?PR?_I2C_MPU_WRITEWORDS?HAL_W2_ISR
000BDFH   000C2CH   00004EH   BYTE   UNIT     CODE           ?PR?_I2C_MPU_WRITEBIT?HAL_W2_ISR
000C2DH   000C79H   00004DH   BYTE   UNIT     CODE           ?C_INITSEG
000C7AH   000CBEH   000045H   BYTE   UNIT     CODE           ?PR?RF_INIT?MAIN
000CBFH   000D00H   000042H   BYTE   UNIT     CODE           ?PR?_HAL_W2_READ?HAL_W2_ISR
000D01H   000D3BH   00003BH   BYTE   UNIT     CODE           ?PR?I2C_IRQ?MAIN
000D3CH   000D75H   00003AH   BYTE   UNIT     CODE           ?PR?_I2C_MPU_WRITEBYTES?HAL_W2_ISR
000D76H   000DADH   000038H   BYTE   UNIT     CODE           ?PR?_HAL_W2_WRITE?HAL_W2_ISR
000DAEH   000DE2H   000035H   BYTE   UNIT     CODE           ?PR?_SEND_PACKET_TO_COMPUTER?MAIN
000DE3H   000E17H   000035H   BYTE   UNIT     CODE           ?PR?_SEND_PACKET_FROM_HOST_TO_COMPUTER?MAIN
000E18H   000E4AH   000033H   BYTE   UNIT     CODE           ?PR?MPU_INITIALIZE?MAIN
000E4BH   000E76H   00002CH   BYTE   UNIT     CODE           ?PR?_TX_MODE_NOACK?MAIN
000E77H   000EA1H   00002BH   BYTE   UNIT     CODE           ?PR?_SPI_READ_BUF?MAIN
000EA2H   000ECAH   000029H   BYTE   UNIT     CODE           ?PR?_GETFIFOBYTES?MAIN
000ECBH   000EF1H   000027H   BYTE   UNIT     CODE           ?PR?HAL_W2_WAIT_DATA_READY?HAL_W2_ISR
000EF2H   000F15H   000024H   BYTE   UNIT     CODE           ?PR?_I2C_MPU_READBIT?HAL_W2_ISR
000F16H   000F36H   000021H   BYTE   UNIT     CODE           ?PR?MPU_TESTCONNECTION?MAIN
000F37H   000F57H   000021H   BYTE   UNIT     CODE           ?PR?_HAL_W2_CONFIGURE_MASTER?HAL_W2_ISR
000F58H   000F76H   00001FH   BYTE   UNIT     CODE           ?PR?_SPI_WRITE_BUF?MAIN
000F77H   000F92H   00001CH   BYTE   UNIT     CODE           ?PR?_PUTSTRING?MAIN
000F93H   000FAEH   00001CH   BYTE   UNIT     CODE           ?PR?LUZES_INICIAIS?MAIN
000FAFH   000FC8H   00001AH   BYTE   UNIT     CODE           ?PR?UART_INIT?MAIN
000FC9H   000FE2H   00001AH   BYTE   UNIT     CODE           ?PR?_DELAY_US?HAL_DELAY
000FE3H   000FFAH   000018H   BYTE   UNIT     CODE           ?PR?_SETMEMORYBANK?MAIN
000FFBH   00100EH   000014H   BYTE   UNIT     CODE           ?PR?_DELAY_MS?HAL_DELAY
LX51 LINKER/LOCATER V4.66.62.0                                                        11/15/2016  20:29:03  PAGE 3


00100FH   001021H   000013H   BYTE   UNIT     CODE           ?PR?GETINTSTATUS?MAIN
001022H   001034H   000013H   BYTE   UNIT     CODE           ?PR?_SPI_RW_REG?MAIN
001035H   001047H   000013H   BYTE   UNIT     CODE           ?PR?_I2C_MPU_WRITEWORD?HAL_W2_ISR
001048H   001059H   000012H   BYTE   UNIT     CODE           ?PR?INICIARIO?MAIN
00105AH   00106BH   000012H   BYTE   UNIT     CODE           ?PR?_HAL_W2_INIT_TRANSFER?HAL_W2_ISR
00106CH   00107DH   000012H   BYTE   UNIT     CODE           ?PR?_I2C_MPU_READBYTE?HAL_W2_ISR
00107EH   00108EH   000011H   BYTE   UNIT     CODE           ?PR?RX_MODE?MAIN
00108FH   00109FH   000011H   BYTE   UNIT     CODE           ?PR?_UART_PUTCHAR?MAIN
0010A0H   0010B0H   000011H   BYTE   UNIT     CODE           ?PR?_I2C_MPU_WRITEBYTE?HAL_W2_ISR
0010B1H   0010C0H   000010H   BYTE   UNIT     CODE           ?PR?TMR0_IRQ?MAIN
0010C1H   0010CEH   00000EH   BYTE   UNIT     CODE           ?PR?GETXACCELOFFSET?MAIN
0010CFH   0010DCH   00000EH   BYTE   UNIT     CODE           ?PR?GETYACCELOFFSET?MAIN
0010DDH   0010EAH   00000EH   BYTE   UNIT     CODE           ?PR?GETZACCELOFFSET?MAIN
0010EBH   0010F8H   00000EH   BYTE   UNIT     CODE           ?PR?GETXGYROOFFSET?MAIN
0010F9H   001106H   00000EH   BYTE   UNIT     CODE           ?PR?GETYGYROOFFSET?MAIN
001107H   001114H   00000EH   BYTE   UNIT     CODE           ?PR?GETZGYROOFFSET?MAIN
001115H   001122H   00000EH   BYTE   UNIT     CODE           ?PR?GETFIFOCOUNT?MAIN
001123H   001130H   00000EH   BYTE   UNIT     CODE           ?PR?_HAL_W2_SET_CLK_FREQ?HAL_W2_ISR
001131H   00113EH   00000EH   BYTE   UNIT     CODE           ?PR?HAL_W2_ISR
00113FH   00114BH   00000DH   BYTE   UNIT     CODE           ?PR?_SPI_READ?MAIN
00114CH   001157H   00000CH   BYTE   UNIT     CODE           ?PR?RESETFIFO?MAIN
001158H   001163H   00000CH   BYTE   UNIT     CODE           ?PR?INICIARRF?MAIN
001164H   00116EH   00000BH   BYTE   UNIT     CODE           ?PR?MPU_8051_MALLOC_SETUP?MAIN
00116FH   001179H   00000BH   BYTE   UNIT     CODE           ?PR?_SETYGYROOFFSET?MAIN
00117AH   001184H   00000BH   BYTE   UNIT     CODE           ?PR?_SETZGYROOFFSET?MAIN
001185H   00118FH   00000BH   BYTE   UNIT     CODE           ?PR?_SETDMPENABLED?MAIN
001190H   00119AH   00000BH   BYTE   UNIT     CODE           ?PR?_HAL_W2_RESPOND_TO_GEN_ADR?HAL_W2_ISR
00119BH   0011A5H   00000BH   BYTE   UNIT     CODE           ?PR?_HAL_W2_ALTER_CLOCK?HAL_W2_ISR
0011A6H   0011B0H   00000BH   BYTE   UNIT     CODE           ?PR?_HAL_W2_IRQ_STOP_COND_ENABLE?HAL_W2_ISR
0011B1H   0011BBH   00000BH   BYTE   UNIT     CODE           ?PR?_HAL_W2_IRQ_ADR_MATCH_ENABLE?HAL_W2_ISR
0011BCH   0011C6H   00000BH   BYTE   UNIT     CODE           ?PR?_HAL_W2_SET_OP_MODE?HAL_W2_ISR
0011C7H   0011D1H   00000BH   BYTE   UNIT     CODE           ?PR?_HAL_W2_ENABLE?HAL_W2_ISR
0011D2H   0011DCH   00000BH   BYTE   UNIT     CODE           ?PR?_HAL_W2_ALL_IRQ_ENABLE?HAL_W2_ISR
0011DDH   0011E6H   00000AH   BYTE   UNIT     CODE           ?PR?START_T0?MAIN
0011E7H   0011F0H   00000AH   BYTE   UNIT     CODE           ?PR?STOP_T0?MAIN
0011F1H   0011FAH   00000AH   BYTE   UNIT     CODE           ?PR?_SPI_RW?MAIN
0011FBH   001204H   00000AH   BYTE   UNIT     CODE           ?PR?HAL_W2_WAIT_DATA_READY_ISR?HAL_W2_ISR
001205H   00120EH   00000AH   BYTE   UNIT     CODE           ?PR?I2C_IRQ_HANDLER?HAL_W2_ISR
00120FH   001217H   000009H   BYTE   UNIT     CODE           ?PR?DMPGETFIFOPACKETSIZE?MAIN
001218H   001220H   000009H   BYTE   UNIT     CODE           ?PR?_SETMEMORYSTARTADDRESS?MAIN
001221H   001228H   000008H   BYTE   UNIT     CODE           ?PR?_SETYACCELOFFSET?MAIN
001229H   001230H   000008H   BYTE   UNIT     CODE           ?PR?_SETZACCELOFFSET?MAIN
001231H   001238H   000008H   BYTE   UNIT     CODE           ?PR?_SETXGYROOFFSET?MAIN
001239H   00123EH   000006H   BYTE   UNIT     CODE           ?PR?_HAL_W2_SET_SLAVE_ADDRESS?HAL_W2_ISR
00123FH   001B1BH   0008DDH   BYTE   UNIT     CONST          ?CO?MAIN

* * * * * * * * * * *  X D A T A   M E M O R Y  * * * * * * * * * * * * *
000000H   000273H   000274H   BYTE   UNIT     XDATA          ?XD?MAIN
000274H   00027BH   000008H   BYTE   UNIT     XDATA          ?XD?INIT_MEM



OVERLAY MAP OF MODULE:   FProject (?C_STARTUP)


FUNCTION/MODULE                               BIT_GROUP   DATA_GROUP 
--> CALLED FUNCTION/MODULE                   START  STOP  START  STOP
=====================================================================
?C_C51STARTUP                                ----- -----  ----- -----
  +--> MAIN/MAIN
  +--> ?C_INITSEG

MAIN/MAIN                                    ----- -----  ----- -----
  +--> SETUP/MAIN
  +--> ?CO?MAIN
LX51 LINKER/LOCATER V4.66.62.0                                                        11/15/2016  20:29:03  PAGE 4


  +--> _DELAY_MS/HAL_DELAY
  +--> START_T0/MAIN
  +--> STOP_T0/MAIN
  +--> _GETMOTION6_PACKET/MAIN
  +--> _SEND_PACKET_TO_HOST/MAIN

SETUP/MAIN                                   ----- -----  ----- -----
  +--> INICIARIO/MAIN
  +--> INICIARRF/MAIN
  +--> _HAL_W2_CONFIGURE_MASTER/HAL_W2_ISR
  +--> LUZES_INICIAIS/MAIN
  +--> ?CO?MAIN
  +--> MPU_8051_MALLOC_SETUP/MAIN
  +--> MPU_INITIALIZE/MAIN
  +--> MPU_TESTCONNECTION/MAIN
  +--> _SEND_PACKET_TO_HOST/MAIN
  +--> _DELAY_MS/HAL_DELAY
  +--> _SETXACCELOFFSET/MAIN
  +--> _SETYACCELOFFSET/MAIN
  +--> _SETZACCELOFFSET/MAIN
  +--> _SETXGYROOFFSET/MAIN
  +--> _SETYGYROOFFSET/MAIN
  +--> _SETZGYROOFFSET/MAIN

INICIARIO/MAIN                               ----- -----  ----- -----

INICIARRF/MAIN                               ----- -----  ----- -----
  +--> RF_INIT/MAIN
  +--> RX_MODE/MAIN

RF_INIT/MAIN                                 ----- -----  ----- -----
  +--> MAIN
  +--> _SPI_WRITE_BUF/MAIN
  +--> _SPI_RW_REG/MAIN

MAIN                                         ----- -----  ----- -----
  +--> _UART_PUTCHAR/MAIN
  +--> _SPI_RW/MAIN

_UART_PUTCHAR/MAIN                           ----- -----  ----- -----

_SPI_RW/MAIN                                 ----- -----  ----- -----

_SPI_WRITE_BUF/MAIN                          ----- -----  0029H 002DH
  +--> MAIN
  +--> _SPI_RW/MAIN

_SPI_RW_REG/MAIN                             ----- -----  ----- -----
  +--> _SPI_RW/MAIN

RX_MODE/MAIN                                 ----- -----  ----- -----
  +--> _SPI_RW_REG/MAIN

_HAL_W2_CONFIGURE_MASTER/HAL_W2_ISR          ----- -----  ----- -----
  +--> _HAL_W2_ENABLE/HAL_W2_ISR
  +--> _HAL_W2_SET_CLK_FREQ/HAL_W2_ISR
  +--> _HAL_W2_SET_OP_MODE/HAL_W2_ISR
  +--> _HAL_W2_ALL_IRQ_ENABLE/HAL_W2_ISR

_HAL_W2_ENABLE/HAL_W2_ISR                    ----- -----  ----- -----

_HAL_W2_SET_CLK_FREQ/HAL_W2_ISR              ----- -----  ----- -----

_HAL_W2_SET_OP_MODE/HAL_W2_ISR               ----- -----  ----- -----

LX51 LINKER/LOCATER V4.66.62.0                                                        11/15/2016  20:29:03  PAGE 5


_HAL_W2_ALL_IRQ_ENABLE/HAL_W2_ISR            ----- -----  ----- -----

LUZES_INICIAIS/MAIN                          ----- -----  ----- -----
  +--> _DELAY_MS/HAL_DELAY

_DELAY_MS/HAL_DELAY                          ----- -----  ----- -----
  +--> _DELAY_US/HAL_DELAY

_DELAY_US/HAL_DELAY                          ----- -----  ----- -----

?CO?MAIN                                     ----- -----  ----- -----

MPU_8051_MALLOC_SETUP/MAIN                   ----- -----  ----- -----
  +--> _INIT_MEMPOOL/INIT_MEM

_INIT_MEMPOOL/INIT_MEM                       ----- -----  ----- -----

MPU_INITIALIZE/MAIN                          ----- -----  ----- -----
  +--> _I2C_MPU_WRITEBITS/HAL_W2_ISR
  +--> _I2C_MPU_WRITEBIT/HAL_W2_ISR

_I2C_MPU_WRITEBITS/HAL_W2_ISR                ----- -----  0022H 0028H
  +--> _I2C_MPU_READBYTE/HAL_W2_ISR
  +--> _I2C_MPU_WRITEBYTE/HAL_W2_ISR

_I2C_MPU_READBYTE/HAL_W2_ISR                 ----- -----  002BH 002DH
  +--> _I2C_MPU_READBYTES/HAL_W2_ISR

_I2C_MPU_READBYTES/HAL_W2_ISR                ----- -----  002EH 0035H
  +--> _HAL_W2_INIT_TRANSFER/HAL_W2_ISR
  +--> HAL_W2_WAIT_DATA_READY_ISR/HAL_W2_ISR
  +--> HAL_W2_SOFT_RESET/HAL_W2_ISR
  +--> HAL_W2_ISR

_HAL_W2_INIT_TRANSFER/HAL_W2_ISR             ----- -----  ----- -----
  +--> HAL_W2_ISR

HAL_W2_ISR                                   ----- -----  ----- -----
  +--> HAL_W2_WAIT_DATA_READY_ISR/HAL_W2_ISR

HAL_W2_WAIT_DATA_READY_ISR/HAL_W2_ISR        ----- -----  ----- -----

HAL_W2_SOFT_RESET/HAL_W2_ISR                 ----- -----  0036H 0037H
  +--> _DELAY_US/HAL_DELAY

_I2C_MPU_WRITEBYTE/HAL_W2_ISR                ----- -----  0029H 0029H
  +--> _I2C_MPU_WRITEBYTES/HAL_W2_ISR

_I2C_MPU_WRITEBYTES/HAL_W2_ISR               ----- -----  002AH 002FH
  +--> _HAL_W2_INIT_TRANSFER/HAL_W2_ISR
  +--> HAL_W2_WAIT_DATA_READY_ISR/HAL_W2_ISR
  +--> HAL_W2_ISR

_I2C_MPU_WRITEBIT/HAL_W2_ISR                 ----- -----  0022H 0026H
  +--> _I2C_MPU_READBYTE/HAL_W2_ISR
  +--> _I2C_MPU_WRITEBYTE/HAL_W2_ISR

MPU_TESTCONNECTION/MAIN                      ----- -----  ----- -----
  +--> _I2C_MPU_READBITS/HAL_W2_ISR

_I2C_MPU_READBITS/HAL_W2_ISR                 ----- -----  0022H 002AH
  +--> _I2C_MPU_READBYTE/HAL_W2_ISR

_SEND_PACKET_TO_HOST/MAIN                    ----- -----  0022H 0026H
  +--> _TX_MODE_NOACK/MAIN
LX51 LINKER/LOCATER V4.66.62.0                                                        11/15/2016  20:29:03  PAGE 6


  +--> RX_MODE/MAIN

_TX_MODE_NOACK/MAIN                          ----- -----  0027H 0028H
  +--> _SPI_RW_REG/MAIN
  +--> MAIN
  +--> _SPI_WRITE_BUF/MAIN

_SETXACCELOFFSET/MAIN                        ----- -----  ----- -----
  +--> MAIN
  +--> _I2C_MPU_WRITEWORD/HAL_W2_ISR

_I2C_MPU_WRITEWORD/HAL_W2_ISR                ----- -----  0022H 0023H
  +--> _I2C_MPU_WRITEWORDS/HAL_W2_ISR

_I2C_MPU_WRITEWORDS/HAL_W2_ISR               ----- -----  0024H 0029H
  +--> _HAL_W2_INIT_TRANSFER/HAL_W2_ISR
  +--> HAL_W2_WAIT_DATA_READY_ISR/HAL_W2_ISR
  +--> HAL_W2_ISR

_SETYACCELOFFSET/MAIN                        ----- -----  ----- -----
  +--> MAIN
  +--> _I2C_MPU_WRITEWORD/HAL_W2_ISR

_SETZACCELOFFSET/MAIN                        ----- -----  ----- -----
  +--> MAIN
  +--> _I2C_MPU_WRITEWORD/HAL_W2_ISR

_SETXGYROOFFSET/MAIN                         ----- -----  ----- -----
  +--> MAIN
  +--> _I2C_MPU_WRITEWORD/HAL_W2_ISR

_SETYGYROOFFSET/MAIN                         ----- -----  ----- -----
  +--> _I2C_MPU_WRITEWORD/HAL_W2_ISR

_SETZGYROOFFSET/MAIN                         ----- -----  ----- -----
  +--> _I2C_MPU_WRITEWORD/HAL_W2_ISR

START_T0/MAIN                                ----- -----  ----- -----
  +--> MAIN

STOP_T0/MAIN                                 ----- -----  ----- -----
  +--> MAIN

_GETMOTION6_PACKET/MAIN                      ----- -----  0022H 0024H
  +--> _I2C_MPU_READBYTES/HAL_W2_ISR

?C_INITSEG                                   ----- -----  ----- -----

*** NEW ROOT *******************************

TMR0_IRQ/MAIN                                ----- -----  ----- -----
  +--> MAIN

*** NEW ROOT *******************************

RF_IRQ/MAIN                                  ----- -----  ----- -----
  +--> _SPI_READ/MAIN
  +--> _SPI_READ_BUF/MAIN
  +--> _SPI_RW_REG/MAIN

_SPI_READ/MAIN                               ----- -----  ----- -----
  +--> _SPI_RW/MAIN

_SPI_READ_BUF/MAIN                           ----- -----  0038H 003CH
  +--> MAIN
LX51 LINKER/LOCATER V4.66.62.0                                                        11/15/2016  20:29:03  PAGE 7


  +--> _SPI_RW/MAIN

*** NEW ROOT *******************************

I2C_IRQ/MAIN                                 ----- -----  ----- -----
  +--> I2C_IRQ_HANDLER/HAL_W2_ISR

I2C_IRQ_HANDLER/HAL_W2_ISR                   ----- -----  ----- -----



PUBLIC SYMBOLS OF MODULE:  FProject (?C_STARTUP)


      VALUE       CLASS    TYPE      PUBLIC SYMBOL NAME
      =================================================
      0000005AH   DATA     BYTE      ?_hal_w2_read?BYTE
      00000054H   DATA     BYTE      ?_hal_w2_write?BYTE
      0000004DH   DATA     BYTE      ?_i2c_mpu_readBit?BYTE
      00000022H   DATA     BYTE      ?_i2c_mpu_readBits?BYTE
      0000002EH   DATA     BYTE      ?_i2c_mpu_readBytes?BYTE
      00000022H   DATA     BYTE      ?_i2c_mpu_writeBit?BYTE
      00000022H   DATA     BYTE      ?_i2c_mpu_writeBits?BYTE
      0000002AH   DATA     BYTE      ?_i2c_mpu_writeBytes?BYTE
      00000024H   DATA     BYTE      ?_i2c_mpu_writeWords?BYTE
      00000065H   DATA     BYTE      ?_send_packet_from_host_to_computer?BYTE
      00000060H   DATA     BYTE      ?_send_packet_to_computer?BYTE
      00000022H   DATA     BYTE      ?_send_packet_to_host?BYTE
      00000038H   DATA     BYTE      ?_SPI_Read_Buf?BYTE
      00000029H   DATA     BYTE      ?_SPI_Write_Buf?BYTE
      0000003DH   DATA     BYTE      ?_writeMemoryBlock?BYTE
      0100006FH   CODE     ---       ?C?CLDOPTR
      01000056H   CODE     ---       ?C?CLDPTR
      00000000H   NUMBER   ---       ?C?CODESEG
      010000AEH   CODE     ---       ?C?CSTOPTR
      0100009CH   CODE     ---       ?C?CSTPTR
      010002B5H   CODE     ---       ?C?IILDX
      010000D0H   CODE     ---       ?C?ILDPTR
      01000291H   CODE     ---       ?C?MEMCMP
      010000FBH   CODE     ---       ?C?PLDIIDATA
      00000000H   NUMBER   ---       ?C?XDATASEG
      010007E4H   CODE     ---       ?C_START
      01000000H   CODE     ---       ?C_STARTUP
      02000274H   XDATA    ---       __mem_avail__
      01000FFBH   CODE     ---       _delay_ms
      01000FD4H   CODE     ---       _delay_us
      01000564H   CODE     ---       _free
      01000EA2H   CODE     ---       _getFIFOBytes
      01000704H   CODE     ---       _getMotion6_packet
      010011D2H   CODE     ---       _hal_w2_all_irq_enable
      0100119BH   CODE     ---       _hal_w2_alter_clock
      01000F37H   CODE     ---       _hal_w2_configure_master
      010011C7H   CODE     ---       _hal_w2_enable
      0100105AH   CODE     ---       _hal_w2_init_transfer
      010011B1H   CODE     ---       _hal_w2_irq_adr_match_enable
      010011A6H   CODE     ---       _hal_w2_irq_stop_cond_enable
      01000CBFH   CODE     ---       _hal_w2_read
      01001190H   CODE     ---       _hal_w2_respond_to_gen_adr
      01001123H   CODE     ---       _hal_w2_set_clk_freq
      010011BCH   CODE     ---       _hal_w2_set_op_mode
      01001239H   CODE     ---       _hal_w2_set_slave_address
      01000D76H   CODE     ---       _hal_w2_write
      01000EF2H   CODE     ---       _i2c_mpu_readBit
      01000ADBH   CODE     ---       _i2c_mpu_readBits
      0100106CH   CODE     ---       _i2c_mpu_readByte
LX51 LINKER/LOCATER V4.66.62.0                                                        11/15/2016  20:29:03  PAGE 8


      01000A7EH   CODE     ---       _i2c_mpu_readBytes
      01000BDFH   CODE     ---       _i2c_mpu_writeBit
      01000A1BH   CODE     ---       _i2c_mpu_writeBits
      010010A0H   CODE     ---       _i2c_mpu_writeByte
      01000D3CH   CODE     ---       _i2c_mpu_writeBytes
      01001035H   CODE     ---       _i2c_mpu_writeWord
      01000B89H   CODE     ---       _i2c_mpu_writeWords
      0100000EH   CODE     ---       _init_mempool
      01000668H   CODE     ---       _malloc
      01000F77H   CODE     ---       _putstring
      01000DE3H   CODE     ---       _send_packet_from_host_to_computer
      01000DAEH   CODE     ---       _send_packet_to_computer
      01000B33H   CODE     ---       _send_packet_to_host
      01001185H   CODE     ---       _setDMPEnabled
      01000FE3H   CODE     ---       _setMemoryBank
      01001218H   CODE     ---       _setMemoryStartAddress
      01000003H   CODE     ---       _setXAccelOffset
      01001231H   CODE     ---       _setXGyroOffset
      01001221H   CODE     ---       _setYAccelOffset
      0100116FH   CODE     ---       _setYGyroOffset
      01001229H   CODE     ---       _setZAccelOffset
      0100117AH   CODE     ---       _setZGyroOffset
      0100113FH   CODE     ---       _SPI_Read
      01000E77H   CODE     ---       _SPI_Read_Buf
      010011F1H   CODE     ---       _SPI_RW
      01001022H   CODE     ---       _SPI_RW_Reg
      01000F58H   CODE     ---       _SPI_Write_Buf
      01000E4BH   CODE     ---       _TX_Mode_NOACK
      01001098H   CODE     ---       _uart_putchar
      010002CBH   CODE     ---       _writeMemoryBlock
*SFR* 000000D0H.6 DATA     BIT       AC
*SFR* 000000E0H   DATA     BYTE      ACC
*SFR* 000000D3H   DATA     BYTE      ADCCON1
*SFR* 000000D2H   DATA     BYTE      ADCCON2
*SFR* 000000D1H   DATA     BYTE      ADCCON3
*SFR* 000000D4H   DATA     BYTE      ADCDATH
*SFR* 000000D5H   DATA     BYTE      ADCDATL
*SFR* 000000D8H   DATA     BYTE      ADCON
      00000011H   DATA     ---       ADDR_HOST
      02000000H   XDATA    ---       another_randon_variable
*SFR* 000000EFH   DATA     BYTE      ARCON
*SFR* 000000F0H   DATA     BYTE      B
*SFR* 000000D8H.7 DATA     BIT       BD
      02000266H   XDATA    ---       buffer
*SFR* 000000C2H   DATA     WORD      CC1
*SFR* 000000C4H   DATA     WORD      CC2
*SFR* 000000C6H   DATA     WORD      CC3
*SFR* 000000C1H   DATA     BYTE      CCEN
*SFR* 000000C3H   DATA     BYTE      CCH1
*SFR* 000000C5H   DATA     BYTE      CCH2
*SFR* 000000C7H   DATA     BYTE      CCH3
*SFR* 000000C2H   DATA     BYTE      CCL1
*SFR* 000000C4H   DATA     BYTE      CCL2
*SFR* 000000C6H   DATA     BYTE      CCL3
*SFR* 000000DDH   DATA     BYTE      CCPDATIA
*SFR* 000000DEH   DATA     BYTE      CCPDATIB
*SFR* 000000DFH   DATA     BYTE      CCPDATO
      0000001AH   DATA     BYTE      chunkSize_wmb
*SFR* 000000A3H   DATA     BYTE      CLKCTRL
*SFR* 000000ADH   DATA     BYTE      CLKLFCTRL
*SFR* 000000DBH   DATA     BYTE      COMPCON
*SFR* 000000CAH   DATA     WORD      CRC
*SFR* 000000CBH   DATA     BYTE      CRCH
*SFR* 000000CAH   DATA     BYTE      CRCL
*SFR* 000000D0H.7 DATA     BIT       CY
LX51 LINKER/LOCATER V4.66.62.0                                                        11/15/2016  20:29:03  PAGE 9


      0000001EH   DATA     BYTE      data_ready
      01001A2DH   CONST    ---       dmpConfig
      0100120FH   CODE     ---       dmpGetFIFOPacketSize
      010012A4H   CONST    ---       dmpMemory
      0000001CH   DATA     ---       dmpPacketBuffer
      02000253H   XDATA    WORD      dmpPacketSize
      01001AEDH   CONST    ---       dmpUpdates
*SFR* 00000083H   DATA     BYTE      DPH
*SFR* 00000085H   DATA     BYTE      DPH1
*SFR* 00000082H   DATA     BYTE      DPL
*SFR* 00000084H   DATA     BYTE      DPL1
*SFR* 00000092H   DATA     BYTE      DPS
*SFR* 000000A8H.7 DATA     BIT       EA
*SFR* 000000A8H.4 DATA     BIT       ES0
*SFR* 000000A8H.1 DATA     BIT       ET0
*SFR* 000000A8H.3 DATA     BIT       ET1
*SFR* 000000A8H.5 DATA     BIT       ET2
*SFR* 000000A8H   DATA     BIT       EX0
*SFR* 000000A8H.2 DATA     BIT       EX1
*SFR* 000000B8H.7 DATA     BIT       EXEN2
*SFR* 000000C0H.7 DATA     BIT       EXF2
*SFR* 000000D0H.5 DATA     BIT       F0
*SFR* 000000FAH   DATA     BYTE      FCR
*SFR* 000000FBH   DATA     BYTE      FDCR
*SFR* 000000F9H   DATA     BYTE      FPCR
*SFR* 000000F8H   DATA     BYTE      FSR
      01001115H   CODE     ---       getFIFOCount
      0100100FH   CODE     ---       getIntStatus
      010010C1H   CODE     ---       getXAccelOffset
      010010EBH   CODE     ---       getXGyroOffset
      010010CFH   CODE     ---       getYAccelOffset
      010010F9H   CODE     ---       getYGyroOffset
      010010DDH   CODE     ---       getZAccelOffset
      01001107H   CODE     ---       getZGyroOffset
      01000938H   CODE     ---       hal_w2_soft_reset
      01000ECBH   CODE     ---       hal_w2_wait_data_ready
      010011FBH   CODE     ---       hal_w2_wait_data_ready_ISR
      02000255H   XDATA    ---       hexchars
      02000042H   XDATA    ---       hexchars2
      01000D01H   CODE     ---       I2C_IRQ
      01001205H   CODE     ---       I2C_IRQ_handler
*SFR* 000000C8H.5 DATA     BIT       I2FR
*SFR* 000000C8H.6 DATA     BIT       I3FR
      00000008H   DATA     WORD      i_wmb
*SFR* 00000088H.1 DATA     BIT       IE0
*SFR* 00000088H.3 DATA     BIT       IE1
*SFR* 000000A8H   DATA     BYTE      IEN0
*SFR* 000000B8H   DATA     BYTE      IEN1
      00000018H   DATA     INT       ii
*SFR* 000000F8H.3 DATA     BIT       INFEN
      01001048H   CODE     ---       iniciarIO
      01001158H   CODE     ---       iniciarRF
*SFR* 000000A6H   DATA     BYTE      INTEXP
*SFR* 000000A9H   DATA     BYTE      IP0
*SFR* 000000B9H   DATA     BYTE      IP1
*SFR* 000000C0H   DATA     BYTE      IRCON
*SFR* 00000088H   DATA     BIT       IT0
*SFR* 00000088H.2 DATA     BIT       IT1
      0000000AH   DATA     BYTE      j_wmb
*SFR* 00000080H.3 DATA     BIT       LEDVM
      01000F93H   CODE     ---       luzes_iniciais
      01000425H   CODE     ---       main
      02000053H   XDATA    ---       malloc_memory_pool
      00000020H.4 DATA     BIT       MAX_RT
*SFR* 000000F8H.7 DATA     BIT       MCDIS
LX51 LINKER/LOCATER V4.66.62.0                                                        11/15/2016  20:29:03  PAGE 10


*SFR* 000000E9H   DATA     BYTE      MD0
*SFR* 000000EAH   DATA     BYTE      MD1
*SFR* 000000EBH   DATA     BYTE      MD2
*SFR* 000000ECH   DATA     BYTE      MD3
*SFR* 000000EDH   DATA     BYTE      MD4
*SFR* 000000EEH   DATA     BYTE      MD5
*SFR* 000000A7H   DATA     BYTE      MEMCON
*SFR* 000000B8H.4 DATA     BIT       MISC
*SFR* 000000C0H.4 DATA     BIT       MISCF
*SFR* 000000C9H   DATA     BYTE      MPAGE
      01001164H   CODE     ---       mpu_8051_malloc_setup
      01000E18H   CODE     ---       mpu_initialize
      01000F16H   CODE     ---       mpu_testConnection
      00000021H.0 BIT      BIT       newPayload
*SFR* 000000AEH   DATA     BYTE      OPMCON
*SFR* 000000D0H.2 DATA     BIT       OV
*SFR* 000000D0H   DATA     BIT       P
*SFR* 00000080H   DATA     BYTE      P0
*SFR* 00000080H   DATA     BIT       P00
*SFR* 00000080H.1 DATA     BIT       P01
*SFR* 00000080H.2 DATA     BIT       P02
*SFR* 00000080H.3 DATA     BIT       P03
*SFR* 00000080H.4 DATA     BIT       P04
*SFR* 00000080H.5 DATA     BIT       P05
*SFR* 00000080H.6 DATA     BIT       P06
*SFR* 00000080H.7 DATA     BIT       P07
*SFR* 0000009EH   DATA     BYTE      P0CON
*SFR* 00000093H   DATA     BYTE      P0DIR
*SFR* 00000090H   DATA     BYTE      P1
*SFR* 00000090H   DATA     BIT       P10
*SFR* 00000090H.1 DATA     BIT       P11
*SFR* 00000090H.2 DATA     BIT       P12
*SFR* 00000090H.3 DATA     BIT       P13
*SFR* 00000090H.4 DATA     BIT       P14
*SFR* 00000090H.5 DATA     BIT       P15
*SFR* 00000090H.6 DATA     BIT       P16
*SFR* 00000090H.7 DATA     BIT       P17
*SFR* 0000009FH   DATA     BYTE      P1CON
*SFR* 00000094H   DATA     BYTE      P1DIR
*SFR* 000000A0H   DATA     BYTE      P2
*SFR* 000000A0H   DATA     BIT       P20
*SFR* 000000A0H.1 DATA     BIT       P21
*SFR* 000000A0H.2 DATA     BIT       P22
*SFR* 000000A0H.3 DATA     BIT       P23
*SFR* 000000A0H.4 DATA     BIT       P24
*SFR* 000000A0H.5 DATA     BIT       P25
*SFR* 000000A0H.6 DATA     BIT       P26
*SFR* 000000A0H.7 DATA     BIT       P27
*SFR* 00000097H   DATA     BYTE      P2CON
*SFR* 00000095H   DATA     BYTE      P2DIR
*SFR* 000000B0H   DATA     BYTE      P3
*SFR* 000000B0H   DATA     BIT       P30
*SFR* 000000B0H.1 DATA     BIT       P31
*SFR* 000000B0H.2 DATA     BIT       P32
*SFR* 000000B0H.3 DATA     BIT       P33
*SFR* 000000B0H.4 DATA     BIT       P34
*SFR* 000000B0H.5 DATA     BIT       P35
*SFR* 000000B0H.6 DATA     BIT       P36
*SFR* 000000B0H.7 DATA     BIT       P37
*SFR* 0000008FH   DATA     BYTE      P3CON
*SFR* 00000096H   DATA     BYTE      P3DIR
      02000247H   XDATA    ---       packet_motion6
      0000001BH   DATA     BYTE      payloadWidth
*SFR* 00000087H   DATA     BYTE      PCON
*SFR* 000000DCH   DATA     BYTE      POFCON
LX51 LINKER/LOCATER V4.66.62.0                                                        11/15/2016  20:29:03  PAGE 11


      0000000FH   DATA     ---       poxa
      00000016H   DATA     ---       progBuffer_wmb
*SFR* 000000D0H   DATA     BYTE      PSW
*SFR* 000000B2H   DATA     BYTE      PWMCON
*SFR* 000000A1H   DATA     BYTE      PWMDC0
*SFR* 000000A2H   DATA     BYTE      PWMDC1
*SFR* 000000A4H   DATA     BYTE      PWRDWN
*SFR* 00000098H.2 DATA     BIT       RB80
*SFR* 000000F8H.1 DATA     BIT       RDEND
*SFR* 000000F8H.2 DATA     BIT       RDIS
*SFR* 000000F8H.4 DATA     BIT       RDYN
*SFR* 00000098H.4 DATA     BIT       REN0
      0100114CH   CODE     ---       resetFIFO
*SFR* 000000B8H.1 DATA     BIT       RF
      01000C7AH   CODE     ---       rf_init
      010008B2H   CODE     ---       RF_IRQ
*SFR* 000000E8H   DATA     BIT       RFCE
*SFR* 000000E8H.2 DATA     BIT       RFCKEN
*SFR* 000000E8H   DATA     BYTE      RFCON
*SFR* 000000E8H.1 DATA     BIT       RFCSN
*SFR* 000000C0H.1 DATA     BIT       RFF
*SFR* 000000B8H   DATA     BIT       RFSPI
*SFR* 000000C0H   DATA     BIT       RFSPIF
*SFR* 00000098H   DATA     BIT       RI0
*SFR* 000000D6H   DATA     BYTE      RNGCTL
*SFR* 000000D7H   DATA     BYTE      RNGDAT
*SFR* 000000D0H.3 DATA     BIT       RS0
*SFR* 000000D0H.4 DATA     BIT       RS1
*SFR* 000000B1H   DATA     BYTE      RSTREAS
*SFR* 000000B4H   DATA     BYTE      RTC2CMP0
*SFR* 000000B5H   DATA     BYTE      RTC2CMP1
*SFR* 000000B3H   DATA     BYTE      RTC2CON
*SFR* 000000B6H   DATA     BYTE      RTC2CPT00
*SFR* 000000ABH   DATA     BYTE      RTC2CPT01
*SFR* 000000ACH   DATA     BYTE      RTC2CPT10
      02000002H   XDATA    ---       rx_buf
      00000020H.6 DATA     BIT       RX_DR
      0100107EH   CODE     ---       RX_Mode
*SFR* 00000099H   DATA     BYTE      S0BUF
*SFR* 00000098H   DATA     BYTE      S0CON
*SFR* 000000BAH   DATA     BYTE      S0RELH
*SFR* 000000AAH   DATA     BYTE      S0RELL
*SFR* 00000080H.2 DATA     BIT       S1
*SFR* 00000090H.4 DATA     BIT       S2
      01000829H   CODE     ---       setup
*SFR* 00000098H.7 DATA     BIT       SM0
*SFR* 00000098H.6 DATA     BIT       SM1
*SFR* 00000098H.5 DATA     BIT       SM20
*SFR* 00000081H   DATA     BYTE      SP
*SFR* 000000B8H.2 DATA     BIT       SPI
*SFR* 000000C0H.2 DATA     BIT       SPIF
*SFR* 000000FCH   DATA     BYTE      SPIMCON0
*SFR* 000000FDH   DATA     BYTE      SPIMCON1
*SFR* 000000FFH   DATA     BYTE      SPIMDAT
*SFR* 000000FEH   DATA     BYTE      SPIMSTAT
*SFR* 000000E4H   DATA     BYTE      SPIRCON0
*SFR* 000000E5H   DATA     BYTE      SPIRCON1
*SFR* 000000E7H   DATA     BYTE      SPIRDAT
*SFR* 000000E6H   DATA     BYTE      SPIRSTAT
*SFR* 000000BCH   DATA     BYTE      SPISCON0
*SFR* 000000BDH   DATA     BYTE      SPISCON1
*SFR* 000000BFH   DATA     BYTE      SPISDAT
*SFR* 000000B7H   DATA     BYTE      SPISRDSZ
*SFR* 000000BEH   DATA     BYTE      SPISSTAT
      00000020H   DATA     BYTE      sta
LX51 LINKER/LOCATER V4.66.62.0                                                        11/15/2016  20:29:03  PAGE 12


      010011DDH   CODE     ---       start_T0
      010011E7H   CODE     ---       stop_T0
*SFR* 000000F8H.6 DATA     BIT       STP
*SFR* 000000CCH   DATA     WORD      T2
*SFR* 000000C8H.2 DATA     BIT       T2CM
*SFR* 000000C8H   DATA     BYTE      T2CON
*SFR* 000000C8H   DATA     BIT       T2I0
*SFR* 000000C8H.1 DATA     BIT       T2I1
*SFR* 000000C8H.7 DATA     BIT       T2PS
*SFR* 000000C8H.3 DATA     BIT       T2R0
*SFR* 000000C8H.4 DATA     BIT       T2R1
*SFR* 00000098H.3 DATA     BIT       TB80
*SFR* 00000088H   DATA     BYTE      TCON
*SFR* 00000088H.5 DATA     BIT       TF0
*SFR* 00000088H.7 DATA     BIT       TF1
*SFR* 000000C0H.6 DATA     BIT       TF2
*SFR* 0000008CH   DATA     BYTE      TH0
*SFR* 0000008DH   DATA     BYTE      TH1
*SFR* 000000CDH   DATA     BYTE      TH2
*SFR* 00000098H.1 DATA     BIT       TI0
      0000000DH   DATA     INT       timer_flag
*SFR* 0000008AH   DATA     BYTE      TL0
*SFR* 0000008BH   DATA     BYTE      TL1
*SFR* 000000CCH   DATA     BYTE      TL2
*SFR* 00000089H   DATA     BYTE      TMOD
      010010B1H   CODE     ---       TMR0_IRQ
*SFR* 00000088H.4 DATA     BIT       TR0
*SFR* 00000088H.6 DATA     BIT       TR1
      02000022H   XDATA    ---       tx_buf
      00000020H.5 DATA     BIT       TX_DS
      01000FAFH   CODE     ---       uart_init
      0000000BH   DATA     ---       verifyBuffer_wmb
      0000001FH   DATA     BYTE      w2_status
*SFR* 000000E2H   DATA     BYTE      W2CON0
*SFR* 000000E1H   DATA     BYTE      W2CON1
*SFR* 000000DAH   DATA     BYTE      W2DAT
*SFR* 000000D9H   DATA     BYTE      W2SADR
*SFR* 000000AFH   DATA     BYTE      WDSV
*SFR* 000000F8H.5 DATA     BIT       WEN
*SFR* 000000F8H   DATA     BIT       WPEN
*SFR* 000000A5H   DATA     BYTE      WUCON
*SFR* 000000C0H.5 DATA     BIT       WUF
*SFR* 000000B8H.5 DATA     BIT       WUIRQ
*SFR* 000000CFH   DATA     BYTE      WUOPC0
*SFR* 000000CEH   DATA     BYTE      WUOPC1
*SFR* 000000B8H.3 DATA     BIT       WUPIN
*SFR* 000000C0H.3 DATA     BIT       WUPINF



SYMBOL TABLE OF MODULE:  FProject (?C_STARTUP)

      VALUE       REP       CLASS    TYPE      SYMBOL NAME
      ====================================================
      ---         MODULE    ---      ---       ?C_STARTUP
      01000000H   PUBLIC    CODE     ---       ?C_STARTUP
      000000E0H   SYMBOL    DATA     ---       ACC
      000000F0H   SYMBOL    DATA     ---       B
      00000083H   SYMBOL    DATA     ---       DPH
      00000082H   SYMBOL    DATA     ---       DPL
      00000000H   SYMBOL    NUMBER   ---       IBPSTACK
      00000100H   SYMBOL    NUMBER   ---       IBPSTACKTOP
      00000080H   SYMBOL    NUMBER   ---       IDATALEN
      010007A0H   SYMBOL    CODE     ---       IDATALOOP
      00000000H   SYMBOL    NUMBER   ---       PBPSTACK
LX51 LINKER/LOCATER V4.66.62.0                                                        11/15/2016  20:29:03  PAGE 13


      00000100H   SYMBOL    NUMBER   ---       PBPSTACKTOP
      00000000H   SYMBOL    NUMBER   ---       PDATALEN
      00000000H   SYMBOL    NUMBER   ---       PDATASTART
      00000000H   SYMBOL    NUMBER   ---       PPAGE
      00000000H   SYMBOL    NUMBER   ---       PPAGEENABLE
      000000A0H   SYMBOL    DATA     ---       PPAGE_SFR
      00000081H   SYMBOL    DATA     ---       SP
      0100079DH   SYMBOL    CODE     ---       STARTUP1
      00000000H   SYMBOL    NUMBER   ---       XBPSTACK
      00000000H   SYMBOL    NUMBER   ---       XBPSTACKTOP
      00000000H   SYMBOL    NUMBER   ---       XDATALEN
      00000000H   SYMBOL    NUMBER   ---       XDATASTART
      01000000H   LINE      CODE     ---       #126
      0100079DH   LINE      CODE     ---       #133
      0100079FH   LINE      CODE     ---       #134
      010007A0H   LINE      CODE     ---       #135
      010007A1H   LINE      CODE     ---       #136
      010007A3H   LINE      CODE     ---       #185
      010007A6H   LINE      CODE     ---       #196

      ---         MODULE    ---      ---       MAIN
      02000266H   PUBLIC    XDATA    ---       buffer
      0000001CH   PUBLIC    DATA     ---       dmpPacketBuffer
      0000001BH   PUBLIC    DATA     BYTE      payloadWidth
      00000020H.4 PUBLIC    DATA     BIT       MAX_RT
      0000001AH   PUBLIC    DATA     BYTE      chunkSize_wmb
      02000255H   PUBLIC    XDATA    ---       hexchars
      00000018H   PUBLIC    DATA     INT       ii
      00000016H   PUBLIC    DATA     ---       progBuffer_wmb
      02000253H   PUBLIC    XDATA    WORD      dmpPacketSize
      00000011H   PUBLIC    DATA     ---       ADDR_HOST
      0000000FH   PUBLIC    DATA     ---       poxa
      02000247H   PUBLIC    XDATA    ---       packet_motion6
      00000020H.5 PUBLIC    DATA     BIT       TX_DS
      0000000DH   PUBLIC    DATA     INT       timer_flag
      00000020H.6 PUBLIC    DATA     BIT       RX_DR
      00000020H   PUBLIC    DATA     BYTE      sta
      0000000BH   PUBLIC    DATA     ---       verifyBuffer_wmb
      00000021H.0 PUBLIC    BIT      BIT       newPayload
      02000053H   PUBLIC    XDATA    ---       malloc_memory_pool
      0000000AH   PUBLIC    DATA     BYTE      j_wmb
      00000008H   PUBLIC    DATA     WORD      i_wmb
      02000042H   PUBLIC    XDATA    ---       hexchars2
      02000022H   PUBLIC    XDATA    ---       tx_buf
      02000002H   PUBLIC    XDATA    ---       rx_buf
      02000000H   PUBLIC    XDATA    ---       another_randon_variable
      01001AEDH   PUBLIC    CONST    ---       dmpUpdates
      01001A2DH   PUBLIC    CONST    ---       dmpConfig
      010012A4H   PUBLIC    CONST    ---       dmpMemory
      01000D01H   PUBLIC    CODE     ---       I2C_IRQ
      01000F93H   PUBLIC    CODE     ---       luzes_iniciais
      01000425H   PUBLIC    CODE     ---       main
      01000829H   PUBLIC    CODE     ---       setup
      01001048H   PUBLIC    CODE     ---       iniciarIO
      00000065H   PUBLIC    DATA     BYTE      ?_send_packet_from_host_to_computer?BYTE
      01000DE3H   PUBLIC    CODE     ---       _send_packet_from_host_to_computer
      00000060H   PUBLIC    DATA     BYTE      ?_send_packet_to_computer?BYTE
      01000DAEH   PUBLIC    CODE     ---       _send_packet_to_computer
      00000022H   PUBLIC    DATA     BYTE      ?_send_packet_to_host?BYTE
      01000B33H   PUBLIC    CODE     ---       _send_packet_to_host
      01000F77H   PUBLIC    CODE     ---       _putstring
      01001098H   PUBLIC    CODE     ---       _uart_putchar
      01000FAFH   PUBLIC    CODE     ---       uart_init
      01001158H   PUBLIC    CODE     ---       iniciarRF
      01000C7AH   PUBLIC    CODE     ---       rf_init
LX51 LINKER/LOCATER V4.66.62.0                                                        11/15/2016  20:29:03  PAGE 14


      010008B2H   PUBLIC    CODE     ---       RF_IRQ
      01000E4BH   PUBLIC    CODE     ---       _TX_Mode_NOACK
      0100107EH   PUBLIC    CODE     ---       RX_Mode
      00000029H   PUBLIC    DATA     BYTE      ?_SPI_Write_Buf?BYTE
      01000F58H   PUBLIC    CODE     ---       _SPI_Write_Buf
      00000038H   PUBLIC    DATA     BYTE      ?_SPI_Read_Buf?BYTE
      01000E77H   PUBLIC    CODE     ---       _SPI_Read_Buf
      0100113FH   PUBLIC    CODE     ---       _SPI_Read
      01001022H   PUBLIC    CODE     ---       _SPI_RW_Reg
      010011F1H   PUBLIC    CODE     ---       _SPI_RW
      010011E7H   PUBLIC    CODE     ---       stop_T0
      010011DDH   PUBLIC    CODE     ---       start_T0
      010010B1H   PUBLIC    CODE     ---       TMR0_IRQ
      0000003DH   PUBLIC    DATA     BYTE      ?_writeMemoryBlock?BYTE
      010002CBH   PUBLIC    CODE     ---       _writeMemoryBlock
      01001218H   PUBLIC    CODE     ---       _setMemoryStartAddress
      01000EA2H   PUBLIC    CODE     ---       _getFIFOBytes
      0100120FH   PUBLIC    CODE     ---       dmpGetFIFOPacketSize
      0100114CH   PUBLIC    CODE     ---       resetFIFO
      01001185H   PUBLIC    CODE     ---       _setDMPEnabled
      0100100FH   PUBLIC    CODE     ---       getIntStatus
      01001115H   PUBLIC    CODE     ---       getFIFOCount
      01000FE3H   PUBLIC    CODE     ---       _setMemoryBank
      01001107H   PUBLIC    CODE     ---       getZGyroOffset
      010010F9H   PUBLIC    CODE     ---       getYGyroOffset
      010010EBH   PUBLIC    CODE     ---       getXGyroOffset
      010010DDH   PUBLIC    CODE     ---       getZAccelOffset
      010010CFH   PUBLIC    CODE     ---       getYAccelOffset
      010010C1H   PUBLIC    CODE     ---       getXAccelOffset
      0100117AH   PUBLIC    CODE     ---       _setZGyroOffset
      0100116FH   PUBLIC    CODE     ---       _setYGyroOffset
      01001231H   PUBLIC    CODE     ---       _setXGyroOffset
      01001229H   PUBLIC    CODE     ---       _setZAccelOffset
      01001221H   PUBLIC    CODE     ---       _setYAccelOffset
      01000003H   PUBLIC    CODE     ---       _setXAccelOffset
      01000704H   PUBLIC    CODE     ---       _getMotion6_packet
      01000F16H   PUBLIC    CODE     ---       mpu_testConnection
      01000E18H   PUBLIC    CODE     ---       mpu_initialize
      01001164H   PUBLIC    CODE     ---       mpu_8051_malloc_setup
      00000098H.3 SFRSYM    DATA     BIT       TB80
      000000BEH   SFRSYM    DATA     BYTE      SPISSTAT
      000000C8H   SFRSYM    DATA     BIT       T2I0
      000000C3H   SFRSYM    DATA     BYTE      CCH1
      00000080H   SFRSYM    DATA     BYTE      P0
      000000C8H.1 SFRSYM    DATA     BIT       T2I1
      000000DFH   SFRSYM    DATA     BYTE      CCPDATO
      000000C5H   SFRSYM    DATA     BYTE      CCH2
      00000090H   SFRSYM    DATA     BYTE      P1
      000000C7H   SFRSYM    DATA     BYTE      CCH3
      000000A0H   SFRSYM    DATA     BYTE      P2
      00000098H.5 SFRSYM    DATA     BIT       SM20
      000000B0H   SFRSYM    DATA     BYTE      P3
      00000080H.2 SFRSYM    DATA     BIT       S1
      000000D0H.6 SFRSYM    DATA     BIT       AC
      000000C2H   SFRSYM    DATA     BYTE      CCL1
      00000090H.4 SFRSYM    DATA     BIT       S2
      000000C4H   SFRSYM    DATA     BYTE      CCL2
      000000D8H.7 SFRSYM    DATA     BIT       BD
      000000B8H   SFRSYM    DATA     BIT       RFSPI
      000000A8H.7 SFRSYM    DATA     BIT       EA
      000000CCH   SFRSYM    DATA     WORD      T2
      000000C6H   SFRSYM    DATA     BYTE      CCL3
      000000B7H   SFRSYM    DATA     BYTE      SPISRDSZ
      000000C8H.3 SFRSYM    DATA     BIT       T2R0
      000000C8H.4 SFRSYM    DATA     BIT       T2R1
LX51 LINKER/LOCATER V4.66.62.0                                                        11/15/2016  20:29:03  PAGE 15


      000000A8H   SFRSYM    DATA     BYTE      IEN0
      000000B8H   SFRSYM    DATA     BYTE      IEN1
      000000A5H   SFRSYM    DATA     BYTE      WUCON
      00000085H   SFRSYM    DATA     BYTE      DPH1
      000000DBH   SFRSYM    DATA     BYTE      COMPCON
      000000A3H   SFRSYM    DATA     BYTE      CLKCTRL
      00000084H   SFRSYM    DATA     BYTE      DPL1
      000000C8H.5 SFRSYM    DATA     BIT       I2FR
      000000B8H.3 SFRSYM    DATA     BIT       WUPIN
      000000C8H.6 SFRSYM    DATA     BIT       I3FR
      000000FFH   SFRSYM    DATA     BYTE      SPIMDAT
      000000C0H.7 SFRSYM    DATA     BIT       EXF2
      00000098H.4 SFRSYM    DATA     BIT       REN0
      000000C8H.2 SFRSYM    DATA     BIT       T2CM
      000000B8H.1 SFRSYM    DATA     BIT       RF
      000000B8H.5 SFRSYM    DATA     BIT       WUIRQ
      000000E7H   SFRSYM    DATA     BYTE      SPIRDAT
      000000C1H   SFRSYM    DATA     BYTE      CCEN
      000000E2H   SFRSYM    DATA     BYTE      W2CON0
      000000BFH   SFRSYM    DATA     BYTE      SPISDAT
      000000D0H.7 SFRSYM    DATA     BIT       CY
      000000E1H   SFRSYM    DATA     BYTE      W2CON1
      000000FBH   SFRSYM    DATA     BYTE      FDCR
      000000E8H   SFRSYM    DATA     BIT       RFCE
      000000CBH   SFRSYM    DATA     BYTE      CRCH
      00000081H   SFRSYM    DATA     BYTE      SP
      000000D0H.2 SFRSYM    DATA     BIT       OV
      000000CAH   SFRSYM    DATA     BYTE      CRCL
      000000ADH   SFRSYM    DATA     BYTE      CLKLFCTRL
      000000B1H   SFRSYM    DATA     BYTE      RSTREAS
      000000C8H.7 SFRSYM    DATA     BIT       T2PS
      000000F9H   SFRSYM    DATA     BYTE      FPCR
      000000B8H.4 SFRSYM    DATA     BIT       MISC
      000000A1H   SFRSYM    DATA     BYTE      PWMDC0
      000000B4H   SFRSYM    DATA     BYTE      RTC2CMP0
      000000A2H   SFRSYM    DATA     BYTE      PWMDC1
      000000B5H   SFRSYM    DATA     BYTE      RTC2CMP1
      00000080H   SFRSYM    DATA     BIT       P00
      000000BAH   SFRSYM    DATA     BYTE      S0RELH
      00000090H   SFRSYM    DATA     BIT       P10
      00000080H.1 SFRSYM    DATA     BIT       P01
      00000087H   SFRSYM    DATA     BYTE      PCON
      000000A0H   SFRSYM    DATA     BIT       P20
      00000090H.1 SFRSYM    DATA     BIT       P11
      00000080H.2 SFRSYM    DATA     BIT       P02
      000000B0H   SFRSYM    DATA     BIT       P30
      000000A0H.1 SFRSYM    DATA     BIT       P21
      00000090H.2 SFRSYM    DATA     BIT       P12
      00000080H.3 SFRSYM    DATA     BIT       P03
      000000C0H.2 SFRSYM    DATA     BIT       SPIF
      000000F8H.2 SFRSYM    DATA     BIT       RDIS
      000000B0H.1 SFRSYM    DATA     BIT       P31
      000000A0H.2 SFRSYM    DATA     BIT       P22
      00000090H.3 SFRSYM    DATA     BIT       P13
      00000080H.4 SFRSYM    DATA     BIT       P04
      000000AAH   SFRSYM    DATA     BYTE      S0RELL
      000000B0H.2 SFRSYM    DATA     BIT       P32
      000000A0H.3 SFRSYM    DATA     BIT       P23
      00000090H.4 SFRSYM    DATA     BIT       P14
      00000080H.5 SFRSYM    DATA     BIT       P05
      000000D9H   SFRSYM    DATA     BYTE      W2SADR
      00000089H   SFRSYM    DATA     BYTE      TMOD
      00000088H   SFRSYM    DATA     BYTE      TCON
      000000B0H.3 SFRSYM    DATA     BIT       P33
      000000A0H.4 SFRSYM    DATA     BIT       P24
LX51 LINKER/LOCATER V4.66.62.0                                                        11/15/2016  20:29:03  PAGE 16


      00000090H.5 SFRSYM    DATA     BIT       P15
      00000080H.6 SFRSYM    DATA     BIT       P06
      000000B0H.4 SFRSYM    DATA     BIT       P34
      000000A0H.5 SFRSYM    DATA     BIT       P25
      00000090H.6 SFRSYM    DATA     BIT       P16
      00000080H.7 SFRSYM    DATA     BIT       P07
      000000C2H   SFRSYM    DATA     WORD      CC1
      000000B0H.5 SFRSYM    DATA     BIT       P35
      000000A0H.6 SFRSYM    DATA     BIT       P26
      00000090H.7 SFRSYM    DATA     BIT       P17
      000000C4H   SFRSYM    DATA     WORD      CC2
      000000B0H.6 SFRSYM    DATA     BIT       P36
      000000A0H.7 SFRSYM    DATA     BIT       P27
      000000C6H   SFRSYM    DATA     WORD      CC3
      000000B0H.7 SFRSYM    DATA     BIT       P37
      000000E8H.2 SFRSYM    DATA     BIT       RFCKEN
      000000F8H   SFRSYM    DATA     BIT       WPEN
      000000DDH   SFRSYM    DATA     BYTE      CCPDATIA
      000000DEH   SFRSYM    DATA     BYTE      CCPDATIB
      00000088H.1 SFRSYM    DATA     BIT       IE0
      000000F8H.4 SFRSYM    DATA     BIT       RDYN
      00000088H.3 SFRSYM    DATA     BIT       IE1
      000000CFH   SFRSYM    DATA     BYTE      WUOPC0
      000000F0H   SFRSYM    DATA     BYTE      B
      000000E9H   SFRSYM    DATA     BYTE      MD0
      000000CEH   SFRSYM    DATA     BYTE      WUOPC1
      000000A7H   SFRSYM    DATA     BYTE      MEMCON
      000000EAH   SFRSYM    DATA     BYTE      MD1
      000000D7H   SFRSYM    DATA     BYTE      RNGDAT
      000000EBH   SFRSYM    DATA     BYTE      MD2
      000000ECH   SFRSYM    DATA     BYTE      MD3
      000000EDH   SFRSYM    DATA     BYTE      MD4
      000000AFH   SFRSYM    DATA     BYTE      WDSV
      000000EEH   SFRSYM    DATA     BYTE      MD5
      000000E0H   SFRSYM    DATA     BYTE      ACC
      000000DCH   SFRSYM    DATA     BYTE      POFCON
      000000A8H.4 SFRSYM    DATA     BIT       ES0
      000000A8H.1 SFRSYM    DATA     BIT       ET0
      000000A9H   SFRSYM    DATA     BYTE      IP0
      000000A8H.3 SFRSYM    DATA     BIT       ET1
      00000088H.5 SFRSYM    DATA     BIT       TF0
      000000B9H   SFRSYM    DATA     BYTE      IP1
      000000A8H.5 SFRSYM    DATA     BIT       ET2
      00000098H   SFRSYM    DATA     BIT       RI0
      00000088H.7 SFRSYM    DATA     BIT       TF1
      000000C0H   SFRSYM    DATA     BIT       RFSPIF
      000000C0H.6 SFRSYM    DATA     BIT       TF2
      000000FCH   SFRSYM    DATA     BYTE      SPIMCON0
      000000D6H   SFRSYM    DATA     BYTE      RNGCTL
      0000008CH   SFRSYM    DATA     BYTE      TH0
      000000A8H   SFRSYM    DATA     BIT       EX0
      00000098H.1 SFRSYM    DATA     BIT       TI0
      00000088H   SFRSYM    DATA     BIT       IT0
      000000FDH   SFRSYM    DATA     BYTE      SPIMCON1
      0000008DH   SFRSYM    DATA     BYTE      TH1
      000000A8H.2 SFRSYM    DATA     BIT       EX1
      00000088H.2 SFRSYM    DATA     BIT       IT1
      000000CDH   SFRSYM    DATA     BYTE      TH2
      000000AEH   SFRSYM    DATA     BYTE      OPMCON
      000000D0H   SFRSYM    DATA     BIT       P
      00000098H.7 SFRSYM    DATA     BIT       SM0
      0000008AH   SFRSYM    DATA     BYTE      TL0
      00000098H.6 SFRSYM    DATA     BIT       SM1
      000000E4H   SFRSYM    DATA     BYTE      SPIRCON0
      0000008BH   SFRSYM    DATA     BYTE      TL1
LX51 LINKER/LOCATER V4.66.62.0                                                        11/15/2016  20:29:03  PAGE 17


      000000E5H   SFRSYM    DATA     BYTE      SPIRCON1
      000000CCH   SFRSYM    DATA     BYTE      TL2
      000000BCH   SFRSYM    DATA     BYTE      SPISCON0
      000000BDH   SFRSYM    DATA     BYTE      SPISCON1
      000000D0H.3 SFRSYM    DATA     BIT       RS0
      00000088H.4 SFRSYM    DATA     BIT       TR0
      000000D0H.4 SFRSYM    DATA     BIT       RS1
      000000B2H   SFRSYM    DATA     BYTE      PWMCON
      00000088H.6 SFRSYM    DATA     BIT       TR1
      000000CAH   SFRSYM    DATA     WORD      CRC
      000000A6H   SFRSYM    DATA     BYTE      INTEXP
      000000C0H.3 SFRSYM    DATA     BIT       WUPINF
      000000FAH   SFRSYM    DATA     BYTE      FCR
      000000D3H   SFRSYM    DATA     BYTE      ADCCON1
      000000D2H   SFRSYM    DATA     BYTE      ADCCON2
      00000083H   SFRSYM    DATA     BYTE      DPH
      000000D1H   SFRSYM    DATA     BYTE      ADCCON3
      000000C0H.1 SFRSYM    DATA     BIT       RFF
      00000093H   SFRSYM    DATA     BYTE      P0DIR
      00000082H   SFRSYM    DATA     BYTE      DPL
      0000009EH   SFRSYM    DATA     BYTE      P0CON
      00000099H   SFRSYM    DATA     BYTE      S0BUF
      00000094H   SFRSYM    DATA     BYTE      P1DIR
      0000009FH   SFRSYM    DATA     BYTE      P1CON
      00000095H   SFRSYM    DATA     BYTE      P2DIR
      000000B8H.7 SFRSYM    DATA     BIT       EXEN2
      000000DAH   SFRSYM    DATA     BYTE      W2DAT
      00000097H   SFRSYM    DATA     BYTE      P2CON
      00000096H   SFRSYM    DATA     BYTE      P3DIR
      000000A4H   SFRSYM    DATA     BYTE      PWRDWN
      00000098H   SFRSYM    DATA     BYTE      S0CON
      0000008FH   SFRSYM    DATA     BYTE      P3CON
      000000B6H   SFRSYM    DATA     BYTE      RTC2CPT00
      000000D8H   SFRSYM    DATA     BYTE      ADCON
      000000ACH   SFRSYM    DATA     BYTE      RTC2CPT10
      000000ABH   SFRSYM    DATA     BYTE      RTC2CPT01
      000000C8H   SFRSYM    DATA     BYTE      T2CON
      00000092H   SFRSYM    DATA     BYTE      DPS
      000000F8H.5 SFRSYM    DATA     BIT       WEN
      000000F8H   SFRSYM    DATA     BYTE      FSR
      000000D4H   SFRSYM    DATA     BYTE      ADCDATH
      000000C9H   SFRSYM    DATA     BYTE      MPAGE
      000000B8H.2 SFRSYM    DATA     BIT       SPI
      000000F8H.1 SFRSYM    DATA     BIT       RDEND
      000000D5H   SFRSYM    DATA     BYTE      ADCDATL
      000000F8H.3 SFRSYM    DATA     BIT       INFEN
      000000F8H.7 SFRSYM    DATA     BIT       MCDIS
      000000C0H.5 SFRSYM    DATA     BIT       WUF
      000000C0H.4 SFRSYM    DATA     BIT       MISCF
      000000EFH   SFRSYM    DATA     BYTE      ARCON
      000000D0H.5 SFRSYM    DATA     BIT       F0
      000000F8H.6 SFRSYM    DATA     BIT       STP
      000000FEH   SFRSYM    DATA     BYTE      SPIMSTAT
      00000080H.3 SFRSYM    DATA     BIT       LEDVM
      000000E8H   SFRSYM    DATA     BYTE      RFCON
      000000D0H   SFRSYM    DATA     BYTE      PSW
      00000098H.2 SFRSYM    DATA     BIT       RB80
      000000C0H   SFRSYM    DATA     BYTE      IRCON
      000000E8H.1 SFRSYM    DATA     BIT       RFCSN
      000000E6H   SFRSYM    DATA     BYTE      SPIRSTAT
      000000B3H   SFRSYM    DATA     BYTE      RTC2CON

      010009ABH   BLOCK     CODE     ---       LVL=0
      ---         BLOCKEND  ---      ---       LVL=0

LX51 LINKER/LOCATER V4.66.62.0                                                        11/15/2016  20:29:03  PAGE 18


      01001164H   BLOCK     CODE     ---       LVL=0
      01001164H   LINE      CODE     ---       #34
      01001164H   LINE      CODE     ---       #35
      ---         BLOCKEND  ---      ---       LVL=0

      01000E18H   BLOCK     CODE     ---       LVL=0
      01000E18H   LINE      CODE     ---       #38
      01000E18H   LINE      CODE     ---       #39
      01000E22H   LINE      CODE     ---       #40
      01000E27H   LINE      CODE     ---       #41
      01000E31H   LINE      CODE     ---       #42
      01000E3DH   LINE      CODE     ---       #43
      ---         BLOCKEND  ---      ---       LVL=0

      01000F16H   BLOCK     CODE     ---       LVL=0
      01000F16H   LINE      CODE     ---       #44
      01000F16H   LINE      CODE     ---       #45
      01000F2BH   LINE      CODE     ---       #46
      01000F36H   LINE      CODE     ---       #47
      ---         BLOCKEND  ---      ---       LVL=0

      01000704H   BLOCK     CODE     ---       LVL=0
      00000022H   SYMBOL    DATA     ---       packet6
      01000704H   LINE      CODE     ---       #48
      0100070AH   LINE      CODE     ---       #49
      0100071CH   LINE      CODE     ---       #50
      01000729H   LINE      CODE     ---       #51
      01000739H   LINE      CODE     ---       #52
      01000743H   LINE      CODE     ---       #53
      0100074DH   LINE      CODE     ---       #54
      01000757H   LINE      CODE     ---       #55
      01000761H   LINE      CODE     ---       #56
      0100076BH   LINE      CODE     ---       #57
      01000775H   LINE      CODE     ---       #58
      0100077FH   LINE      CODE     ---       #59
      01000789H   LINE      CODE     ---       #60
      01000793H   LINE      CODE     ---       #61
      ---         BLOCKEND  ---      ---       LVL=0

      01000003H   BLOCK     CODE     ---       LVL=0
      00000002H   SYMBOL    DATA     INT       offset
      01000003H   LINE      CODE     ---       #63
      01000003H   LINE      CODE     ---       #64
      ---         BLOCKEND  ---      ---       LVL=0

      01001221H   BLOCK     CODE     ---       LVL=0
      00000002H   SYMBOL    DATA     INT       offset
      01001221H   LINE      CODE     ---       #66
      01001221H   LINE      CODE     ---       #67
      ---         BLOCKEND  ---      ---       LVL=0

      01001229H   BLOCK     CODE     ---       LVL=0
      00000002H   SYMBOL    DATA     INT       offset
      01001229H   LINE      CODE     ---       #69
      01001229H   LINE      CODE     ---       #70
      ---         BLOCKEND  ---      ---       LVL=0

      01001231H   BLOCK     CODE     ---       LVL=0
      00000002H   SYMBOL    DATA     INT       offset
      01001231H   LINE      CODE     ---       #72
      01001231H   LINE      CODE     ---       #73
      ---         BLOCKEND  ---      ---       LVL=0

      0100116FH   BLOCK     CODE     ---       LVL=0
      00000002H   SYMBOL    DATA     INT       offset
LX51 LINKER/LOCATER V4.66.62.0                                                        11/15/2016  20:29:03  PAGE 19


      0100116FH   LINE      CODE     ---       #75
      01001173H   LINE      CODE     ---       #76
      ---         BLOCKEND  ---      ---       LVL=0

      0100117AH   BLOCK     CODE     ---       LVL=0
      00000002H   SYMBOL    DATA     INT       offset
      0100117AH   LINE      CODE     ---       #78
      0100117EH   LINE      CODE     ---       #79
      ---         BLOCKEND  ---      ---       LVL=0

      010010C1H   BLOCK     CODE     ---       LVL=0
      010010C1H   LINE      CODE     ---       #82
      010010C1H   LINE      CODE     ---       #83
      010010CBH   LINE      CODE     ---       #84
      010010CEH   LINE      CODE     ---       #85
      ---         BLOCKEND  ---      ---       LVL=0

      010010CFH   BLOCK     CODE     ---       LVL=0
      010010CFH   LINE      CODE     ---       #86
      010010CFH   LINE      CODE     ---       #87
      010010D9H   LINE      CODE     ---       #88
      010010DCH   LINE      CODE     ---       #89
      ---         BLOCKEND  ---      ---       LVL=0

      010010DDH   BLOCK     CODE     ---       LVL=0
      010010DDH   LINE      CODE     ---       #90
      010010DDH   LINE      CODE     ---       #91
      010010E7H   LINE      CODE     ---       #92
      010010EAH   LINE      CODE     ---       #93
      ---         BLOCKEND  ---      ---       LVL=0

      010010EBH   BLOCK     CODE     ---       LVL=0
      010010EBH   LINE      CODE     ---       #94
      010010EBH   LINE      CODE     ---       #95
      010010F5H   LINE      CODE     ---       #96
      010010F8H   LINE      CODE     ---       #97
      ---         BLOCKEND  ---      ---       LVL=0

      010010F9H   BLOCK     CODE     ---       LVL=0
      010010F9H   LINE      CODE     ---       #98
      010010F9H   LINE      CODE     ---       #99
      01001103H   LINE      CODE     ---       #100
      01001106H   LINE      CODE     ---       #101
      ---         BLOCKEND  ---      ---       LVL=0

      01001107H   BLOCK     CODE     ---       LVL=0
      01001107H   LINE      CODE     ---       #102
      01001107H   LINE      CODE     ---       #103
      01001111H   LINE      CODE     ---       #104
      01001114H   LINE      CODE     ---       #105
      ---         BLOCKEND  ---      ---       LVL=0

      01000FE3H   BLOCK     CODE     ---       LVL=0
      00000007H   SYMBOL    DATA     BYTE      bank
      00000005H   SYMBOL    DATA     BYTE      prefetchEnabled
      00000003H   SYMBOL    DATA     BYTE      userBank
      01000FE3H   LINE      CODE     ---       #107
      01000FE3H   LINE      CODE     ---       #108
      01000FE6H   LINE      CODE     ---       #109
      01000FECH   LINE      CODE     ---       #110
      01000FF2H   LINE      CODE     ---       #111
      ---         BLOCKEND  ---      ---       LVL=0

      01001115H   BLOCK     CODE     ---       LVL=0
      01001115H   LINE      CODE     ---       #114
LX51 LINKER/LOCATER V4.66.62.0                                                        11/15/2016  20:29:03  PAGE 20


      01001115H   LINE      CODE     ---       #115
      0100111FH   LINE      CODE     ---       #116
      01001122H   LINE      CODE     ---       #117
      ---         BLOCKEND  ---      ---       LVL=0

      0100100FH   BLOCK     CODE     ---       LVL=0
      0100100FH   LINE      CODE     ---       #119
      0100100FH   LINE      CODE     ---       #120
      0100101CH   LINE      CODE     ---       #121
      01001021H   LINE      CODE     ---       #122
      ---         BLOCKEND  ---      ---       LVL=0

      01001185H   BLOCK     CODE     ---       LVL=0
      00000007H   SYMBOL    DATA     BYTE      enabled
      01001185H   LINE      CODE     ---       #124
      01001185H   LINE      CODE     ---       #125
      ---         BLOCKEND  ---      ---       LVL=0

      0100114CH   BLOCK     CODE     ---       LVL=0
      0100114CH   LINE      CODE     ---       #128
      0100114CH   LINE      CODE     ---       #129
      ---         BLOCKEND  ---      ---       LVL=0

      0100120FH   BLOCK     CODE     ---       LVL=0
      0100120FH   LINE      CODE     ---       #132
      0100120FH   LINE      CODE     ---       #133
      01001217H   LINE      CODE     ---       #134
      ---         BLOCKEND  ---      ---       LVL=0

      01000EA2H   BLOCK     CODE     ---       LVL=0
      00000072H   SYMBOL    DATA     ---       data_ptr
      00000007H   SYMBOL    DATA     BYTE      data_len
      01000EA2H   LINE      CODE     ---       #136
      01000EAAH   LINE      CODE     ---       #137
      01000EB0H   LINE      CODE     ---       #138
      01000EC0H   LINE      CODE     ---       #139
      01000EC0H   LINE      CODE     ---       #140
      01000ECAH   LINE      CODE     ---       #141
      01000ECAH   LINE      CODE     ---       #142
      ---         BLOCKEND  ---      ---       LVL=0

      01001218H   BLOCK     CODE     ---       LVL=0
      00000003H   SYMBOL    DATA     BYTE      address
      01001218H   LINE      CODE     ---       #143
      0100121AH   LINE      CODE     ---       #144
      ---         BLOCKEND  ---      ---       LVL=0

      010002CBH   BLOCK     CODE     ---       LVL=0
      0000003DH   SYMBOL    DATA     ---       data_ptr
      00000040H   SYMBOL    DATA     WORD      dataSize
      00000042H   SYMBOL    DATA     BYTE      bank
      00000043H   SYMBOL    DATA     BYTE      address
      00000044H   SYMBOL    DATA     BYTE      verify
      00000045H   SYMBOL    DATA     BYTE      useProgMem
      010002CBH   LINE      CODE     ---       #153
      010002D5H   LINE      CODE     ---       #154
      010002D5H   LINE      CODE     ---       #155
      010002D8H   LINE      CODE     ---       #156
      010002E7H   LINE      CODE     ---       #157
      010002F6H   LINE      CODE     ---       #158
      01000303H   LINE      CODE     ---       #160
      01000306H   LINE      CODE     ---       #163
      01000320H   LINE      CODE     ---       #166
      01000338H   LINE      CODE     ---       #168
      0100033CH   LINE      CODE     ---       #170
LX51 LINKER/LOCATER V4.66.62.0                                                        11/15/2016  20:29:03  PAGE 21


      0100036AH   LINE      CODE     ---       #171
      0100036AH   LINE      CODE     ---       #173
      01000373H   LINE      CODE     ---       #174
      01000373H   LINE      CODE     ---       #176
      01000385H   LINE      CODE     ---       #179
      0100038FH   LINE      CODE     ---       #180
      0100038FH   LINE      CODE     ---       #181
      01000392H   LINE      CODE     ---       #182
      010003A4H   LINE      CODE     ---       #183
      010003BAH   LINE      CODE     ---       #184
      010003C1H   LINE      CODE     ---       #185
      010003CCH   LINE      CODE     ---       #186
      010003CFH   LINE      CODE     ---       #187
      010003CFH   LINE      CODE     ---       #188
      010003CFH   LINE      CODE     ---       #191
      010003DAH   LINE      CODE     ---       #194
      010003E0H   LINE      CODE     ---       #197
      010003E8H   LINE      CODE     ---       #198
      010003EEH   LINE      CODE     ---       #199
      010003F6H   LINE      CODE     ---       #200
      010003FBH   LINE      CODE     ---       #201
      010003FBH   LINE      CODE     ---       #202
      010003FEH   LINE      CODE     ---       #203
      01000409H   LINE      CODE     ---       #204
      01000414H   LINE      CODE     ---       #205
      01000416H   LINE      CODE     ---       #206
      ---         BLOCKEND  ---      ---       LVL=0

      010010B1H   BLOCK     CODE     ---       LVL=0
      010010B1H   LINE      CODE     ---       #25
      010010B3H   LINE      CODE     ---       #27
      010010B3H   LINE      CODE     ---       #28
      010010B3H   LINE      CODE     ---       #29
      010010BBH   LINE      CODE     ---       #30
      010010BBH   LINE      CODE     ---       #31
      010010BEH   LINE      CODE     ---       #32
      010010BEH   LINE      CODE     ---       #33
      ---         BLOCKEND  ---      ---       LVL=0

      010011DDH   BLOCK     CODE     ---       LVL=0
      010011DDH   LINE      CODE     ---       #35
      010011DDH   LINE      CODE     ---       #36
      010011DDH   LINE      CODE     ---       #37
      010011DDH   LINE      CODE     ---       #38
      010011DDH   LINE      CODE     ---       #39
      010011E0H   LINE      CODE     ---       #40
      010011E2H   LINE      CODE     ---       #41
      010011E4H   LINE      CODE     ---       #42
      010011E6H   LINE      CODE     ---       #43
      ---         BLOCKEND  ---      ---       LVL=0

      010011E7H   BLOCK     CODE     ---       LVL=0
      010011E7H   LINE      CODE     ---       #45
      010011E7H   LINE      CODE     ---       #46
      010011E7H   LINE      CODE     ---       #47
      010011E7H   LINE      CODE     ---       #48
      010011E7H   LINE      CODE     ---       #49
      010011EAH   LINE      CODE     ---       #50
      010011ECH   LINE      CODE     ---       #51
      010011EEH   LINE      CODE     ---       #52
      010011F0H   LINE      CODE     ---       #53
      ---         BLOCKEND  ---      ---       LVL=0

      010011F1H   BLOCK     CODE     ---       LVL=0
      00000007H   SYMBOL    DATA     BYTE      value
LX51 LINKER/LOCATER V4.66.62.0                                                        11/15/2016  20:29:03  PAGE 22


      010011F1H   LINE      CODE     ---       #32
      010011F1H   LINE      CODE     ---       #33
      010011F1H   LINE      CODE     ---       #34
      010011F3H   LINE      CODE     ---       #36
      010011F8H   LINE      CODE     ---       #38
      010011FAH   LINE      CODE     ---       #39
      ---         BLOCKEND  ---      ---       LVL=0

      01001022H   BLOCK     CODE     ---       LVL=0
      00000007H   SYMBOL    DATA     BYTE      reg
      00000006H   SYMBOL    DATA     BYTE      value
      01001024H   BLOCK     CODE     NEAR LAB  LVL=1
      00000005H   SYMBOL    DATA     BYTE      status
      ---         BLOCKEND  ---      ---       LVL=1
      01001022H   LINE      CODE     ---       #41
      01001024H   LINE      CODE     ---       #42
      01001024H   LINE      CODE     ---       #45
      01001026H   LINE      CODE     ---       #46
      0100102BH   LINE      CODE     ---       #47
      01001030H   LINE      CODE     ---       #48
      01001032H   LINE      CODE     ---       #50
      01001034H   LINE      CODE     ---       #51
      ---         BLOCKEND  ---      ---       LVL=0

      0100113FH   BLOCK     CODE     ---       LVL=0
      00000007H   SYMBOL    DATA     BYTE      reg
      0100113FH   BLOCK     CODE     NEAR LAB  LVL=1
      00000007H   SYMBOL    DATA     BYTE      reg_val
      ---         BLOCKEND  ---      ---       LVL=1
      0100113FH   LINE      CODE     ---       #53
      0100113FH   LINE      CODE     ---       #54
      0100113FH   LINE      CODE     ---       #57
      01001141H   LINE      CODE     ---       #58
      01001144H   LINE      CODE     ---       #59
      01001149H   LINE      CODE     ---       #60
      0100114BH   LINE      CODE     ---       #62
      0100114BH   LINE      CODE     ---       #63
      ---         BLOCKEND  ---      ---       LVL=0

      01000E77H   BLOCK     CODE     ---       LVL=0
      00000007H   SYMBOL    DATA     BYTE      reg
      00000039H   SYMBOL    DATA     ---       pBuf
      0000003CH   SYMBOL    DATA     BYTE      bytes
      01000E7DH   BLOCK     CODE     NEAR LAB  LVL=1
      00000006H   SYMBOL    DATA     BYTE      status
      00000005H   SYMBOL    DATA     BYTE      byte_ctr
      ---         BLOCKEND  ---      ---       LVL=1
      01000E77H   LINE      CODE     ---       #65
      01000E7DH   LINE      CODE     ---       #66
      01000E7DH   LINE      CODE     ---       #69
      01000E7DH   LINE      CODE     ---       #70
      01000E7DH   LINE      CODE     ---       #72
      01000E86H   LINE      CODE     ---       #73
      01000E9DH   LINE      CODE     ---       #75
      01000E9FH   LINE      CODE     ---       #77
      01000EA1H   LINE      CODE     ---       #78
      ---         BLOCKEND  ---      ---       LVL=0

      01000F58H   BLOCK     CODE     ---       LVL=0
      00000007H   SYMBOL    DATA     BYTE      reg
      0000002AH   SYMBOL    DATA     ---       pBuf
      0000002DH   SYMBOL    DATA     BYTE      bytes
      01000F5EH   BLOCK     CODE     NEAR LAB  LVL=1
      00000006H   SYMBOL    DATA     BYTE      status
      00000005H   SYMBOL    DATA     BYTE      byte_ctr
LX51 LINKER/LOCATER V4.66.62.0                                                        11/15/2016  20:29:03  PAGE 23


      ---         BLOCKEND  ---      ---       LVL=1
      01000F58H   LINE      CODE     ---       #80
      01000F5EH   LINE      CODE     ---       #81
      01000F5EH   LINE      CODE     ---       #84
      01000F5EH   LINE      CODE     ---       #85
      01000F5EH   LINE      CODE     ---       #86
      01000F67H   LINE      CODE     ---       #87
      01000F72H   LINE      CODE     ---       #88
      01000F74H   LINE      CODE     ---       #89
      01000F76H   LINE      CODE     ---       #90
      ---         BLOCKEND  ---      ---       LVL=0

      0100107EH   BLOCK     CODE     ---       LVL=0
      0100107EH   LINE      CODE     ---       #93
      0100107EH   LINE      CODE     ---       #94
      0100107EH   LINE      CODE     ---       #95
      01001081H   LINE      CODE     ---       #96
      01001083H   LINE      CODE     ---       #97
      01001085H   LINE      CODE     ---       #98
      0100108CH   LINE      CODE     ---       #99
      0100108EH   LINE      CODE     ---       #100
      ---         BLOCKEND  ---      ---       LVL=0

      01000E4BH   BLOCK     CODE     ---       LVL=0
      00000027H   SYMBOL    DATA     INT       payloadLength
      01000E4BH   LINE      CODE     ---       #102
      01000E4FH   LINE      CODE     ---       #103
      01000E4FH   LINE      CODE     ---       #104
      01000E51H   LINE      CODE     ---       #105
      01000E58H   LINE      CODE     ---       #106
      01000E60H   LINE      CODE     ---       #107
      01000E6EH   LINE      CODE     ---       #109
      01000E70H   LINE      CODE     ---       #110
      01000E76H   LINE      CODE     ---       #111
      ---         BLOCKEND  ---      ---       LVL=0

      010008B2H   BLOCK     CODE     ---       LVL=0
      010008B2H   LINE      CODE     ---       #114
      010008CBH   LINE      CODE     ---       #116
      010008D2H   LINE      CODE     ---       #117
      010008D5H   LINE      CODE     ---       #118
      010008D5H   LINE      CODE     ---       #119
      010008E3H   LINE      CODE     ---       #120
      010008EAH   LINE      CODE     ---       #121
      010008ECH   LINE      CODE     ---       #122
      010008F3H   LINE      CODE     ---       #123
      010008FAH   LINE      CODE     ---       #124
      010008FAH   LINE      CODE     ---       #125
      010008FDH   LINE      CODE     ---       #126
      01000904H   LINE      CODE     ---       #127
      01000906H   LINE      CODE     ---       #128
      01000906H   LINE      CODE     ---       #129
      01000906H   LINE      CODE     ---       #130
      01000909H   LINE      CODE     ---       #131
      01000910H   LINE      CODE     ---       #132
      01000913H   LINE      CODE     ---       #133
      0100091AH   LINE      CODE     ---       #134
      01000921H   LINE      CODE     ---       #135
      ---         BLOCKEND  ---      ---       LVL=0

      01000C7AH   BLOCK     CODE     ---       LVL=0
      01000C7AH   LINE      CODE     ---       #138
      01000C7AH   LINE      CODE     ---       #139
      01000C7AH   LINE      CODE     ---       #140
      01000C7CH   LINE      CODE     ---       #141
LX51 LINKER/LOCATER V4.66.62.0                                                        11/15/2016  20:29:03  PAGE 24


      01000C7EH   LINE      CODE     ---       #143
      01000C86H   LINE      CODE     ---       #144
      01000C8EH   LINE      CODE     ---       #145
      01000C95H   LINE      CODE     ---       #147
      01000C9CH   LINE      CODE     ---       #148
      01000CA3H   LINE      CODE     ---       #149
      01000CAAH   LINE      CODE     ---       #150
      01000CB1H   LINE      CODE     ---       #152
      01000CB8H   LINE      CODE     ---       #153
      ---         BLOCKEND  ---      ---       LVL=0

      01001158H   BLOCK     CODE     ---       LVL=0
      01001158H   LINE      CODE     ---       #157
      01001158H   LINE      CODE     ---       #159
      0100115AH   LINE      CODE     ---       #160
      0100115CH   LINE      CODE     ---       #161
      0100115EH   LINE      CODE     ---       #162
      01001161H   LINE      CODE     ---       #163
      ---         BLOCKEND  ---      ---       LVL=0

      01000FAFH   BLOCK     CODE     ---       LVL=0
      01000FAFH   LINE      CODE     ---       #8
      01000FAFH   LINE      CODE     ---       #9
      01000FB1H   LINE      CODE     ---       #10
      01000FB3H   LINE      CODE     ---       #11
      01000FB5H   LINE      CODE     ---       #12
      01000FB7H   LINE      CODE     ---       #13
      01000FBAH   LINE      CODE     ---       #14
      01000FBDH   LINE      CODE     ---       #16
      01000FC0H   LINE      CODE     ---       #17
      01000FC3H   LINE      CODE     ---       #18
      01000FC5H   LINE      CODE     ---       #19
      01000FC8H   LINE      CODE     ---       #20
      ---         BLOCKEND  ---      ---       LVL=0

      0100108FH   BLOCK     CODE     VOID      LVL=0
      ---         BLOCKEND  ---      ---       LVL=0

      01001098H   BLOCK     CODE     ---       LVL=0
      00000007H   SYMBOL    DATA     BYTE      x
      01001098H   LINE      CODE     ---       #22
      01001098H   LINE      CODE     ---       #23
      0100109BH   LINE      CODE     ---       #24
      0100109DH   LINE      CODE     ---       #25
      0100109FH   LINE      CODE     ---       #26
      ---         BLOCKEND  ---      ---       LVL=0

      01000F77H   BLOCK     CODE     ---       LVL=0
      00000075H   SYMBOL    DATA     ---       s
      01000F77H   LINE      CODE     ---       #29
      01000F7DH   LINE      CODE     ---       #30
      01000F88H   LINE      CODE     ---       #31
      01000F92H   LINE      CODE     ---       #32
      ---         BLOCKEND  ---      ---       LVL=0

      01000B33H   BLOCK     CODE     ---       LVL=0
      00000007H   SYMBOL    DATA     BYTE      packet_type
      00000023H   SYMBOL    DATA     ---       data_to_send
      00000026H   SYMBOL    DATA     BYTE      data_len
      01000B39H   BLOCK     CODE     NEAR LAB  LVL=1
      00000006H   SYMBOL    DATA     WORD      i
      ---         BLOCKEND  ---      ---       LVL=1
      01000B33H   LINE      CODE     ---       #34
      01000B39H   LINE      CODE     ---       #36
      01000B3EH   LINE      CODE     ---       #37
LX51 LINKER/LOCATER V4.66.62.0                                                        11/15/2016  20:29:03  PAGE 25


      01000B42H   LINE      CODE     ---       #38
      01000B54H   LINE      CODE     ---       #39
      01000B74H   LINE      CODE     ---       #40
      01000B7BH   LINE      CODE     ---       #41
      01000B86H   LINE      CODE     ---       #42
      ---         BLOCKEND  ---      ---       LVL=0

      01000DAEH   BLOCK     CODE     ---       LVL=0
      00000006H   SYMBOL    DATA     BYTE      packet_type
      00000061H   SYMBOL    DATA     ---       data_to_send
      00000064H   SYMBOL    DATA     BYTE      data_len
      01000DB4H   BLOCK     CODE     NEAR LAB  LVL=1
      00000004H   SYMBOL    DATA     WORD      i
      ---         BLOCKEND  ---      ---       LVL=1
      01000DAEH   LINE      CODE     ---       #47
      01000DB4H   LINE      CODE     ---       #49
      01000DB4H   LINE      CODE     ---       #50
      01000DB7H   LINE      CODE     ---       #51
      01000DBCH   LINE      CODE     ---       #52
      01000DCFH   LINE      CODE     ---       #53
      01000DD5H   LINE      CODE     ---       #54
      01000DDEH   LINE      CODE     ---       #55
      ---         BLOCKEND  ---      ---       LVL=0

      01000DE3H   BLOCK     CODE     ---       LVL=0
      00000006H   SYMBOL    DATA     BYTE      packet_type
      00000066H   SYMBOL    DATA     ---       data_to_send
      00000069H   SYMBOL    DATA     BYTE      data_len
      01000DE9H   BLOCK     CODE     NEAR LAB  LVL=1
      00000004H   SYMBOL    DATA     WORD      i
      ---         BLOCKEND  ---      ---       LVL=1
      01000DE3H   LINE      CODE     ---       #59
      01000DE9H   LINE      CODE     ---       #61
      01000DE9H   LINE      CODE     ---       #62
      01000DECH   LINE      CODE     ---       #63
      01000DF3H   LINE      CODE     ---       #64
      01000DF8H   LINE      CODE     ---       #65
      01000E04H   LINE      CODE     ---       #66
      01000E0AH   LINE      CODE     ---       #67
      01000E13H   LINE      CODE     ---       #68
      ---         BLOCKEND  ---      ---       LVL=0

      01001048H   BLOCK     CODE     ---       LVL=0
      01001048H   LINE      CODE     ---       #36
      01001048H   LINE      CODE     ---       #38
      0100104BH   LINE      CODE     ---       #39
      0100104EH   LINE      CODE     ---       #40
      01001051H   LINE      CODE     ---       #41
      01001054H   LINE      CODE     ---       #43
      01001057H   LINE      CODE     ---       #44
      01001059H   LINE      CODE     ---       #45
      ---         BLOCKEND  ---      ---       LVL=0

      01000829H   BLOCK     CODE     ---       LVL=0
      01000829H   LINE      CODE     ---       #46
      01000829H   LINE      CODE     ---       #47
      0100082CH   LINE      CODE     ---       #48
      0100082FH   LINE      CODE     ---       #49
      01000834H   LINE      CODE     ---       #50
      01000839H   LINE      CODE     ---       #51
      01000845H   LINE      CODE     ---       #52
      01000848H   LINE      CODE     ---       #53
      0100084BH   LINE      CODE     ---       #54
      01000857H   LINE      CODE     ---       #55
      0100085FH   LINE      CODE     ---       #56
LX51 LINKER/LOCATER V4.66.62.0                                                        11/15/2016  20:29:03  PAGE 26


      01000866H   LINE      CODE     ---       #57
      01000868H   LINE      CODE     ---       #58
      0100087BH   LINE      CODE     ---       #59
      0100087BH   LINE      CODE     ---       #60
      01000890H   LINE      CODE     ---       #61
      010008A5H   LINE      CODE     ---       #62
      ---         BLOCKEND  ---      ---       LVL=0

      01000425H   BLOCK     CODE     ---       LVL=0
      01000425H   LINE      CODE     ---       #69
      01000425H   LINE      CODE     ---       #70
      01000428H   LINE      CODE     ---       #71
      01000428H   LINE      CODE     ---       #72
      0100042BH   LINE      CODE     ---       #73
      01000432H   LINE      CODE     ---       #74
      0100044DH   LINE      CODE     ---       #75
      01000454H   LINE      CODE     ---       #76
      0100045DH   LINE      CODE     ---       #77
      0100046EH   LINE      CODE     ---       #78
      01000475H   LINE      CODE     ---       #79
      01000477H   LINE      CODE     ---       #80
      01000481H   LINE      CODE     ---       #81
      01000481H   LINE      CODE     ---       #82
      01000484H   LINE      CODE     ---       #83
      01000487H   LINE      CODE     ---       #84
      0100048AH   LINE      CODE     ---       #85
      0100048AH   LINE      CODE     ---       #86
      0100048DH   LINE      CODE     ---       #87
      01000494H   LINE      CODE     ---       #88
      0100049DH   LINE      CODE     ---       #89
      010004A6H   LINE      CODE     ---       #90
      010004B1H   LINE      CODE     ---       #91
      010004B4H   LINE      CODE     ---       #92
      010004BBH   LINE      CODE     ---       #93
      010004BEH   LINE      CODE     ---       #94
      010004C5H   LINE      CODE     ---       #95
      010004C5H   LINE      CODE     ---       #96
      010004C8H   LINE      CODE     ---       #98
      010004D0H   LINE      CODE     ---       #99
      010004D9H   LINE      CODE     ---       #100
      010004D9H   LINE      CODE     ---       #101
      010004E5H   LINE      CODE     ---       #102
      010004E8H   LINE      CODE     ---       #103
      010004EAH   LINE      CODE     ---       #104
      010004EAH   LINE      CODE     ---       #105
      010004EDH   LINE      CODE     ---       #106
      010004F8H   LINE      CODE     ---       #107
      010004FBH   LINE      CODE     ---       #108
      010004FBH   LINE      CODE     ---       #109
      010004FBH   LINE      CODE     ---       #110
      010004FBH   LINE      CODE     ---       #111
      010004FEH   LINE      CODE     ---       #112
      01000500H   LINE      CODE     ---       #113
      01000500H   LINE      CODE     ---       #115
      01000510H   LINE      CODE     ---       #116
      01000519H   LINE      CODE     ---       #117
      01000527H   LINE      CODE     ---       #118
      0100052DH   LINE      CODE     ---       #119
      0100052DH   LINE      CODE     ---       #120
      01000530H   LINE      CODE     ---       #121
      ---         BLOCKEND  ---      ---       LVL=0

      01000F93H   BLOCK     CODE     ---       LVL=0
      01000F93H   LINE      CODE     ---       #122
      01000F93H   LINE      CODE     ---       #123
LX51 LINKER/LOCATER V4.66.62.0                                                        11/15/2016  20:29:03  PAGE 27


      01000F93H   LINE      CODE     ---       #124
      01000F93H   LINE      CODE     ---       #125
      01000F93H   LINE      CODE     ---       #126
      01000F96H   LINE      CODE     ---       #127
      01000F96H   LINE      CODE     ---       #128
      01000F96H   LINE      CODE     ---       #129
      01000F96H   LINE      CODE     ---       #130
      01000F99H   LINE      CODE     ---       #131
      01000F9BH   LINE      CODE     ---       #132
      ---         BLOCKEND  ---      ---       LVL=0

      01000D01H   BLOCK     CODE     ---       LVL=0
      01000D01H   LINE      CODE     ---       #135
      01000D1EH   LINE      CODE     ---       #136
      01000D21H   LINE      CODE     ---       #137
      ---         BLOCKEND  ---      ---       LVL=0

      ---         MODULE    ---      ---       HAL_W2_ISR
      0000001FH   PUBLIC    DATA     BYTE      w2_status
      0000001EH   PUBLIC    DATA     BYTE      data_ready
      00000024H   PUBLIC    DATA     BYTE      ?_i2c_mpu_writeWords?BYTE
      01000B89H   PUBLIC    CODE     ---       _i2c_mpu_writeWords
      01001035H   PUBLIC    CODE     ---       _i2c_mpu_writeWord
      00000022H   PUBLIC    DATA     BYTE      ?_i2c_mpu_readBits?BYTE
      01000ADBH   PUBLIC    CODE     ---       _i2c_mpu_readBits
      0000004DH   PUBLIC    DATA     BYTE      ?_i2c_mpu_readBit?BYTE
      01000EF2H   PUBLIC    CODE     ---       _i2c_mpu_readBit
      00000022H   PUBLIC    DATA     BYTE      ?_i2c_mpu_writeBits?BYTE
      01000A1BH   PUBLIC    CODE     ---       _i2c_mpu_writeBits
      00000022H   PUBLIC    DATA     BYTE      ?_i2c_mpu_writeBit?BYTE
      01000BDFH   PUBLIC    CODE     ---       _i2c_mpu_writeBit
      0000002EH   PUBLIC    DATA     BYTE      ?_i2c_mpu_readBytes?BYTE
      01000A7EH   PUBLIC    CODE     ---       _i2c_mpu_readBytes
      0100106CH   PUBLIC    CODE     ---       _i2c_mpu_readByte
      0000002AH   PUBLIC    DATA     BYTE      ?_i2c_mpu_writeBytes?BYTE
      01000D3CH   PUBLIC    CODE     ---       _i2c_mpu_writeBytes
      010010A0H   PUBLIC    CODE     ---       _i2c_mpu_writeByte
      01000938H   PUBLIC    CODE     ---       hal_w2_soft_reset
      0000005AH   PUBLIC    DATA     BYTE      ?_hal_w2_read?BYTE
      01000CBFH   PUBLIC    CODE     ---       _hal_w2_read
      00000054H   PUBLIC    DATA     BYTE      ?_hal_w2_write?BYTE
      01000D76H   PUBLIC    CODE     ---       _hal_w2_write
      0100105AH   PUBLIC    CODE     ---       _hal_w2_init_transfer
      01000ECBH   PUBLIC    CODE     ---       hal_w2_wait_data_ready
      01000F37H   PUBLIC    CODE     ---       _hal_w2_configure_master
      010011D2H   PUBLIC    CODE     ---       _hal_w2_all_irq_enable
      010011C7H   PUBLIC    CODE     ---       _hal_w2_enable
      010011BCH   PUBLIC    CODE     ---       _hal_w2_set_op_mode
      01001123H   PUBLIC    CODE     ---       _hal_w2_set_clk_freq
      01001239H   PUBLIC    CODE     ---       _hal_w2_set_slave_address
      010011B1H   PUBLIC    CODE     ---       _hal_w2_irq_adr_match_enable
      010011A6H   PUBLIC    CODE     ---       _hal_w2_irq_stop_cond_enable
      0100119BH   PUBLIC    CODE     ---       _hal_w2_alter_clock
      01001190H   PUBLIC    CODE     ---       _hal_w2_respond_to_gen_adr
      01001205H   PUBLIC    CODE     ---       I2C_IRQ_handler
      010011FBH   PUBLIC    CODE     ---       hal_w2_wait_data_ready_ISR
      00000098H.3 SFRSYM    DATA     BIT       TB80
      000000BEH   SFRSYM    DATA     BYTE      SPISSTAT
      000000C8H   SFRSYM    DATA     BIT       T2I0
      000000C3H   SFRSYM    DATA     BYTE      CCH1
      00000080H   SFRSYM    DATA     BYTE      P0
      000000C8H.1 SFRSYM    DATA     BIT       T2I1
      000000DFH   SFRSYM    DATA     BYTE      CCPDATO
      000000C5H   SFRSYM    DATA     BYTE      CCH2
      00000090H   SFRSYM    DATA     BYTE      P1
LX51 LINKER/LOCATER V4.66.62.0                                                        11/15/2016  20:29:03  PAGE 28


      000000C7H   SFRSYM    DATA     BYTE      CCH3
      000000A0H   SFRSYM    DATA     BYTE      P2
      00000098H.5 SFRSYM    DATA     BIT       SM20
      000000B0H   SFRSYM    DATA     BYTE      P3
      000000D0H.6 SFRSYM    DATA     BIT       AC
      000000C2H   SFRSYM    DATA     BYTE      CCL1
      000000C4H   SFRSYM    DATA     BYTE      CCL2
      000000D8H.7 SFRSYM    DATA     BIT       BD
      000000B8H   SFRSYM    DATA     BIT       RFSPI
      000000A8H.7 SFRSYM    DATA     BIT       EA
      000000CCH   SFRSYM    DATA     WORD      T2
      000000C6H   SFRSYM    DATA     BYTE      CCL3
      000000B7H   SFRSYM    DATA     BYTE      SPISRDSZ
      000000C8H.3 SFRSYM    DATA     BIT       T2R0
      000000C8H.4 SFRSYM    DATA     BIT       T2R1
      000000A8H   SFRSYM    DATA     BYTE      IEN0
      000000B8H   SFRSYM    DATA     BYTE      IEN1
      000000A5H   SFRSYM    DATA     BYTE      WUCON
      00000085H   SFRSYM    DATA     BYTE      DPH1
      000000DBH   SFRSYM    DATA     BYTE      COMPCON
      000000A3H   SFRSYM    DATA     BYTE      CLKCTRL
      00000084H   SFRSYM    DATA     BYTE      DPL1
      000000C8H.5 SFRSYM    DATA     BIT       I2FR
      000000B8H.3 SFRSYM    DATA     BIT       WUPIN
      000000C8H.6 SFRSYM    DATA     BIT       I3FR
      000000FFH   SFRSYM    DATA     BYTE      SPIMDAT
      000000C0H.7 SFRSYM    DATA     BIT       EXF2
      00000098H.4 SFRSYM    DATA     BIT       REN0
      000000C8H.2 SFRSYM    DATA     BIT       T2CM
      000000B8H.1 SFRSYM    DATA     BIT       RF
      000000B8H.5 SFRSYM    DATA     BIT       WUIRQ
      000000E7H   SFRSYM    DATA     BYTE      SPIRDAT
      000000C1H   SFRSYM    DATA     BYTE      CCEN
      000000E2H   SFRSYM    DATA     BYTE      W2CON0
      000000BFH   SFRSYM    DATA     BYTE      SPISDAT
      000000D0H.7 SFRSYM    DATA     BIT       CY
      000000E1H   SFRSYM    DATA     BYTE      W2CON1
      000000FBH   SFRSYM    DATA     BYTE      FDCR
      000000E8H   SFRSYM    DATA     BIT       RFCE
      000000CBH   SFRSYM    DATA     BYTE      CRCH
      00000081H   SFRSYM    DATA     BYTE      SP
      000000D0H.2 SFRSYM    DATA     BIT       OV
      000000CAH   SFRSYM    DATA     BYTE      CRCL
      000000ADH   SFRSYM    DATA     BYTE      CLKLFCTRL
      000000B1H   SFRSYM    DATA     BYTE      RSTREAS
      000000C8H.7 SFRSYM    DATA     BIT       T2PS
      000000F9H   SFRSYM    DATA     BYTE      FPCR
      000000B8H.4 SFRSYM    DATA     BIT       MISC
      000000A1H   SFRSYM    DATA     BYTE      PWMDC0
      000000B4H   SFRSYM    DATA     BYTE      RTC2CMP0
      000000A2H   SFRSYM    DATA     BYTE      PWMDC1
      000000B5H   SFRSYM    DATA     BYTE      RTC2CMP1
      00000080H   SFRSYM    DATA     BIT       P00
      000000BAH   SFRSYM    DATA     BYTE      S0RELH
      00000090H   SFRSYM    DATA     BIT       P10
      00000080H.1 SFRSYM    DATA     BIT       P01
      00000087H   SFRSYM    DATA     BYTE      PCON
      000000A0H   SFRSYM    DATA     BIT       P20
      00000090H.1 SFRSYM    DATA     BIT       P11
      00000080H.2 SFRSYM    DATA     BIT       P02
      000000B0H   SFRSYM    DATA     BIT       P30
      000000A0H.1 SFRSYM    DATA     BIT       P21
      00000090H.2 SFRSYM    DATA     BIT       P12
      00000080H.3 SFRSYM    DATA     BIT       P03
      000000C0H.2 SFRSYM    DATA     BIT       SPIF
LX51 LINKER/LOCATER V4.66.62.0                                                        11/15/2016  20:29:03  PAGE 29


      000000F8H.2 SFRSYM    DATA     BIT       RDIS
      000000B0H.1 SFRSYM    DATA     BIT       P31
      000000A0H.2 SFRSYM    DATA     BIT       P22
      00000090H.3 SFRSYM    DATA     BIT       P13
      00000080H.4 SFRSYM    DATA     BIT       P04
      000000AAH   SFRSYM    DATA     BYTE      S0RELL
      000000B0H.2 SFRSYM    DATA     BIT       P32
      000000A0H.3 SFRSYM    DATA     BIT       P23
      00000090H.4 SFRSYM    DATA     BIT       P14
      00000080H.5 SFRSYM    DATA     BIT       P05
      000000D9H   SFRSYM    DATA     BYTE      W2SADR
      00000089H   SFRSYM    DATA     BYTE      TMOD
      00000088H   SFRSYM    DATA     BYTE      TCON
      000000B0H.3 SFRSYM    DATA     BIT       P33
      000000A0H.4 SFRSYM    DATA     BIT       P24
      00000090H.5 SFRSYM    DATA     BIT       P15
      00000080H.6 SFRSYM    DATA     BIT       P06
      000000B0H.4 SFRSYM    DATA     BIT       P34
      000000A0H.5 SFRSYM    DATA     BIT       P25
      00000090H.6 SFRSYM    DATA     BIT       P16
      00000080H.7 SFRSYM    DATA     BIT       P07
      000000C2H   SFRSYM    DATA     WORD      CC1
      000000B0H.5 SFRSYM    DATA     BIT       P35
      000000A0H.6 SFRSYM    DATA     BIT       P26
      00000090H.7 SFRSYM    DATA     BIT       P17
      000000C4H   SFRSYM    DATA     WORD      CC2
      000000B0H.6 SFRSYM    DATA     BIT       P36
      000000A0H.7 SFRSYM    DATA     BIT       P27
      000000C6H   SFRSYM    DATA     WORD      CC3
      000000B0H.7 SFRSYM    DATA     BIT       P37
      000000E8H.2 SFRSYM    DATA     BIT       RFCKEN
      000000F8H   SFRSYM    DATA     BIT       WPEN
      000000DDH   SFRSYM    DATA     BYTE      CCPDATIA
      000000DEH   SFRSYM    DATA     BYTE      CCPDATIB
      00000088H.1 SFRSYM    DATA     BIT       IE0
      000000F8H.4 SFRSYM    DATA     BIT       RDYN
      00000088H.3 SFRSYM    DATA     BIT       IE1
      000000CFH   SFRSYM    DATA     BYTE      WUOPC0
      000000F0H   SFRSYM    DATA     BYTE      B
      000000E9H   SFRSYM    DATA     BYTE      MD0
      000000CEH   SFRSYM    DATA     BYTE      WUOPC1
      000000A7H   SFRSYM    DATA     BYTE      MEMCON
      000000EAH   SFRSYM    DATA     BYTE      MD1
      000000D7H   SFRSYM    DATA     BYTE      RNGDAT
      000000EBH   SFRSYM    DATA     BYTE      MD2
      000000ECH   SFRSYM    DATA     BYTE      MD3
      000000EDH   SFRSYM    DATA     BYTE      MD4
      000000AFH   SFRSYM    DATA     BYTE      WDSV
      000000EEH   SFRSYM    DATA     BYTE      MD5
      000000E0H   SFRSYM    DATA     BYTE      ACC
      000000DCH   SFRSYM    DATA     BYTE      POFCON
      000000A8H.4 SFRSYM    DATA     BIT       ES0
      000000A8H.1 SFRSYM    DATA     BIT       ET0
      000000A9H   SFRSYM    DATA     BYTE      IP0
      000000A8H.3 SFRSYM    DATA     BIT       ET1
      00000088H.5 SFRSYM    DATA     BIT       TF0
      000000B9H   SFRSYM    DATA     BYTE      IP1
      000000A8H.5 SFRSYM    DATA     BIT       ET2
      00000098H   SFRSYM    DATA     BIT       RI0
      00000088H.7 SFRSYM    DATA     BIT       TF1
      000000C0H   SFRSYM    DATA     BIT       RFSPIF
      000000C0H.6 SFRSYM    DATA     BIT       TF2
      000000FCH   SFRSYM    DATA     BYTE      SPIMCON0
      000000D6H   SFRSYM    DATA     BYTE      RNGCTL
      0000008CH   SFRSYM    DATA     BYTE      TH0
LX51 LINKER/LOCATER V4.66.62.0                                                        11/15/2016  20:29:03  PAGE 30


      000000A8H   SFRSYM    DATA     BIT       EX0
      00000098H.1 SFRSYM    DATA     BIT       TI0
      00000088H   SFRSYM    DATA     BIT       IT0
      000000FDH   SFRSYM    DATA     BYTE      SPIMCON1
      0000008DH   SFRSYM    DATA     BYTE      TH1
      000000A8H.2 SFRSYM    DATA     BIT       EX1
      00000088H.2 SFRSYM    DATA     BIT       IT1
      000000CDH   SFRSYM    DATA     BYTE      TH2
      000000AEH   SFRSYM    DATA     BYTE      OPMCON
      000000D0H   SFRSYM    DATA     BIT       P
      00000098H.7 SFRSYM    DATA     BIT       SM0
      0000008AH   SFRSYM    DATA     BYTE      TL0
      00000098H.6 SFRSYM    DATA     BIT       SM1
      000000E4H   SFRSYM    DATA     BYTE      SPIRCON0
      0000008BH   SFRSYM    DATA     BYTE      TL1
      000000E5H   SFRSYM    DATA     BYTE      SPIRCON1
      000000CCH   SFRSYM    DATA     BYTE      TL2
      000000BCH   SFRSYM    DATA     BYTE      SPISCON0
      000000BDH   SFRSYM    DATA     BYTE      SPISCON1
      000000D0H.3 SFRSYM    DATA     BIT       RS0
      00000088H.4 SFRSYM    DATA     BIT       TR0
      000000D0H.4 SFRSYM    DATA     BIT       RS1
      000000B2H   SFRSYM    DATA     BYTE      PWMCON
      00000088H.6 SFRSYM    DATA     BIT       TR1
      000000CAH   SFRSYM    DATA     WORD      CRC
      000000A6H   SFRSYM    DATA     BYTE      INTEXP
      000000C0H.3 SFRSYM    DATA     BIT       WUPINF
      000000FAH   SFRSYM    DATA     BYTE      FCR
      000000D3H   SFRSYM    DATA     BYTE      ADCCON1
      000000D2H   SFRSYM    DATA     BYTE      ADCCON2
      00000083H   SFRSYM    DATA     BYTE      DPH
      000000D1H   SFRSYM    DATA     BYTE      ADCCON3
      000000C0H.1 SFRSYM    DATA     BIT       RFF
      00000093H   SFRSYM    DATA     BYTE      P0DIR
      00000082H   SFRSYM    DATA     BYTE      DPL
      0000009EH   SFRSYM    DATA     BYTE      P0CON
      00000099H   SFRSYM    DATA     BYTE      S0BUF
      00000094H   SFRSYM    DATA     BYTE      P1DIR
      0000009FH   SFRSYM    DATA     BYTE      P1CON
      00000095H   SFRSYM    DATA     BYTE      P2DIR
      000000B8H.7 SFRSYM    DATA     BIT       EXEN2
      000000DAH   SFRSYM    DATA     BYTE      W2DAT
      00000097H   SFRSYM    DATA     BYTE      P2CON
      00000096H   SFRSYM    DATA     BYTE      P3DIR
      000000A4H   SFRSYM    DATA     BYTE      PWRDWN
      00000098H   SFRSYM    DATA     BYTE      S0CON
      0000008FH   SFRSYM    DATA     BYTE      P3CON
      000000B6H   SFRSYM    DATA     BYTE      RTC2CPT00
      000000D8H   SFRSYM    DATA     BYTE      ADCON
      000000ACH   SFRSYM    DATA     BYTE      RTC2CPT10
      000000ABH   SFRSYM    DATA     BYTE      RTC2CPT01
      000000C8H   SFRSYM    DATA     BYTE      T2CON
      00000092H   SFRSYM    DATA     BYTE      DPS
      000000F8H.5 SFRSYM    DATA     BIT       WEN
      000000F8H   SFRSYM    DATA     BYTE      FSR
      000000D4H   SFRSYM    DATA     BYTE      ADCDATH
      000000C9H   SFRSYM    DATA     BYTE      MPAGE
      000000B8H.2 SFRSYM    DATA     BIT       SPI
      000000F8H.1 SFRSYM    DATA     BIT       RDEND
      000000D5H   SFRSYM    DATA     BYTE      ADCDATL
      000000F8H.3 SFRSYM    DATA     BIT       INFEN
      000000F8H.7 SFRSYM    DATA     BIT       MCDIS
      000000C0H.5 SFRSYM    DATA     BIT       WUF
      000000C0H.4 SFRSYM    DATA     BIT       MISCF
      000000EFH   SFRSYM    DATA     BYTE      ARCON
LX51 LINKER/LOCATER V4.66.62.0                                                        11/15/2016  20:29:03  PAGE 31


      000000D0H.5 SFRSYM    DATA     BIT       F0
      000000F8H.6 SFRSYM    DATA     BIT       STP
      000000FEH   SFRSYM    DATA     BYTE      SPIMSTAT
      000000E8H   SFRSYM    DATA     BYTE      RFCON
      000000D0H   SFRSYM    DATA     BYTE      PSW
      00000098H.2 SFRSYM    DATA     BIT       RB80
      000000C0H   SFRSYM    DATA     BYTE      IRCON
      000000E8H.1 SFRSYM    DATA     BIT       RFCSN
      000000E6H   SFRSYM    DATA     BYTE      SPIRSTAT
      000000B3H   SFRSYM    DATA     BYTE      RTC2CON

      01001131H   BLOCK     CODE     ---       LVL=0
      ---         BLOCKEND  ---      ---       LVL=0

      010011FBH   BLOCK     CODE     ---       LVL=0
      010011FBH   LINE      CODE     ---       #39
      010011FBH   LINE      CODE     ---       #40
      010011FBH   LINE      CODE     ---       #41
      010011FEH   LINE      CODE     ---       #42
      01001202H   LINE      CODE     ---       #43
      01001204H   LINE      CODE     ---       #44
      ---         BLOCKEND  ---      ---       LVL=0

      01001205H   BLOCK     CODE     ---       LVL=0
      01001205H   LINE      CODE     ---       #45
      01001205H   LINE      CODE     ---       #46
      01001205H   LINE      CODE     ---       #48
      01001208H   LINE      CODE     ---       #49
      0100120EH   LINE      CODE     ---       #51
      ---         BLOCKEND  ---      ---       LVL=0

      01001190H   BLOCK     CODE     ---       LVL=0
      00000007H   SYMBOL    DATA     BYTE      resp_gen
      01001190H   LINE      CODE     ---       #52
      01001190H   LINE      CODE     ---       #53
      01001190H   LINE      CODE     ---       #54
      01001193H   LINE      CODE     ---       #55
      01001193H   LINE      CODE     ---       #56
      01001196H   LINE      CODE     ---       #57
      01001197H   LINE      CODE     ---       #59
      01001197H   LINE      CODE     ---       #60
      0100119AH   LINE      CODE     ---       #61
      0100119AH   LINE      CODE     ---       #62
      ---         BLOCKEND  ---      ---       LVL=0

      0100119BH   BLOCK     CODE     ---       LVL=0
      00000007H   SYMBOL    DATA     BYTE      alt_clk
      0100119BH   LINE      CODE     ---       #64
      0100119BH   LINE      CODE     ---       #65
      0100119BH   LINE      CODE     ---       #66
      0100119EH   LINE      CODE     ---       #67
      0100119EH   LINE      CODE     ---       #68
      010011A1H   LINE      CODE     ---       #69
      010011A2H   LINE      CODE     ---       #71
      010011A2H   LINE      CODE     ---       #72
      010011A5H   LINE      CODE     ---       #73
      010011A5H   LINE      CODE     ---       #74
      ---         BLOCKEND  ---      ---       LVL=0

      010011A6H   BLOCK     CODE     ---       LVL=0
      00000007H   SYMBOL    DATA     BYTE      stop_cond
      010011A6H   LINE      CODE     ---       #76
      010011A6H   LINE      CODE     ---       #77
      010011A6H   LINE      CODE     ---       #78
      010011A9H   LINE      CODE     ---       #79
LX51 LINKER/LOCATER V4.66.62.0                                                        11/15/2016  20:29:03  PAGE 32


      010011A9H   LINE      CODE     ---       #80
      010011ACH   LINE      CODE     ---       #81
      010011ADH   LINE      CODE     ---       #83
      010011ADH   LINE      CODE     ---       #84
      010011B0H   LINE      CODE     ---       #85
      010011B0H   LINE      CODE     ---       #86
      ---         BLOCKEND  ---      ---       LVL=0

      010011B1H   BLOCK     CODE     ---       LVL=0
      00000007H   SYMBOL    DATA     BYTE      addr_match
      010011B1H   LINE      CODE     ---       #88
      010011B1H   LINE      CODE     ---       #89
      010011B1H   LINE      CODE     ---       #90
      010011B4H   LINE      CODE     ---       #91
      010011B4H   LINE      CODE     ---       #92
      010011B7H   LINE      CODE     ---       #93
      010011B8H   LINE      CODE     ---       #95
      010011B8H   LINE      CODE     ---       #96
      010011BBH   LINE      CODE     ---       #97
      010011BBH   LINE      CODE     ---       #98
      ---         BLOCKEND  ---      ---       LVL=0

      01001239H   BLOCK     CODE     ---       LVL=0
      00000007H   SYMBOL    DATA     BYTE      address
      01001239H   LINE      CODE     ---       #100
      01001239H   LINE      CODE     ---       #101
      01001239H   LINE      CODE     ---       #102
      0100123EH   LINE      CODE     ---       #103
      ---         BLOCKEND  ---      ---       LVL=0

      01001123H   BLOCK     CODE     ---       LVL=0
      00000007H   SYMBOL    DATA     BYTE      freq
      01001123H   LINE      CODE     ---       #107
      01001123H   LINE      CODE     ---       #108
      01001123H   LINE      CODE     ---       #109
      01001130H   LINE      CODE     ---       #110
      ---         BLOCKEND  ---      ---       LVL=0

      010011BCH   BLOCK     CODE     ---       LVL=0
      00000007H   SYMBOL    DATA     BYTE      mode
      010011BCH   LINE      CODE     ---       #112
      010011BCH   LINE      CODE     ---       #113
      010011BCH   LINE      CODE     ---       #114
      010011BFH   LINE      CODE     ---       #115
      010011BFH   LINE      CODE     ---       #116
      010011C2H   LINE      CODE     ---       #117
      010011C3H   LINE      CODE     ---       #119
      010011C3H   LINE      CODE     ---       #120
      010011C6H   LINE      CODE     ---       #121
      010011C6H   LINE      CODE     ---       #122
      ---         BLOCKEND  ---      ---       LVL=0

      010011C7H   BLOCK     CODE     ---       LVL=0
      00000007H   SYMBOL    DATA     BYTE      en
      010011C7H   LINE      CODE     ---       #124
      010011C7H   LINE      CODE     ---       #125
      010011C7H   LINE      CODE     ---       #126
      010011CAH   LINE      CODE     ---       #127
      010011CAH   LINE      CODE     ---       #128
      010011CDH   LINE      CODE     ---       #129
      010011CEH   LINE      CODE     ---       #131
      010011CEH   LINE      CODE     ---       #132
      010011D1H   LINE      CODE     ---       #133
      010011D1H   LINE      CODE     ---       #134
      ---         BLOCKEND  ---      ---       LVL=0
LX51 LINKER/LOCATER V4.66.62.0                                                        11/15/2016  20:29:03  PAGE 33



      010011D2H   BLOCK     CODE     ---       LVL=0
      00000007H   SYMBOL    DATA     BYTE      irq
      010011D2H   LINE      CODE     ---       #136
      010011D2H   LINE      CODE     ---       #137
      010011D2H   LINE      CODE     ---       #140
      010011D5H   LINE      CODE     ---       #141
      010011D5H   LINE      CODE     ---       #142
      010011D8H   LINE      CODE     ---       #143
      010011D9H   LINE      CODE     ---       #145
      010011D9H   LINE      CODE     ---       #146
      010011DCH   LINE      CODE     ---       #147
      010011DCH   LINE      CODE     ---       #148
      ---         BLOCKEND  ---      ---       LVL=0

      01000F37H   BLOCK     CODE     ---       LVL=0
      00000006H   SYMBOL    DATA     BYTE      mode
      01000F37H   LINE      CODE     ---       #150
      01000F39H   LINE      CODE     ---       #151
      01000F39H   LINE      CODE     ---       #152
      01000F3EH   LINE      CODE     ---       #153
      01000F43H   LINE      CODE     ---       #154
      01000F48H   LINE      CODE     ---       #156
      01000F4BH   LINE      CODE     ---       #157
      01000F4EH   LINE      CODE     ---       #158
      01000F51H   LINE      CODE     ---       #160
      01000F55H   LINE      CODE     ---       #161
      01000F57H   LINE      CODE     ---       #162
      ---         BLOCKEND  ---      ---       LVL=0

      01000ECBH   BLOCK     CODE     ---       LVL=0
      01000ECBH   BLOCK     CODE     NEAR LAB  LVL=1
      00000046H   SYMBOL    DATA     DWORD     timeout_counter
      0000004AH   SYMBOL    DATA     BYTE      w2_status
      0000004BH   SYMBOL    DATA     BYTE      data_ready
      0000004CH   SYMBOL    DATA     BYTE      nack_received
      ---         BLOCKEND  ---      ---       LVL=1
      01000ECBH   LINE      CODE     ---       #164
      01000ECBH   LINE      CODE     ---       #165
      01000ECBH   LINE      CODE     ---       #166
      01000ED5H   LINE      CODE     ---       #172
      01000ED5H   LINE      CODE     ---       #173
      01000ED8H   LINE      CODE     ---       #174
      01000EDEH   LINE      CODE     ---       #175
      01000EE4H   LINE      CODE     ---       #176
      01000EEBH   LINE      CODE     ---       #177
      01000EEFH   LINE      CODE     ---       #180
      01000EF1H   LINE      CODE     ---       #181
      ---         BLOCKEND  ---      ---       LVL=0

      0100105AH   BLOCK     CODE     ---       LVL=0
      00000007H   SYMBOL    DATA     BYTE      address
      00000005H   SYMBOL    DATA     BYTE      direction
      0100105AH   BLOCK     CODE     NEAR LAB  LVL=1
      00000007H   SYMBOL    DATA     BYTE      w2_status
      ---         BLOCKEND  ---      ---       LVL=1
      0100105AH   LINE      CODE     ---       #183
      0100105AH   LINE      CODE     ---       #184
      0100105AH   LINE      CODE     ---       #187
      0100105DH   LINE      CODE     ---       #188
      01001061H   LINE      CODE     ---       #190
      01001061H   LINE      CODE     ---       #192
      01001069H   LINE      CODE     ---       #193
      01001069H   LINE      CODE     ---       #194
      0100106BH   LINE      CODE     ---       #195
LX51 LINKER/LOCATER V4.66.62.0                                                        11/15/2016  20:29:03  PAGE 34


      0100106BH   LINE      CODE     ---       #197
      0100106BH   LINE      CODE     ---       #198
      0100106BH   LINE      CODE     ---       #199
      0100106BH   LINE      CODE     ---       #200
      ---         BLOCKEND  ---      ---       LVL=0

      01000D76H   BLOCK     CODE     ---       LVL=0
      00000007H   SYMBOL    DATA     BYTE      address
      00000055H   SYMBOL    DATA     ---       data_ptr
      00000058H   SYMBOL    DATA     BYTE      data_len
      01000D7CH   BLOCK     CODE     NEAR LAB  LVL=1
      00000006H   SYMBOL    DATA     BYTE      ack_received
      01000D90H   BLOCK     CODE     NEAR LAB  LVL=2
      00000059H   SYMBOL    DATA     BYTE      w2_status
      ---         BLOCKEND  ---      ---       LVL=2
      ---         BLOCKEND  ---      ---       LVL=1
      01000D76H   LINE      CODE     ---       #202
      01000D7CH   LINE      CODE     ---       #203
      01000D7CH   LINE      CODE     ---       #205
      01000D83H   LINE      CODE     ---       #207
      01000D90H   LINE      CODE     ---       #208
      01000D90H   LINE      CODE     ---       #210
      01000D9AH   LINE      CODE     ---       #211
      01000D9FH   LINE      CODE     ---       #212
      01000DA4H   LINE      CODE     ---       #213
      01000DA4H   LINE      CODE     ---       #214
      01000DA6H   LINE      CODE     ---       #215
      01000DA6H   LINE      CODE     ---       #216
      01000DA8H   LINE      CODE     ---       #218
      01000DABH   LINE      CODE     ---       #220
      01000DADH   LINE      CODE     ---       #221
      ---         BLOCKEND  ---      ---       LVL=0

      01000CBFH   BLOCK     CODE     ---       LVL=0
      00000007H   SYMBOL    DATA     BYTE      address
      0000005BH   SYMBOL    DATA     ---       data_ptr
      0000005EH   SYMBOL    DATA     BYTE      data_len
      01000CC5H   BLOCK     CODE     NEAR LAB  LVL=1
      00000007H   SYMBOL    DATA     BYTE      w2_status
      0000005FH   SYMBOL    DATA     BYTE      ack_received
      ---         BLOCKEND  ---      ---       LVL=1
      01000CBFH   LINE      CODE     ---       #223
      01000CC5H   LINE      CODE     ---       #224
      01000CC5H   LINE      CODE     ---       #228
      01000CCCH   LINE      CODE     ---       #230
      01000CD0H   LINE      CODE     ---       #231
      01000CD0H   LINE      CODE     ---       #233
      01000CD3H   LINE      CODE     ---       #234
      01000CD3H   LINE      CODE     ---       #237
      01000CDEH   LINE      CODE     ---       #238
      01000CDEH   LINE      CODE     ---       #239
      01000CE2H   LINE      CODE     ---       #240
      01000CE2H   LINE      CODE     ---       #241
      01000CE5H   LINE      CODE     ---       #242
      01000CE5H   LINE      CODE     ---       #244
      01000CE8H   LINE      CODE     ---       #246
      01000CF2H   LINE      CODE     ---       #247
      01000CFCH   LINE      CODE     ---       #248
      01000CFEH   LINE      CODE     ---       #250
      01000D00H   LINE      CODE     ---       #251
      ---         BLOCKEND  ---      ---       LVL=0

      01000938H   BLOCK     CODE     ---       LVL=0
      01000938H   BLOCK     CODE     NEAR LAB  LVL=1
      00000036H   SYMBOL    DATA     BYTE      pulsecount
LX51 LINKER/LOCATER V4.66.62.0                                                        11/15/2016  20:29:03  PAGE 35


      00000037H   SYMBOL    DATA     BYTE      w2_freq
      ---         BLOCKEND  ---      ---       LVL=1
      01000938H   LINE      CODE     ---       #253
      01000938H   LINE      CODE     ---       #254
      01000938H   LINE      CODE     ---       #259
      0100093EH   LINE      CODE     ---       #261
      01000941H   LINE      CODE     ---       #262
      01000949H   LINE      CODE     ---       #266
      0100094CH   LINE      CODE     ---       #267
      0100094FH   LINE      CODE     ---       #270
      01000952H   LINE      CODE     ---       #275
      01000958H   LINE      CODE     ---       #278
      01000958H   LINE      CODE     ---       #280
      01000958H   LINE      CODE     ---       #284
      0100095BH   LINE      CODE     ---       #285
      0100095EH   LINE      CODE     ---       #286
      0100095EH   LINE      CODE     ---       #288
      01000964H   LINE      CODE     ---       #289
      01000964H   LINE      CODE     ---       #291
      01000964H   LINE      CODE     ---       #292
      01000967H   LINE      CODE     ---       #293
      01000970H   LINE      CODE     ---       #296
      01000970H   LINE      CODE     ---       #298
      01000977H   LINE      CODE     ---       #301
      01000977H   LINE      CODE     ---       #303
      0100097EH   LINE      CODE     ---       #306
      01000981H   LINE      CODE     ---       #309
      01000984H   LINE      CODE     ---       #310
      0100098AH   LINE      CODE     ---       #312
      ---         BLOCKEND  ---      ---       LVL=0

      010010A0H   BLOCK     CODE     ---       LVL=0
      00000007H   SYMBOL    DATA     BYTE      devAddr
      00000005H   SYMBOL    DATA     BYTE      regAddr
      00000029H   SYMBOL    DATA     BYTE      data_to_write
      010010A0H   LINE      CODE     ---       #317
      010010A2H   LINE      CODE     ---       #318
      010010B0H   LINE      CODE     ---       #319
      ---         BLOCKEND  ---      ---       LVL=0

      01000D3CH   BLOCK     CODE     ---       LVL=0
      00000007H   SYMBOL    DATA     BYTE      devAddr
      00000004H   SYMBOL    DATA     BYTE      regAddr
      00000006H   SYMBOL    DATA     BYTE      data_len
      0000002DH   SYMBOL    DATA     ---       data_ptr
      01000D40H   BLOCK     CODE     NEAR LAB  LVL=1
      00000007H   SYMBOL    DATA     BYTE      w2_status
      00000005H   SYMBOL    DATA     BYTE      ack_received
      ---         BLOCKEND  ---      ---       LVL=1
      01000D3CH   LINE      CODE     ---       #321
      01000D40H   LINE      CODE     ---       #326
      01000D47H   LINE      CODE     ---       #327
      01000D49H   LINE      CODE     ---       #328
      01000D4CH   LINE      CODE     ---       #329
      01000D50H   LINE      CODE     ---       #330
      01000D50H   LINE      CODE     ---       #331
      01000D52H   LINE      CODE     ---       #332
      01000D52H   LINE      CODE     ---       #334
      01000D5EH   LINE      CODE     ---       #335
      01000D5EH   LINE      CODE     ---       #336
      01000D66H   LINE      CODE     ---       #337
      01000D66H   LINE      CODE     ---       #338
      01000D6CH   LINE      CODE     ---       #339
      01000D6CH   LINE      CODE     ---       #340
      01000D6EH   LINE      CODE     ---       #341
LX51 LINKER/LOCATER V4.66.62.0                                                        11/15/2016  20:29:03  PAGE 36


      01000D6EH   LINE      CODE     ---       #342
      01000D70H   LINE      CODE     ---       #343
      01000D73H   LINE      CODE     ---       #345
      01000D75H   LINE      CODE     ---       #346
      ---         BLOCKEND  ---      ---       LVL=0

      0100106CH   BLOCK     CODE     ---       LVL=0
      00000007H   SYMBOL    DATA     BYTE      devAddr
      00000005H   SYMBOL    DATA     BYTE      regAddr
      0000002BH   SYMBOL    DATA     ---       data_ptr
      0100106CH   LINE      CODE     ---       #348
      01001072H   LINE      CODE     ---       #349
      0100107DH   LINE      CODE     ---       #350
      ---         BLOCKEND  ---      ---       LVL=0

      01000A7EH   BLOCK     CODE     ---       LVL=0
      00000006H   SYMBOL    DATA     BYTE      devAddr
      00000004H   SYMBOL    DATA     BYTE      regAddr
      00000030H   SYMBOL    DATA     BYTE      data_len
      00000031H   SYMBOL    DATA     ---       data_ptr
      01000A84H   BLOCK     CODE     NEAR LAB  LVL=1
      00000034H   SYMBOL    DATA     BYTE      w2_status
      00000035H   SYMBOL    DATA     BYTE      ack_received
      ---         BLOCKEND  ---      ---       LVL=1
      01000A7EH   LINE      CODE     ---       #352
      01000A84H   LINE      CODE     ---       #357
      01000A8BH   LINE      CODE     ---       #358
      01000A8DH   LINE      CODE     ---       #359
      01000A92H   LINE      CODE     ---       #360
      01000A97H   LINE      CODE     ---       #361
      01000A97H   LINE      CODE     ---       #362
      01000A9AH   LINE      CODE     ---       #363
      01000A9AH   LINE      CODE     ---       #367
      01000AA3H   LINE      CODE     ---       #369
      01000AA7H   LINE      CODE     ---       #370
      01000AA7H   LINE      CODE     ---       #372
      01000AAAH   LINE      CODE     ---       #374
      01000AAAH   LINE      CODE     ---       #376
      01000AB5H   LINE      CODE     ---       #377
      01000AB5H   LINE      CODE     ---       #378
      01000AB9H   LINE      CODE     ---       #379
      01000AB9H   LINE      CODE     ---       #380
      01000ABCH   LINE      CODE     ---       #381
      01000ABCH   LINE      CODE     ---       #383
      01000AC1H   LINE      CODE     ---       #385
      01000ACBH   LINE      CODE     ---       #386
      01000AD6H   LINE      CODE     ---       #387
      01000AD8H   LINE      CODE     ---       #389
      01000ADAH   LINE      CODE     ---       #390
      ---         BLOCKEND  ---      ---       LVL=0

      01000BDFH   BLOCK     CODE     ---       LVL=0
      00000022H   SYMBOL    DATA     BYTE      devAddr
      00000023H   SYMBOL    DATA     BYTE      regAddr
      00000024H   SYMBOL    DATA     BYTE      bitNum
      00000025H   SYMBOL    DATA     BYTE      data_to_write
      01000BE5H   BLOCK     CODE     NEAR LAB  LVL=1
      00000026H   SYMBOL    DATA     BYTE      b
      ---         BLOCKEND  ---      ---       LVL=1
      01000BDFH   LINE      CODE     ---       #393
      01000BE5H   LINE      CODE     ---       #395
      01000BEEH   LINE      CODE     ---       #396
      01000C23H   LINE      CODE     ---       #397
      01000C2CH   LINE      CODE     ---       #398
      ---         BLOCKEND  ---      ---       LVL=0
LX51 LINKER/LOCATER V4.66.62.0                                                        11/15/2016  20:29:03  PAGE 37



      01000A1BH   BLOCK     CODE     ---       LVL=0
      00000022H   SYMBOL    DATA     BYTE      devAddr
      00000023H   SYMBOL    DATA     BYTE      regAddr
      00000024H   SYMBOL    DATA     BYTE      bitStart
      00000025H   SYMBOL    DATA     BYTE      data_length
      00000026H   SYMBOL    DATA     BYTE      data_to_write
      01000A21H   BLOCK     CODE     NEAR LAB  LVL=1
      00000027H   SYMBOL    DATA     BYTE      b
      01000A2DH   BLOCK     CODE     NEAR LAB  LVL=2
      00000028H   SYMBOL    DATA     BYTE      mask
      ---         BLOCKEND  ---      ---       LVL=2
      ---         BLOCKEND  ---      ---       LVL=1
      01000A1BH   LINE      CODE     ---       #399
      01000A21H   LINE      CODE     ---       #408
      01000A2DH   LINE      CODE     ---       #409
      01000A5AH   LINE      CODE     ---       #410
      01000A67H   LINE      CODE     ---       #411
      01000A6BH   LINE      CODE     ---       #412
      01000A6EH   LINE      CODE     ---       #413
      01000A72H   LINE      CODE     ---       #414
      01000A7BH   LINE      CODE     ---       #415
      01000A7BH   LINE      CODE     ---       #416
      01000A7DH   LINE      CODE     ---       #417
      01000A7DH   LINE      CODE     ---       #418
      ---         BLOCKEND  ---      ---       LVL=0

      01000EF2H   BLOCK     CODE     ---       LVL=0
      00000007H   SYMBOL    DATA     BYTE      devAddr
      00000005H   SYMBOL    DATA     BYTE      regAddr
      0000004FH   SYMBOL    DATA     BYTE      bitNum
      00000050H   SYMBOL    DATA     ---       data_ptr
      01000EF4H   BLOCK     CODE     NEAR LAB  LVL=1
      00000053H   SYMBOL    DATA     BYTE      b
      00000007H   SYMBOL    DATA     BYTE      count
      ---         BLOCKEND  ---      ---       LVL=1
      01000EF2H   LINE      CODE     ---       #419
      01000EF4H   LINE      CODE     ---       #421
      01000EFDH   LINE      CODE     ---       #422
      01000F15H   LINE      CODE     ---       #423
      01000F15H   LINE      CODE     ---       #424
      ---         BLOCKEND  ---      ---       LVL=0

      01000ADBH   BLOCK     CODE     ---       LVL=0
      00000007H   SYMBOL    DATA     BYTE      devAddr
      00000005H   SYMBOL    DATA     BYTE      regAddr
      00000024H   SYMBOL    DATA     BYTE      bitStart
      00000025H   SYMBOL    DATA     BYTE      data_length
      00000026H   SYMBOL    DATA     ---       data_ptr
      01000ADDH   BLOCK     CODE     NEAR LAB  LVL=1
      00000005H   SYMBOL    DATA     BYTE      count
      00000029H   SYMBOL    DATA     BYTE      b
      01000AEBH   BLOCK     CODE     NEAR LAB  LVL=2
      0000002AH   SYMBOL    DATA     BYTE      mask
      ---         BLOCKEND  ---      ---       LVL=2
      ---         BLOCKEND  ---      ---       LVL=1
      01000ADBH   LINE      CODE     ---       #425
      01000ADDH   LINE      CODE     ---       #432
      01000AEBH   LINE      CODE     ---       #433
      01000B18H   LINE      CODE     ---       #434
      01000B1AH   LINE      CODE     ---       #435
      01000B27H   LINE      CODE     ---       #436
      01000B30H   LINE      CODE     ---       #437
      01000B30H   LINE      CODE     ---       #438
      01000B32H   LINE      CODE     ---       #439
LX51 LINKER/LOCATER V4.66.62.0                                                        11/15/2016  20:29:03  PAGE 38


      ---         BLOCKEND  ---      ---       LVL=0

      01001035H   BLOCK     CODE     ---       LVL=0
      00000007H   SYMBOL    DATA     BYTE      devAddr
      00000005H   SYMBOL    DATA     BYTE      regAddr
      00000022H   SYMBOL    DATA     WORD      data_to_write
      01001035H   LINE      CODE     ---       #442
      01001039H   LINE      CODE     ---       #443
      01001047H   LINE      CODE     ---       #444
      ---         BLOCKEND  ---      ---       LVL=0

      01000B89H   BLOCK     CODE     ---       LVL=0
      00000007H   SYMBOL    DATA     BYTE      devAddr
      00000006H   SYMBOL    DATA     BYTE      regAddr
      00000004H   SYMBOL    DATA     BYTE      data_length
      00000027H   SYMBOL    DATA     ---       data_ptr
      01000B8DH   BLOCK     CODE     NEAR LAB  LVL=1
      00000007H   SYMBOL    DATA     BYTE      w2_status
      00000005H   SYMBOL    DATA     BYTE      ack_received
      ---         BLOCKEND  ---      ---       LVL=1
      01000B89H   LINE      CODE     ---       #445
      01000B8DH   LINE      CODE     ---       #456
      01000B94H   LINE      CODE     ---       #457
      01000B96H   LINE      CODE     ---       #458
      01000B99H   LINE      CODE     ---       #459
      01000B9DH   LINE      CODE     ---       #460
      01000B9DH   LINE      CODE     ---       #461
      01000B9FH   LINE      CODE     ---       #462
      01000B9FH   LINE      CODE     ---       #464
      01000BADH   LINE      CODE     ---       #465
      01000BADH   LINE      CODE     ---       #466
      01000BB8H   LINE      CODE     ---       #467
      01000BB8H   LINE      CODE     ---       #468
      01000BBEH   LINE      CODE     ---       #469
      01000BBEH   LINE      CODE     ---       #470
      01000BC0H   LINE      CODE     ---       #471
      01000BC0H   LINE      CODE     ---       #472
      01000BC3H   LINE      CODE     ---       #473
      01000BCFH   LINE      CODE     ---       #474
      01000BCFH   LINE      CODE     ---       #475
      01000BD5H   LINE      CODE     ---       #476
      01000BD5H   LINE      CODE     ---       #477
      01000BD7H   LINE      CODE     ---       #478
      01000BD7H   LINE      CODE     ---       #479
      01000BD9H   LINE      CODE     ---       #480
      01000BD9H   LINE      CODE     ---       #481
      01000BD9H   LINE      CODE     ---       #482
      01000BD9H   LINE      CODE     ---       #483
      01000BDCH   LINE      CODE     ---       #485
      01000BDEH   LINE      CODE     ---       #486
      ---         BLOCKEND  ---      ---       LVL=0

      ---         MODULE    ---      ---       HAL_DELAY
      01000FFBH   PUBLIC    CODE     ---       _delay_ms
      01000FD4H   PUBLIC    CODE     ---       _delay_us

      01000FC9H   BLOCK     CODE     ---       LVL=0
      ---         BLOCKEND  ---      ---       LVL=0

      01000FD4H   BLOCK     CODE     ---       LVL=0
      00000006H   SYMBOL    DATA     WORD      us
      01000FD4H   LINE      CODE     ---       #37
      01000FD4H   LINE      CODE     ---       #38
      01000FD4H   LINE      CODE     ---       #40
      01000FD4H   LINE      CODE     ---       #41
LX51 LINKER/LOCATER V4.66.62.0                                                        11/15/2016  20:29:03  PAGE 39


      01000FD5H   LINE      CODE     ---       #42
      01000FD6H   LINE      CODE     ---       #43
      01000FD7H   LINE      CODE     ---       #44
      01000FD8H   LINE      CODE     ---       #45
      01000FD9H   LINE      CODE     ---       #46
      01000FE2H   LINE      CODE     ---       #47
      ---         BLOCKEND  ---      ---       LVL=0

      01000FFBH   BLOCK     CODE     ---       LVL=0
      00000004H   SYMBOL    DATA     WORD      ms
      01000FFBH   LINE      CODE     ---       #49
      01000FFFH   LINE      CODE     ---       #50
      01000FFFH   LINE      CODE     ---       #52
      01000FFFH   LINE      CODE     ---       #53
      01000FFFH   LINE      CODE     ---       #54
      01001002H   LINE      CODE     ---       #55
      01001002H   LINE      CODE     ---       #56
      01001005H   LINE      CODE     ---       #57
      0100100EH   LINE      CODE     ---       #58
      ---         BLOCKEND  ---      ---       LVL=0

      ---         MODULE    ---      ---       ?C_INIT
      010007E4H   PUBLIC    CODE     ---       ?C_START

      ---         MODULE    ---      ---       ?C?CLDPTR
      01000056H   PUBLIC    CODE     ---       ?C?CLDPTR

      ---         MODULE    ---      ---       ?C?CLDOPTR
      0100006FH   PUBLIC    CODE     ---       ?C?CLDOPTR

      ---         MODULE    ---      ---       ?C?CSTPTR
      0100009CH   PUBLIC    CODE     ---       ?C?CSTPTR

      ---         MODULE    ---      ---       ?C?CSTOPTR
      010000AEH   PUBLIC    CODE     ---       ?C?CSTOPTR

      ---         MODULE    ---      ---       ?C?ILDPTR
      010000D0H   PUBLIC    CODE     ---       ?C?ILDPTR

      ---         MODULE    ---      ---       ?C?PLDIIDATA
      010000FBH   PUBLIC    CODE     ---       ?C?PLDIIDATA

      ---         MODULE    ---      ---       ?C?MEMCMP
      01000291H   PUBLIC    CODE     ---       ?C?MEMCMP

      ---         MODULE    ---      ---       MALLOC
      01000668H   PUBLIC    CODE     ---       _MALLOC

      ---         MODULE    ---      ---       INIT_MEM
      02000274H   PUBLIC    XDATA    ---       __MEM_AVAIL__
      0100000EH   PUBLIC    CODE     ---       _INIT_MEMPOOL

      ---         MODULE    ---      ---       FREE
      01000564H   PUBLIC    CODE     ---       _FREE

      ---         MODULE    ---      ---       ?C?IILDX
      010002B5H   PUBLIC    CODE     ---       ?C?IILDX



*** WARNING L57: UNCALLED FUNCTION, IGNORED FOR OVERLAY PROCESS
    NAME:    GETXACCELOFFSET/MAIN

*** WARNING L57: UNCALLED FUNCTION, IGNORED FOR OVERLAY PROCESS
    NAME:    GETYACCELOFFSET/MAIN
LX51 LINKER/LOCATER V4.66.62.0                                                        11/15/2016  20:29:03  PAGE 40



*** WARNING L57: UNCALLED FUNCTION, IGNORED FOR OVERLAY PROCESS
    NAME:    GETZACCELOFFSET/MAIN

*** WARNING L57: UNCALLED FUNCTION, IGNORED FOR OVERLAY PROCESS
    NAME:    GETXGYROOFFSET/MAIN

*** WARNING L57: UNCALLED FUNCTION, IGNORED FOR OVERLAY PROCESS
    NAME:    GETYGYROOFFSET/MAIN

*** WARNING L57: UNCALLED FUNCTION, IGNORED FOR OVERLAY PROCESS
    NAME:    GETZGYROOFFSET/MAIN

*** WARNING L57: UNCALLED FUNCTION, IGNORED FOR OVERLAY PROCESS
    NAME:    GETFIFOCOUNT/MAIN

*** WARNING L57: UNCALLED FUNCTION, IGNORED FOR OVERLAY PROCESS
    NAME:    GETINTSTATUS/MAIN

*** WARNING L57: UNCALLED FUNCTION, IGNORED FOR OVERLAY PROCESS
    NAME:    _SETDMPENABLED/MAIN

*** WARNING L57: UNCALLED FUNCTION, IGNORED FOR OVERLAY PROCESS
    NAME:    RESETFIFO/MAIN

*** WARNING L57: UNCALLED FUNCTION, IGNORED FOR OVERLAY PROCESS
    NAME:    DMPGETFIFOPACKETSIZE/MAIN

*** WARNING L57: UNCALLED FUNCTION, IGNORED FOR OVERLAY PROCESS
    NAME:    _GETFIFOBYTES/MAIN

*** WARNING L57: UNCALLED FUNCTION, IGNORED FOR OVERLAY PROCESS
    NAME:    _WRITEMEMORYBLOCK/MAIN

*** WARNING L57: UNCALLED FUNCTION, IGNORED FOR OVERLAY PROCESS
    NAME:    UART_INIT/MAIN

*** WARNING L57: UNCALLED FUNCTION, IGNORED FOR OVERLAY PROCESS
    NAME:    _PUTSTRING/MAIN

*** WARNING L57: UNCALLED FUNCTION, IGNORED FOR OVERLAY PROCESS
    NAME:    _SEND_PACKET_TO_COMPUTER/MAIN

*** WARNING L57: UNCALLED FUNCTION, IGNORED FOR OVERLAY PROCESS
    NAME:    _SEND_PACKET_FROM_HOST_TO_COMPUTER/MAIN

*** WARNING L57: UNCALLED FUNCTION, IGNORED FOR OVERLAY PROCESS
    NAME:    _HAL_W2_RESPOND_TO_GEN_ADR/HAL_W2_ISR

*** WARNING L57: UNCALLED FUNCTION, IGNORED FOR OVERLAY PROCESS
    NAME:    _HAL_W2_ALTER_CLOCK/HAL_W2_ISR

*** WARNING L57: UNCALLED FUNCTION, IGNORED FOR OVERLAY PROCESS
    NAME:    _HAL_W2_IRQ_STOP_COND_ENABLE/HAL_W2_ISR

*** WARNING L57: UNCALLED FUNCTION, IGNORED FOR OVERLAY PROCESS
    NAME:    _HAL_W2_IRQ_ADR_MATCH_ENABLE/HAL_W2_ISR

*** WARNING L57: UNCALLED FUNCTION, IGNORED FOR OVERLAY PROCESS
    NAME:    _HAL_W2_SET_SLAVE_ADDRESS/HAL_W2_ISR

*** WARNING L57: UNCALLED FUNCTION, IGNORED FOR OVERLAY PROCESS
    NAME:    HAL_W2_WAIT_DATA_READY/HAL_W2_ISR

*** WARNING L57: UNCALLED FUNCTION, IGNORED FOR OVERLAY PROCESS
LX51 LINKER/LOCATER V4.66.62.0                                                        11/15/2016  20:29:03  PAGE 41


    NAME:    _HAL_W2_WRITE/HAL_W2_ISR

*** WARNING L57: UNCALLED FUNCTION, IGNORED FOR OVERLAY PROCESS
    NAME:    _HAL_W2_READ/HAL_W2_ISR

*** WARNING L57: UNCALLED FUNCTION, IGNORED FOR OVERLAY PROCESS
    NAME:    _I2C_MPU_READBIT/HAL_W2_ISR

Program Size: data=120.1 xdata=636 const=2269 code=4665
LX51 RUN COMPLETE.  26 WARNING(S),  0 ERROR(S)
