LX51 LINKER/LOCATER V4.66.62.0                                                          11/16/2016  22:07:09  PAGE 1


LX51 LINKER/LOCATER V4.66.62.0, INVOKED BY:
C:\KEIL_V5\C51\BIN\LX51.EXE STARTUP.obj, main.obj, .\hal_w2_isr.obj, .\hal_delay.obj TO FProject DISABLEWARNING (16)


CPU MODE:     8051 MODE
MEMORY MODEL: SMALL


INPUT MODULES INCLUDED:
  STARTUP.obj (?C_STARTUP)
         COMMENT TYPE 1: A51 / ASM51 Assembler
  main.obj (MAIN)
         COMMENT TYPE 0: C51 V9.55
  .\hal_w2_isr.obj (HAL_W2_ISR)
         COMMENT TYPE 0: C51 V9.55
  .\hal_delay.obj (HAL_DELAY)
         COMMENT TYPE 0: C51 V9.55
  C:\KEIL_V5\C51\LIB\C51S.LIB (?C_INIT)
         COMMENT TYPE 1: A51 / ASM51 Assembler
  C:\KEIL_V5\C51\LIB\C51S.LIB (?C?CLDPTR)
         COMMENT TYPE 1: A51 / ASM51 Assembler
  C:\KEIL_V5\C51\LIB\C51S.LIB (?C?CLDOPTR)
         COMMENT TYPE 1: A51 / ASM51 Assembler
  C:\KEIL_V5\C51\LIB\C51S.LIB (?C?CSTPTR)
         COMMENT TYPE 1: A51 / ASM51 Assembler
  C:\KEIL_V5\C51\LIB\C51S.LIB (?C?CSTOPTR)
         COMMENT TYPE 1: A51 / ASM51 Assembler
  C:\KEIL_V5\C51\LIB\C51S.LIB (?C?IILDX)
         COMMENT TYPE 1: A51 / ASM51 Assembler
  C:\KEIL_V5\C51\LIB\C51S.LIB (?C?ILDIX)
         COMMENT TYPE 1: A51 / ASM51 Assembler
  C:\KEIL_V5\C51\LIB\C51S.LIB (?C?ILDPTR)
         COMMENT TYPE 1: A51 / ASM51 Assembler
  C:\KEIL_V5\C51\LIB\C51S.LIB (?C?ISTPTR)
         COMMENT TYPE 1: A51 / ASM51 Assembler
  C:\KEIL_V5\C51\LIB\C51S.LIB (?C?ISTOPTR)
         COMMENT TYPE 1: A51 / ASM51 Assembler
  C:\KEIL_V5\C51\LIB\C51S.LIB (?C?PLDIIDATA)
         COMMENT TYPE 1: A51 / ASM51 Assembler
  C:\KEIL_V5\C51\LIB\C51S.LIB (?C?PLDXDATA)
         COMMENT TYPE 1: A51 / ASM51 Assembler
  C:\KEIL_V5\C51\LIB\C51S.LIB (?C?PSTXDATA)
         COMMENT TYPE 1: A51 / ASM51 Assembler
  C:\KEIL_V5\C51\LIB\C51S.LIB (?C?MEMCMP)
         COMMENT TYPE 1: A51 / ASM51 Assembler
  C:\KEIL_V5\C51\LIB\C51S.LIB (MALLOC)
         COMMENT TYPE 1: C51 Compiler
  C:\KEIL_V5\C51\LIB\C51S.LIB (INIT_MEM)
         COMMENT TYPE 1: C51 Compiler
  C:\KEIL_V5\C51\LIB\C51S.LIB (REALLOC)
         COMMENT TYPE 1: C51 Compiler
  C:\KEIL_V5\C51\LIB\C51S.LIB (FREE)
         COMMENT TYPE 1: C51 Compiler
  C:\KEIL_V5\C51\LIB\C51S.LIB (?C?COPY)
         COMMENT TYPE 1: A51 / ASM51 Assembler


ACTIVE MEMORY CLASSES OF MODULE:  FProject (?C_STARTUP)

BASE        START       END         USED      MEMORY CLASS
==========================================================
C:000000H   C:000000H   C:00FFFFH   00211BH   CODE
I:000000H   I:000000H   I:0000FFH   000001H   IDATA
I:000000H   I:000000H   I:00007FH   000051H   DATA
X:000000H   X:000000H   X:00FFFFH   000365H   XDATA
C:000000H   C:000000H   C:00FFFFH   000C03H   CONST
LX51 LINKER/LOCATER V4.66.62.0                                                        11/16/2016  22:07:09  PAGE 2


I:000020H.0 I:000020H.0 I:00002FH.7 000000H.1 BIT


MEMORY MAP OF MODULE:  FProject (?C_STARTUP)


START     STOP      LENGTH    ALIGN  RELOC    MEMORY CLASS   SEGMENT NAME
=========================================================================

* * * * * * * * * * *   D A T A   M E M O R Y   * * * * * * * * * * * * *
000000H   000007H   000008H   ---    AT..     DATA           "REG BANK 0"
000008H   00000EH   000007H   BYTE   UNIT     DATA           ?DT?HAL_W2_WAIT_DATA_READY?HAL_W2_ISR
00000FH   000015H   000007H   BYTE   UNIT     DATA           ?DT?_I2C_MPU_READBIT?HAL_W2_ISR
000016H   00001BH   000006H   BYTE   UNIT     DATA           ?DT?_HAL_W2_WRITE?HAL_W2_ISR
00001CH   00001FH   000004H   BYTE   UNIT     DATA           ?DT?MAIN
000020H   000020H   000001H   BYTE   BITADDR  DATA           ?BA?MAIN
000021H.0 000021H.0 000000H.1 BIT    UNIT     BIT            ?BI?MAIN
000021H.1 000021H   000000H.7 ---    ---      **GAP**
000022H   00003CH   00001BH   BYTE   UNIT     DATA           _DATA_GROUP_
00003DH   000042H   000006H   BYTE   UNIT     DATA           ?DT?_HAL_W2_READ?HAL_W2_ISR
000043H   000047H   000005H   BYTE   UNIT     DATA           ?DT?_SEND_PACKET_TO_COMPUTER?MAIN
000048H   00004CH   000005H   BYTE   UNIT     DATA           ?DT?_SEND_PACKET_FROM_HOST_TO_COMPUTER?MAIN
00004DH   00004FH   000003H   BYTE   UNIT     DATA           ?DT?_PUTSTRING?MAIN
000050H   000051H   000002H   BYTE   UNIT     DATA           ?DT?HAL_W2_ISR
000052H   000052H   000001H   BYTE   UNIT     IDATA          ?STACK

* * * * * * * * * * *   C O D E   M E M O R Y   * * * * * * * * * * * * *
000000H   000002H   000003H   ---    OFFS..   CODE           ?CO??C_STARTUP?0
000003H   000005H   000003H   BYTE   OFFS..   CODE           ?MAIN?00003
000006H   000009H   000004H   BYTE   UNIT     CODE           ?PR?EXT0_IRQ?MAIN
00000AH   00000AH   000001H   ---    ---      **GAP**
00000BH   00000DH   000003H   BYTE   OFFS..   CODE           ?MAIN?0000B
00000EH   000049H   00003CH   BYTE   UNIT     CODE           ?PR?_INIT_MEMPOOL?INIT_MEM
00004AH   00004AH   000001H   ---    ---      **GAP**
00004BH   00004DH   000003H   BYTE   OFFS..   CODE           ?MAIN?0004B
00004EH   000052H   000005H   ---    ---      **GAP**
000053H   000055H   000003H   BYTE   OFFS..   CODE           ?MAIN?00053
000056H   000546H   0004F1H   BYTE   UNIT     CODE           ?PR?DMPINITIALIZE?MAIN
000547H   000925H   0003DFH   BYTE   UNIT     CODE           ?C?LIB_CODE
000926H   000B24H   0001FFH   BYTE   UNIT     CODE           ?PR?MAIN
000B25H   000CC8H   0001A4H   BYTE   UNIT     CODE           ?PR?_WRITEMEMORYBLOCK?MAIN
000CC9H   000E57H   00018FH   BYTE   UNIT     CODE           ?PR?_WRITEDMPCONFIGURATIONSET?MAIN
000E58H   000F7BH   000124H   BYTE   UNIT     CODE           ?PR?MAIN?MAIN
000F7CH   001082H   000107H   BYTE   UNIT     CODE           ?PR?LER_DMP?MAIN
001083H   001186H   000104H   BYTE   UNIT     CODE           ?PR?_FREE?FREE
001187H   001263H   0000DDH   BYTE   UNIT     CODE           ?PR?CONFIGURA_DMP?MAIN
001264H   00131EH   0000BBH   BYTE   UNIT     CODE           ?PR?_READMEMORYBLOCK?MAIN
00131FH   0013BCH   00009EH   BYTE   UNIT     CODE           ?PR?_GETMOTION6_PACKET?MAIN
0013BDH   001458H   00009CH   BYTE   UNIT     CODE           ?PR?_MALLOC?MALLOC
001459H   0014F1H   000099H   BYTE   UNIT     CODE           ?PR?SETUP?MAIN
0014F2H   00157DH   00008CH   BYTE   UNIT     CODE           ?C_C51STARTUP
00157EH   001602H   000085H   BYTE   UNIT     CODE           ?PR?RF_IRQ?MAIN
001603H   00167AH   000078H   BYTE   UNIT     CODE           ?PR?_REALLOC?REALLOC
00167BH   0016EDH   000073H   BYTE   UNIT     CODE           ?PR?HAL_W2_SOFT_RESET?HAL_W2_ISR
0016EEH   00175FH   000072H   BYTE   UNIT     CODE           ?PR?_DMPGETQUATERNION_INT16?MAIN
001760H   0017C2H   000063H   BYTE   UNIT     CODE           ?PR?_I2C_MPU_WRITEBITS?HAL_W2_ISR
0017C3H   00181FH   00005DH   BYTE   UNIT     CODE           ?PR?_I2C_MPU_READBYTES?HAL_W2_ISR
001820H   001877H   000058H   BYTE   UNIT     CODE           ?PR?_I2C_MPU_READBITS?HAL_W2_ISR
001878H   0018CDH   000056H   BYTE   UNIT     CODE           ?PR?_I2C_MPU_WRITEWORDS?HAL_W2_ISR
0018CEH   001920H   000053H   BYTE   UNIT     CODE           ?PR?_SEND_PACKET_TO_HOST?MAIN
001921H   00196EH   00004EH   BYTE   UNIT     CODE           ?PR?_I2C_MPU_WRITEBIT?HAL_W2_ISR
00196FH   0019B3H   000045H   BYTE   UNIT     CODE           ?PR?RF_INIT?MAIN
0019B4H   0019F5H   000042H   BYTE   UNIT     CODE           ?PR?_HAL_W2_READ?HAL_W2_ISR
0019F6H   001A30H   00003BH   BYTE   UNIT     CODE           ?PR?I2C_IRQ?MAIN
001A31H   001A6AH   00003AH   BYTE   UNIT     CODE           ?PR?_I2C_MPU_WRITEBYTES?HAL_W2_ISR
LX51 LINKER/LOCATER V4.66.62.0                                                        11/16/2016  22:07:09  PAGE 3


001A6BH   001AA2H   000038H   BYTE   UNIT     CODE           ?PR?_HAL_W2_WRITE?HAL_W2_ISR
001AA3H   001AD7H   000035H   BYTE   UNIT     CODE           ?PR?_SEND_PACKET_TO_COMPUTER?MAIN
001AD8H   001B0CH   000035H   BYTE   UNIT     CODE           ?PR?_SEND_PACKET_FROM_HOST_TO_COMPUTER?MAIN
001B0DH   001B38H   00002CH   BYTE   UNIT     CODE           ?PR?_TX_MODE_NOACK?MAIN
001B39H   001B64H   00002CH   BYTE   UNIT     CODE           ?PR?_GETFIFOBYTES?MAIN
001B65H   001B8FH   00002BH   BYTE   UNIT     CODE           ?PR?_SPI_READ_BUF?MAIN
001B90H   001BB6H   000027H   BYTE   UNIT     CODE           ?PR?HAL_W2_WAIT_DATA_READY?HAL_W2_ISR
001BB7H   001BDAH   000024H   BYTE   UNIT     CODE           ?PR?_I2C_MPU_READBIT?HAL_W2_ISR
001BDBH   001BFBH   000021H   BYTE   UNIT     CODE           ?PR?_HAL_W2_CONFIGURE_MASTER?HAL_W2_ISR
001BFCH   001C1BH   000020H   BYTE   UNIT     CODE           ?PR?_WRITEPROGMEMORYBLOCK?MAIN
001C1CH   001C3AH   00001FH   BYTE   UNIT     CODE           ?PR?_SPI_WRITE_BUF?MAIN
001C3BH   001C56H   00001CH   BYTE   UNIT     CODE           ?PR?_PUTSTRING?MAIN
001C57H   001C72H   00001CH   BYTE   UNIT     CODE           ?PR?LUZES_INICIAIS?MAIN
001C73H   001C8EH   00001CH   BYTE   UNIT     CODE           ?C_INITSEG
001C8FH   001CA9H   00001BH   BYTE   UNIT     CODE           ?PR?_SETMEMORYBANK?MAIN
001CAAH   001CC3H   00001AH   BYTE   UNIT     CODE           ?PR?UART_INIT?MAIN
001CC4H   001CDDH   00001AH   BYTE   UNIT     CODE           ?PR?_SETSLAVEADDRESS?MAIN
001CDEH   001CF7H   00001AH   BYTE   UNIT     CODE           ?PR?_DELAY_US?HAL_DELAY
001CF8H   001D0DH   000016H   BYTE   UNIT     CODE           ?PR?MPU_TESTCONNECTION?MAIN
001D0EH   001D21H   000014H   BYTE   UNIT     CODE           ?PR?MPU_INITIALIZE?MAIN
001D22H   001D35H   000014H   BYTE   UNIT     CODE           ?PR?_DELAY_MS?HAL_DELAY
001D36H   001D48H   000013H   BYTE   UNIT     CODE           ?PR?_SPI_RW_REG?MAIN
001D49H   001D5BH   000013H   BYTE   UNIT     CODE           ?PR?GETZEROMOTIONDETECTIONDURATION?MAIN
001D5CH   001D6EH   000013H   BYTE   UNIT     CODE           ?PR?_I2C_MPU_WRITEWORD?HAL_W2_ISR
001D6FH   001D80H   000012H   BYTE   UNIT     CODE           ?PR?GETFIFOENABLED?MAIN
001D81H   001D92H   000012H   BYTE   UNIT     CODE           ?PR?INICIARIO?MAIN
001D93H   001DA4H   000012H   BYTE   UNIT     CODE           ?PR?_HAL_W2_INIT_TRANSFER?HAL_W2_ISR
001DA5H   001DB6H   000012H   BYTE   UNIT     CODE           ?PR?_I2C_MPU_READBYTE?HAL_W2_ISR
001DB7H   001DC7H   000011H   BYTE   UNIT     CODE           ?PR?RX_MODE?MAIN
001DC8H   001DD8H   000011H   BYTE   UNIT     CODE           ?PR?_UART_PUTCHAR?MAIN
001DD9H   001DE9H   000011H   BYTE   UNIT     CODE           ?PR?GETOTPBANKVALID?MAIN
001DEAH   001DFAH   000011H   BYTE   UNIT     CODE           ?PR?_I2C_MPU_WRITEBYTE?HAL_W2_ISR
001DFBH   001E0AH   000010H   BYTE   UNIT     CODE           ?PR?TMR0_IRQ?MAIN
001E0BH   001E1AH   000010H   BYTE   UNIT     CODE           ?PR?GETXGYROOFFSETTC?MAIN
001E1BH   001E2AH   000010H   BYTE   UNIT     CODE           ?PR?GETYGYROOFFSETTC?MAIN
001E2BH   001E3AH   000010H   BYTE   UNIT     CODE           ?PR?GETZGYROOFFSETTC?MAIN
001E3BH   001E48H   00000EH   BYTE   UNIT     CODE           ?PR?_SETCLOCKSOURCE?MAIN
001E49H   001E56H   00000EH   BYTE   UNIT     CODE           ?PR?_SETFULLSCALEGYRORANGE?MAIN
001E57H   001E64H   00000EH   BYTE   UNIT     CODE           ?PR?_SETFULLSCALEACCELRANGE?MAIN
001E65H   001E72H   00000EH   BYTE   UNIT     CODE           ?PR?GETXACCELOFFSET?MAIN
001E73H   001E80H   00000EH   BYTE   UNIT     CODE           ?PR?GETYACCELOFFSET?MAIN
001E81H   001E8EH   00000EH   BYTE   UNIT     CODE           ?PR?GETZACCELOFFSET?MAIN
001E8FH   001E9CH   00000EH   BYTE   UNIT     CODE           ?PR?GETXGYROOFFSET?MAIN
001E9DH   001EAAH   00000EH   BYTE   UNIT     CODE           ?PR?GETYGYROOFFSET?MAIN
001EABH   001EB8H   00000EH   BYTE   UNIT     CODE           ?PR?GETZGYROOFFSET?MAIN
001EB9H   001EC6H   00000EH   BYTE   UNIT     CODE           ?PR?GETFIFOCOUNT?MAIN
001EC7H   001ED4H   00000EH   BYTE   UNIT     CODE           ?PR?GETINTSTATUS?MAIN
001ED5H   001EE2H   00000EH   BYTE   UNIT     CODE           ?PR?_SETEXTERNALFRAMESYNC?MAIN
001EE3H   001EF0H   00000EH   BYTE   UNIT     CODE           ?PR?_SETDLPFMODE?MAIN
001EF1H   001EFEH   00000EH   BYTE   UNIT     CODE           ?PR?GETDMPCONFIG1?MAIN
001EFFH   001F0CH   00000EH   BYTE   UNIT     CODE           ?PR?GETDMPCONFIG2?MAIN
001F0DH   001F1AH   00000EH   BYTE   UNIT     CODE           ?PR?GETMOTIONDETECTIONTHRESHOLD?MAIN
001F1BH   001F28H   00000EH   BYTE   UNIT     CODE           ?PR?GETZEROMOTIONDETECTIONTHRESHOLD?MAIN
001F29H   001F36H   00000EH   BYTE   UNIT     CODE           ?PR?GETMOTIONDETECTIONDURATION?MAIN
001F37H   001F44H   00000EH   BYTE   UNIT     CODE           ?PR?_HAL_W2_SET_CLK_FREQ?HAL_W2_ISR
001F45H   001F52H   00000EH   BYTE   UNIT     CODE           ?PR?HAL_W2_ISR
001F53H   001F5FH   00000DH   BYTE   UNIT     CODE           ?PR?_SPI_READ?MAIN
001F60H   001F6BH   00000CH   BYTE   UNIT     CODE           ?PR?INICIARRF?MAIN
001F6CH   001F77H   00000CH   BYTE   UNIT     CODE           ?PR?RESETFIFO?MAIN
001F78H   001F83H   00000CH   BYTE   UNIT     CODE           ?PR?I2C_MPU_RESET?MAIN
001F84H   001F8FH   00000CH   BYTE   UNIT     CODE           ?PR?RESETI2CMASTER?MAIN
001F90H   001F9BH   00000CH   BYTE   UNIT     CODE           ?PR?RESETDMP?MAIN
001F9CH   001FA6H   00000BH   BYTE   UNIT     CODE           ?PR?MPU_8051_MALLOC_SETUP?MAIN
001FA7H   001FB1H   00000BH   BYTE   UNIT     CODE           ?PR?_SETSLEEPENABLED?MAIN
001FB2H   001FBCH   00000BH   BYTE   UNIT     CODE           ?PR?_SETYGYROOFFSET?MAIN
LX51 LINKER/LOCATER V4.66.62.0                                                        11/16/2016  22:07:09  PAGE 4


001FBDH   001FC7H   00000BH   BYTE   UNIT     CODE           ?PR?_SETZGYROOFFSET?MAIN
001FC8H   001FD2H   00000BH   BYTE   UNIT     CODE           ?PR?_SETDMPENABLED?MAIN
001FD3H   001FDDH   00000BH   BYTE   UNIT     CODE           ?PR?_SETI2CMASTERMODEENABLED?MAIN
001FDEH   001FE8H   00000BH   BYTE   UNIT     CODE           ?PR?_SETFIFOENABLED?MAIN
001FE9H   001FF3H   00000BH   BYTE   UNIT     CODE           ?PR?_HAL_W2_RESPOND_TO_GEN_ADR?HAL_W2_ISR
001FF4H   001FFEH   00000BH   BYTE   UNIT     CODE           ?PR?_HAL_W2_ALTER_CLOCK?HAL_W2_ISR
001FFFH   002009H   00000BH   BYTE   UNIT     CODE           ?PR?_HAL_W2_IRQ_STOP_COND_ENABLE?HAL_W2_ISR
00200AH   002014H   00000BH   BYTE   UNIT     CODE           ?PR?_HAL_W2_IRQ_ADR_MATCH_ENABLE?HAL_W2_ISR
002015H   00201FH   00000BH   BYTE   UNIT     CODE           ?PR?_HAL_W2_SET_OP_MODE?HAL_W2_ISR
002020H   00202AH   00000BH   BYTE   UNIT     CODE           ?PR?_HAL_W2_ENABLE?HAL_W2_ISR
00202BH   002035H   00000BH   BYTE   UNIT     CODE           ?PR?_HAL_W2_ALL_IRQ_ENABLE?HAL_W2_ISR
002036H   00203FH   00000AH   BYTE   UNIT     CODE           ?PR?START_T0?MAIN
002040H   002049H   00000AH   BYTE   UNIT     CODE           ?PR?STOP_T0?MAIN
00204AH   002053H   00000AH   BYTE   UNIT     CODE           ?PR?_SPI_RW?MAIN
002054H   00205DH   00000AH   BYTE   UNIT     CODE           ?PR?_WRITEPROGDMPCONFIGURATIONSET?MAIN
00205EH   002067H   00000AH   BYTE   UNIT     CODE           ?PR?_SETOTPBANKVALID?MAIN
002068H   002071H   00000AH   BYTE   UNIT     CODE           ?PR?_SETXGYROOFFSETTC?MAIN
002072H   00207BH   00000AH   BYTE   UNIT     CODE           ?PR?_SETYGYROOFFSETTC?MAIN
00207CH   002085H   00000AH   BYTE   UNIT     CODE           ?PR?_SETZGYROOFFSETTC?MAIN
002086H   00208FH   00000AH   BYTE   UNIT     CODE           ?PR?HAL_W2_WAIT_DATA_READY_ISR?HAL_W2_ISR
002090H   002099H   00000AH   BYTE   UNIT     CODE           ?PR?I2C_IRQ_HANDLER?HAL_W2_ISR
00209AH   0020A2H   000009H   BYTE   UNIT     CODE           ?PR?DMPGETFIFOPACKETSIZE?MAIN
0020A3H   0020ABH   000009H   BYTE   UNIT     CODE           ?PR?_SETMEMORYSTARTADDRESS?MAIN
0020ACH   0020B4H   000009H   BYTE   UNIT     CODE           ?PR?_SETINTENABLED?MAIN
0020B5H   0020BDH   000009H   BYTE   UNIT     CODE           ?PR?_SETRATE?MAIN
0020BEH   0020C6H   000009H   BYTE   UNIT     CODE           ?PR?_SETDMPCONFIG1?MAIN
0020C7H   0020CFH   000009H   BYTE   UNIT     CODE           ?PR?_SETDMPCONFIG2?MAIN
0020D0H   0020D8H   000009H   BYTE   UNIT     CODE           ?PR?_SETMOTIONDETECTIONTHRESHOLD?MAIN
0020D9H   0020E1H   000009H   BYTE   UNIT     CODE           ?PR?_SETZEROMOTIONDETECTIONTHRESHOLD?MAIN
0020E2H   0020EAH   000009H   BYTE   UNIT     CODE           ?PR?_SETMOTIONDETECTIONDURATION?MAIN
0020EBH   0020F3H   000009H   BYTE   UNIT     CODE           ?PR?_SETZEROMOTIONDETECTIONDURATION?MAIN
0020F4H   0020FBH   000008H   BYTE   UNIT     CODE           ?PR?_SETXACCELOFFSET?MAIN
0020FCH   002103H   000008H   BYTE   UNIT     CODE           ?PR?_SETYACCELOFFSET?MAIN
002104H   00210BH   000008H   BYTE   UNIT     CODE           ?PR?_SETZACCELOFFSET?MAIN
00210CH   002113H   000008H   BYTE   UNIT     CODE           ?PR?_SETXGYROOFFSET?MAIN
002114H   00211BH   000008H   BYTE   UNIT     CODE           ?PR?PIN_ISR_SETUP?MAIN
00211CH   002121H   000006H   BYTE   UNIT     CODE           ?PR?_HAL_W2_SET_SLAVE_ADDRESS?HAL_W2_ISR
002122H   002D24H   000C03H   BYTE   UNIT     CONST          ?CO?MAIN

* * * * * * * * * * *  X D A T A   M E M O R Y  * * * * * * * * * * * * *
000000H   0002A0H   0002A1H   BYTE   UNIT     XDATA          ?XD?MAIN
0002A1H   00035AH   0000BAH   BYTE   UNIT     XDATA          _XDATA_GROUP_
00035BH   000362H   000008H   BYTE   UNIT     XDATA          ?XD?INIT_MEM
000363H   000364H   000002H   BYTE   UNIT     XDATA          ?XD?_GETMOTION6_PACKET?MAIN



OVERLAY MAP OF MODULE:   FProject (?C_STARTUP)


FUNCTION/MODULE                              DATA_GROUP   XDATA_GROUP
--> CALLED FUNCTION/MODULE                   START  STOP  START  STOP
=====================================================================
?C_C51STARTUP                                ----- -----  ----- -----
  +--> MAIN/MAIN
  +--> ?C_INITSEG

MAIN/MAIN                                    ----- -----  ----- -----
  +--> SETUP/MAIN
  +--> ?CO?MAIN
  +--> CONFIGURA_DMP/MAIN
  +--> LER_DMP/MAIN
  +--> _SEND_PACKET_TO_HOST/MAIN
  +--> _DELAY_MS/HAL_DELAY
  +--> START_T0/MAIN
LX51 LINKER/LOCATER V4.66.62.0                                                        11/16/2016  22:07:09  PAGE 5


  +--> STOP_T0/MAIN
  +--> _DMPGETQUATERNION_INT16/MAIN

SETUP/MAIN                                   ----- -----  ----- -----
  +--> INICIARIO/MAIN
  +--> INICIARRF/MAIN
  +--> _HAL_W2_CONFIGURE_MASTER/HAL_W2_ISR
  +--> LUZES_INICIAIS/MAIN
  +--> ?CO?MAIN
  +--> MPU_8051_MALLOC_SETUP/MAIN
  +--> MPU_INITIALIZE/MAIN
  +--> MPU_TESTCONNECTION/MAIN
  +--> _SETXACCELOFFSET/MAIN
  +--> _SETYACCELOFFSET/MAIN
  +--> _SETZACCELOFFSET/MAIN
  +--> _SETXGYROOFFSET/MAIN
  +--> _SETYGYROOFFSET/MAIN
  +--> _SETZGYROOFFSET/MAIN
  +--> _SEND_PACKET_TO_HOST/MAIN
  +--> _DELAY_MS/HAL_DELAY

INICIARIO/MAIN                               ----- -----  ----- -----

INICIARRF/MAIN                               ----- -----  ----- -----
  +--> RF_INIT/MAIN
  +--> RX_MODE/MAIN

RF_INIT/MAIN                                 ----- -----  ----- -----
  +--> MAIN
  +--> _SPI_WRITE_BUF/MAIN
  +--> _SPI_RW_REG/MAIN

MAIN                                         ----- -----  ----- -----
  +--> ?CO?MAIN
  +--> _UART_PUTCHAR/MAIN
  +--> _SPI_RW/MAIN

?CO?MAIN                                     ----- -----  ----- -----

_UART_PUTCHAR/MAIN                           ----- -----  ----- -----

_SPI_RW/MAIN                                 ----- -----  ----- -----

_SPI_WRITE_BUF/MAIN                          0029H 002DH  ----- -----
  +--> MAIN
  +--> _SPI_RW/MAIN

_SPI_RW_REG/MAIN                             ----- -----  ----- -----
  +--> _SPI_RW/MAIN

RX_MODE/MAIN                                 ----- -----  ----- -----
  +--> _SPI_RW_REG/MAIN

_HAL_W2_CONFIGURE_MASTER/HAL_W2_ISR          ----- -----  ----- -----
  +--> _HAL_W2_ENABLE/HAL_W2_ISR
  +--> _HAL_W2_SET_CLK_FREQ/HAL_W2_ISR
  +--> _HAL_W2_SET_OP_MODE/HAL_W2_ISR
  +--> _HAL_W2_ALL_IRQ_ENABLE/HAL_W2_ISR

_HAL_W2_ENABLE/HAL_W2_ISR                    ----- -----  ----- -----

_HAL_W2_SET_CLK_FREQ/HAL_W2_ISR              ----- -----  ----- -----

_HAL_W2_SET_OP_MODE/HAL_W2_ISR               ----- -----  ----- -----

LX51 LINKER/LOCATER V4.66.62.0                                                        11/16/2016  22:07:09  PAGE 6


_HAL_W2_ALL_IRQ_ENABLE/HAL_W2_ISR            ----- -----  ----- -----

LUZES_INICIAIS/MAIN                          ----- -----  ----- -----
  +--> _DELAY_MS/HAL_DELAY

_DELAY_MS/HAL_DELAY                          ----- -----  ----- -----
  +--> _DELAY_US/HAL_DELAY

_DELAY_US/HAL_DELAY                          ----- -----  ----- -----

MPU_8051_MALLOC_SETUP/MAIN                   ----- -----  ----- -----
  +--> _INIT_MEMPOOL/INIT_MEM

_INIT_MEMPOOL/INIT_MEM                       ----- -----  ----- -----

MPU_INITIALIZE/MAIN                          ----- -----  ----- -----
  +--> _SETCLOCKSOURCE/MAIN
  +--> _SETFULLSCALEGYRORANGE/MAIN
  +--> _SETFULLSCALEACCELRANGE/MAIN
  +--> _SETSLEEPENABLED/MAIN

_SETCLOCKSOURCE/MAIN                         ----- -----  ----- -----
  +--> _I2C_MPU_WRITEBITS/HAL_W2_ISR

_I2C_MPU_WRITEBITS/HAL_W2_ISR                0022H 0028H  ----- -----
  +--> _I2C_MPU_READBYTE/HAL_W2_ISR
  +--> _I2C_MPU_WRITEBYTE/HAL_W2_ISR

_I2C_MPU_READBYTE/HAL_W2_ISR                 002BH 002DH  ----- -----
  +--> _I2C_MPU_READBYTES/HAL_W2_ISR

_I2C_MPU_READBYTES/HAL_W2_ISR                002EH 0035H  ----- -----
  +--> _HAL_W2_INIT_TRANSFER/HAL_W2_ISR
  +--> HAL_W2_WAIT_DATA_READY_ISR/HAL_W2_ISR
  +--> HAL_W2_SOFT_RESET/HAL_W2_ISR
  +--> HAL_W2_ISR

_HAL_W2_INIT_TRANSFER/HAL_W2_ISR             ----- -----  ----- -----
  +--> HAL_W2_ISR

HAL_W2_ISR                                   ----- -----  ----- -----
  +--> HAL_W2_WAIT_DATA_READY_ISR/HAL_W2_ISR

HAL_W2_WAIT_DATA_READY_ISR/HAL_W2_ISR        ----- -----  ----- -----

HAL_W2_SOFT_RESET/HAL_W2_ISR                 0036H 0037H  ----- -----
  +--> _DELAY_US/HAL_DELAY

_I2C_MPU_WRITEBYTE/HAL_W2_ISR                0029H 0029H  ----- -----
  +--> _I2C_MPU_WRITEBYTES/HAL_W2_ISR

_I2C_MPU_WRITEBYTES/HAL_W2_ISR               002AH 002FH  ----- -----
  +--> _HAL_W2_INIT_TRANSFER/HAL_W2_ISR
  +--> HAL_W2_WAIT_DATA_READY_ISR/HAL_W2_ISR
  +--> HAL_W2_ISR

_SETFULLSCALEGYRORANGE/MAIN                  ----- -----  ----- -----
  +--> _I2C_MPU_WRITEBITS/HAL_W2_ISR

_SETFULLSCALEACCELRANGE/MAIN                 ----- -----  ----- -----
  +--> _I2C_MPU_WRITEBITS/HAL_W2_ISR

_SETSLEEPENABLED/MAIN                        ----- -----  ----- -----
  +--> _I2C_MPU_WRITEBIT/HAL_W2_ISR

LX51 LINKER/LOCATER V4.66.62.0                                                        11/16/2016  22:07:09  PAGE 7


_I2C_MPU_WRITEBIT/HAL_W2_ISR                 0022H 0026H  ----- -----
  +--> _I2C_MPU_READBYTE/HAL_W2_ISR
  +--> _I2C_MPU_WRITEBYTE/HAL_W2_ISR

MPU_TESTCONNECTION/MAIN                      ----- -----  ----- -----
  +--> MAIN
  +--> _I2C_MPU_READBITS/HAL_W2_ISR

_I2C_MPU_READBITS/HAL_W2_ISR                 0022H 002AH  ----- -----
  +--> _I2C_MPU_READBYTE/HAL_W2_ISR

_SETXACCELOFFSET/MAIN                        ----- -----  ----- -----
  +--> MAIN
  +--> _I2C_MPU_WRITEWORD/HAL_W2_ISR

_I2C_MPU_WRITEWORD/HAL_W2_ISR                0022H 0023H  ----- -----
  +--> _I2C_MPU_WRITEWORDS/HAL_W2_ISR

_I2C_MPU_WRITEWORDS/HAL_W2_ISR               0024H 0029H  ----- -----
  +--> _HAL_W2_INIT_TRANSFER/HAL_W2_ISR
  +--> HAL_W2_WAIT_DATA_READY_ISR/HAL_W2_ISR
  +--> HAL_W2_ISR

_SETYACCELOFFSET/MAIN                        ----- -----  ----- -----
  +--> MAIN
  +--> _I2C_MPU_WRITEWORD/HAL_W2_ISR

_SETZACCELOFFSET/MAIN                        ----- -----  ----- -----
  +--> MAIN
  +--> _I2C_MPU_WRITEWORD/HAL_W2_ISR

_SETXGYROOFFSET/MAIN                         ----- -----  ----- -----
  +--> MAIN
  +--> _I2C_MPU_WRITEWORD/HAL_W2_ISR

_SETYGYROOFFSET/MAIN                         ----- -----  ----- -----
  +--> _I2C_MPU_WRITEWORD/HAL_W2_ISR

_SETZGYROOFFSET/MAIN                         ----- -----  ----- -----
  +--> _I2C_MPU_WRITEWORD/HAL_W2_ISR

_SEND_PACKET_TO_HOST/MAIN                    0022H 0026H  ----- -----
  +--> MAIN
  +--> _TX_MODE_NOACK/MAIN
  +--> RX_MODE/MAIN

_TX_MODE_NOACK/MAIN                          0027H 0028H  ----- -----
  +--> _SPI_RW_REG/MAIN
  +--> MAIN
  +--> _SPI_WRITE_BUF/MAIN

CONFIGURA_DMP/MAIN                           ----- -----  ----- -----
  +--> _DELAY_MS/HAL_DELAY
  +--> ?CO?MAIN
  +--> DMPINITIALIZE/MAIN
  +--> _SETXACCELOFFSET/MAIN
  +--> _SETYACCELOFFSET/MAIN
  +--> _SETZACCELOFFSET/MAIN
  +--> _SETXGYROOFFSET/MAIN
  +--> _SETYGYROOFFSET/MAIN
  +--> _SETZGYROOFFSET/MAIN
  +--> _SETDMPENABLED/MAIN
  +--> GETINTSTATUS/MAIN
  +--> MAIN
  +--> DMPGETFIFOPACKETSIZE/MAIN
LX51 LINKER/LOCATER V4.66.62.0                                                        11/16/2016  22:07:09  PAGE 8


  +--> _SEND_PACKET_TO_HOST/MAIN

DMPINITIALIZE/MAIN                           ----- -----  02A1H 0338H
  +--> ?CO?MAIN
  +--> I2C_MPU_RESET/MAIN
  +--> _DELAY_MS/HAL_DELAY
  +--> _SETSLEEPENABLED/MAIN
  +--> _SETMEMORYBANK/MAIN
  +--> _SETMEMORYSTARTADDRESS/MAIN
  +--> GETXGYROOFFSETTC/MAIN
  +--> GETYGYROOFFSETTC/MAIN
  +--> GETZGYROOFFSETTC/MAIN
  +--> _SETSLAVEADDRESS/MAIN
  +--> _SETI2CMASTERMODEENABLED/MAIN
  +--> RESETI2CMASTER/MAIN
  +--> _WRITEPROGMEMORYBLOCK/MAIN
  +--> _WRITEPROGDMPCONFIGURATIONSET/MAIN
  +--> _SETCLOCKSOURCE/MAIN
  +--> _SETINTENABLED/MAIN
  +--> _SETRATE/MAIN
  +--> _SETDLPFMODE/MAIN
  +--> _SETFULLSCALEGYRORANGE/MAIN
  +--> _SETDMPCONFIG1/MAIN
  +--> _SETDMPCONFIG2/MAIN
  +--> _SETOTPBANKVALID/MAIN
  +--> _SETXGYROOFFSETTC/MAIN
  +--> _SETYGYROOFFSETTC/MAIN
  +--> _SETZGYROOFFSETTC/MAIN
  +--> MAIN
  +--> RESETFIFO/MAIN
  +--> _SETMOTIONDETECTIONTHRESHOLD/MAIN
  +--> _SETZEROMOTIONDETECTIONTHRESHOLD/MAIN
  +--> _SETMOTIONDETECTIONDURATION/MAIN
  +--> _SETZEROMOTIONDETECTIONDURATION/MAIN
  +--> _SETFIFOENABLED/MAIN
  +--> _SETDMPENABLED/MAIN
  +--> RESETDMP/MAIN
  +--> _SEND_PACKET_TO_HOST/MAIN
  +--> _READMEMORYBLOCK/MAIN
  +--> GETFIFOCOUNT/MAIN
  +--> _GETFIFOBYTES/MAIN
  +--> GETINTSTATUS/MAIN
  +--> _WRITEMEMORYBLOCK/MAIN

I2C_MPU_RESET/MAIN                           ----- -----  ----- -----
  +--> _I2C_MPU_WRITEBIT/HAL_W2_ISR

_SETMEMORYBANK/MAIN                          ----- -----  ----- -----
  +--> _I2C_MPU_WRITEBYTE/HAL_W2_ISR

_SETMEMORYSTARTADDRESS/MAIN                  ----- -----  ----- -----
  +--> _I2C_MPU_WRITEBYTE/HAL_W2_ISR

GETXGYROOFFSETTC/MAIN                        ----- -----  ----- -----
  +--> MAIN
  +--> _I2C_MPU_READBITS/HAL_W2_ISR

GETYGYROOFFSETTC/MAIN                        ----- -----  ----- -----
  +--> MAIN
  +--> _I2C_MPU_READBITS/HAL_W2_ISR

GETZGYROOFFSETTC/MAIN                        ----- -----  ----- -----
  +--> MAIN
  +--> _I2C_MPU_READBITS/HAL_W2_ISR

LX51 LINKER/LOCATER V4.66.62.0                                                        11/16/2016  22:07:09  PAGE 9


_SETSLAVEADDRESS/MAIN                        ----- -----  ----- -----
  +--> _I2C_MPU_WRITEBYTE/HAL_W2_ISR

_SETI2CMASTERMODEENABLED/MAIN                ----- -----  ----- -----
  +--> _I2C_MPU_WRITEBIT/HAL_W2_ISR

RESETI2CMASTER/MAIN                          ----- -----  ----- -----
  +--> _I2C_MPU_WRITEBIT/HAL_W2_ISR

_WRITEPROGMEMORYBLOCK/MAIN                   ----- -----  0339H 0340H
  +--> _WRITEMEMORYBLOCK/MAIN

_WRITEMEMORYBLOCK/MAIN                       ----- -----  0349H 035AH
  +--> MAIN
  +--> _SETMEMORYBANK/MAIN
  +--> _SETMEMORYSTARTADDRESS/MAIN
  +--> _MALLOC/MALLOC
  +--> _I2C_MPU_WRITEBYTES/HAL_W2_ISR
  +--> _I2C_MPU_READBYTES/HAL_W2_ISR
  +--> _FREE/FREE

_MALLOC/MALLOC                               002AH 002DH  ----- -----

_FREE/FREE                                   002AH 002DH  ----- -----

_WRITEPROGDMPCONFIGURATIONSET/MAIN           ----- -----  ----- -----
  +--> _WRITEDMPCONFIGURATIONSET/MAIN

_WRITEDMPCONFIGURATIONSET/MAIN               ----- -----  0339H 0348H
  +--> MAIN
  +--> _MALLOC/MALLOC
  +--> _REALLOC/REALLOC
  +--> _WRITEMEMORYBLOCK/MAIN
  +--> _I2C_MPU_WRITEBYTE/HAL_W2_ISR
  +--> _FREE/FREE

_REALLOC/REALLOC                             0022H 0029H  ----- -----
  +--> _MALLOC/MALLOC
  +--> _FREE/FREE

_SETINTENABLED/MAIN                          ----- -----  ----- -----
  +--> _I2C_MPU_WRITEBYTE/HAL_W2_ISR

_SETRATE/MAIN                                ----- -----  ----- -----
  +--> _I2C_MPU_WRITEBYTE/HAL_W2_ISR

_SETDLPFMODE/MAIN                            ----- -----  ----- -----
  +--> _I2C_MPU_WRITEBITS/HAL_W2_ISR

_SETDMPCONFIG1/MAIN                          ----- -----  ----- -----
  +--> _I2C_MPU_WRITEBYTE/HAL_W2_ISR

_SETDMPCONFIG2/MAIN                          ----- -----  ----- -----
  +--> _I2C_MPU_WRITEBYTE/HAL_W2_ISR

_SETOTPBANKVALID/MAIN                        ----- -----  ----- -----
  +--> _I2C_MPU_WRITEBIT/HAL_W2_ISR

_SETXGYROOFFSETTC/MAIN                       ----- -----  ----- -----
  +--> MAIN
  +--> _I2C_MPU_WRITEBITS/HAL_W2_ISR

_SETYGYROOFFSETTC/MAIN                       ----- -----  ----- -----
  +--> MAIN
  +--> _I2C_MPU_WRITEBITS/HAL_W2_ISR
LX51 LINKER/LOCATER V4.66.62.0                                                        11/16/2016  22:07:09  PAGE 10



_SETZGYROOFFSETTC/MAIN                       ----- -----  ----- -----
  +--> MAIN
  +--> _I2C_MPU_WRITEBITS/HAL_W2_ISR

RESETFIFO/MAIN                               ----- -----  ----- -----
  +--> _I2C_MPU_WRITEBIT/HAL_W2_ISR

_SETMOTIONDETECTIONTHRESHOLD/MAIN            ----- -----  ----- -----
  +--> _I2C_MPU_WRITEBYTE/HAL_W2_ISR

_SETZEROMOTIONDETECTIONTHRESHOLD/MAIN        ----- -----  ----- -----
  +--> _I2C_MPU_WRITEBYTE/HAL_W2_ISR

_SETMOTIONDETECTIONDURATION/MAIN             ----- -----  ----- -----
  +--> _I2C_MPU_WRITEBYTE/HAL_W2_ISR

_SETZEROMOTIONDETECTIONDURATION/MAIN         ----- -----  ----- -----
  +--> _I2C_MPU_WRITEBYTE/HAL_W2_ISR

_SETFIFOENABLED/MAIN                         ----- -----  ----- -----
  +--> _I2C_MPU_WRITEBIT/HAL_W2_ISR

_SETDMPENABLED/MAIN                          ----- -----  ----- -----
  +--> _I2C_MPU_WRITEBIT/HAL_W2_ISR

RESETDMP/MAIN                                ----- -----  ----- -----
  +--> _I2C_MPU_WRITEBIT/HAL_W2_ISR

_READMEMORYBLOCK/MAIN                        ----- -----  0339H 0342H
  +--> MAIN
  +--> _I2C_MPU_READBYTES/HAL_W2_ISR
  +--> _SETMEMORYBANK/MAIN
  +--> _SETMEMORYSTARTADDRESS/MAIN

GETFIFOCOUNT/MAIN                            ----- -----  ----- -----
  +--> MAIN
  +--> _I2C_MPU_READBYTES/HAL_W2_ISR

_GETFIFOBYTES/MAIN                           ----- -----  0339H 033BH
  +--> MAIN
  +--> _I2C_MPU_READBYTES/HAL_W2_ISR

GETINTSTATUS/MAIN                            ----- -----  ----- -----
  +--> MAIN
  +--> _I2C_MPU_READBYTE/HAL_W2_ISR

DMPGETFIFOPACKETSIZE/MAIN                    ----- -----  ----- -----

LER_DMP/MAIN                                 ----- -----  ----- -----
  +--> ?CO?MAIN
  +--> MAIN
  +--> GETINTSTATUS/MAIN
  +--> RESETFIFO/MAIN
  +--> _DELAY_MS/HAL_DELAY
  +--> _GETFIFOBYTES/MAIN
  +--> _SEND_PACKET_TO_HOST/MAIN
  +--> GETFIFOCOUNT/MAIN

START_T0/MAIN                                ----- -----  ----- -----
  +--> MAIN

STOP_T0/MAIN                                 ----- -----  ----- -----
  +--> MAIN

LX51 LINKER/LOCATER V4.66.62.0                                                        11/16/2016  22:07:09  PAGE 11


_DMPGETQUATERNION_INT16/MAIN                 ----- -----  02A1H 02A6H
  +--> MAIN

?C_INITSEG                                   ----- -----  ----- -----

*** NEW ROOT *******************************

TMR0_IRQ/MAIN                                ----- -----  ----- -----
  +--> MAIN

*** NEW ROOT *******************************

RF_IRQ/MAIN                                  ----- -----  ----- -----
  +--> _SPI_READ/MAIN
  +--> _SPI_READ_BUF/MAIN
  +--> _SPI_RW_REG/MAIN

_SPI_READ/MAIN                               ----- -----  ----- -----
  +--> _SPI_RW/MAIN

_SPI_READ_BUF/MAIN                           0038H 003CH  ----- -----
  +--> MAIN
  +--> _SPI_RW/MAIN

*** NEW ROOT *******************************

EXT0_IRQ/MAIN                                ----- -----  ----- -----

*** NEW ROOT *******************************

I2C_IRQ/MAIN                                 ----- -----  ----- -----
  +--> I2C_IRQ_HANDLER/HAL_W2_ISR

I2C_IRQ_HANDLER/HAL_W2_ISR                   ----- -----  ----- -----



PUBLIC SYMBOLS OF MODULE:  FProject (?C_STARTUP)


      VALUE       CLASS    TYPE      PUBLIC SYMBOL NAME
      =================================================
      020002A1H   XDATA    BYTE      ?_dmpGetQuaternion_int16?BYTE
      0000003DH   DATA     BYTE      ?_hal_w2_read?BYTE
      00000016H   DATA     BYTE      ?_hal_w2_write?BYTE
      0000000FH   DATA     BYTE      ?_i2c_mpu_readBit?BYTE
      00000022H   DATA     BYTE      ?_i2c_mpu_readBits?BYTE
      0000002EH   DATA     BYTE      ?_i2c_mpu_readBytes?BYTE
      00000022H   DATA     BYTE      ?_i2c_mpu_writeBit?BYTE
      00000022H   DATA     BYTE      ?_i2c_mpu_writeBits?BYTE
      0000002AH   DATA     BYTE      ?_i2c_mpu_writeBytes?BYTE
      00000024H   DATA     BYTE      ?_i2c_mpu_writeWords?BYTE
      02000339H   XDATA    BYTE      ?_readMemoryBlock?BYTE
      00000048H   DATA     BYTE      ?_send_packet_from_host_to_computer?BYTE
      00000043H   DATA     BYTE      ?_send_packet_to_computer?BYTE
      00000022H   DATA     BYTE      ?_send_packet_to_host?BYTE
      00000038H   DATA     BYTE      ?_SPI_Read_Buf?BYTE
      00000029H   DATA     BYTE      ?_SPI_Write_Buf?BYTE
      02000339H   XDATA    BYTE      ?_writeDMPConfigurationSet?BYTE
      02000349H   XDATA    BYTE      ?_writeMemoryBlock?BYTE
      02000339H   XDATA    BYTE      ?_writeProgMemoryBlock?BYTE
      01000560H   CODE     ---       ?C?CLDOPTR
      01000547H   CODE     ---       ?C?CLDPTR
      00000000H   NUMBER   ---       ?C?CODESEG
      01000900H   CODE     ---       ?C?COPY
LX51 LINKER/LOCATER V4.66.62.0                                                        11/16/2016  22:07:09  PAGE 12


      0100059FH   CODE     ---       ?C?CSTOPTR
      0100058DH   CODE     ---       ?C?CSTPTR
      010005C1H   CODE     ---       ?C?IILDX
      010005D7H   CODE     ---       ?C?ILDIX
      010005EDH   CODE     ---       ?C?ILDPTR
      01000637H   CODE     ---       ?C?ISTOPTR
      01000618H   CODE     ---       ?C?ISTPTR
      0100080CH   CODE     ---       ?C?MEMCMP
      01000664H   CODE     ---       ?C?PLDIIDATA
      01000674H   CODE     ---       ?C?PLDXDATA
      0100067DH   CODE     ---       ?C?PSTXDATA
      00000000H   NUMBER   ---       ?C?XDATASEG
      01001539H   CODE     ---       ?C_START
      01000000H   CODE     ---       ?C_STARTUP
      0200035BH   XDATA    ---       __mem_avail__
      01001D22H   CODE     ---       _delay_ms
      01001CE9H   CODE     ---       _delay_us
      010016EEH   CODE     ---       _dmpGetQuaternion_int16
      01001083H   CODE     ---       _free
      01001B39H   CODE     ---       _getFIFOBytes
      0100131FH   CODE     ---       _getMotion6_packet
      0100202BH   CODE     ---       _hal_w2_all_irq_enable
      01001FF4H   CODE     ---       _hal_w2_alter_clock
      01001BDBH   CODE     ---       _hal_w2_configure_master
      01002020H   CODE     ---       _hal_w2_enable
      01001D93H   CODE     ---       _hal_w2_init_transfer
      0100200AH   CODE     ---       _hal_w2_irq_adr_match_enable
      01001FFFH   CODE     ---       _hal_w2_irq_stop_cond_enable
      010019B4H   CODE     ---       _hal_w2_read
      01001FE9H   CODE     ---       _hal_w2_respond_to_gen_adr
      01001F37H   CODE     ---       _hal_w2_set_clk_freq
      01002015H   CODE     ---       _hal_w2_set_op_mode
      0100211CH   CODE     ---       _hal_w2_set_slave_address
      01001A6BH   CODE     ---       _hal_w2_write
      01001BB7H   CODE     ---       _i2c_mpu_readBit
      01001820H   CODE     ---       _i2c_mpu_readBits
      01001DA5H   CODE     ---       _i2c_mpu_readByte
      010017C3H   CODE     ---       _i2c_mpu_readBytes
      01001921H   CODE     ---       _i2c_mpu_writeBit
      01001760H   CODE     ---       _i2c_mpu_writeBits
      01001DEAH   CODE     ---       _i2c_mpu_writeByte
      01001A31H   CODE     ---       _i2c_mpu_writeBytes
      01001D5CH   CODE     ---       _i2c_mpu_writeWord
      01001878H   CODE     ---       _i2c_mpu_writeWords
      0100000EH   CODE     ---       _init_mempool
      010013BDH   CODE     ---       _malloc
      01001C3BH   CODE     ---       _putstring
      01001264H   CODE     ---       _readMemoryBlock
      01001603H   CODE     ---       _realloc
      01001AD8H   CODE     ---       _send_packet_from_host_to_computer
      01001AA3H   CODE     ---       _send_packet_to_computer
      010018CEH   CODE     ---       _send_packet_to_host
      01001E3BH   CODE     ---       _setClockSource
      01001EE3H   CODE     ---       _setDLPFMode
      010020BEH   CODE     ---       _setDMPConfig1
      010020C7H   CODE     ---       _setDMPConfig2
      01001FC8H   CODE     ---       _setDMPEnabled
      01001ED5H   CODE     ---       _setExternalFrameSync
      01001FDEH   CODE     ---       _setFIFOEnabled
      01001E57H   CODE     ---       _setFullScaleAccelRange
      01001E49H   CODE     ---       _setFullScaleGyroRange
      01001FD3H   CODE     ---       _setI2CMasterModeEnabled
      010020ACH   CODE     ---       _setIntEnabled
      01001C8FH   CODE     ---       _setMemoryBank
      010020A3H   CODE     ---       _setMemoryStartAddress
LX51 LINKER/LOCATER V4.66.62.0                                                        11/16/2016  22:07:09  PAGE 13


      010020E2H   CODE     ---       _setMotionDetectionDuration
      010020D0H   CODE     ---       _setMotionDetectionThreshold
      0100205EH   CODE     ---       _setOTPBankValid
      010020B5H   CODE     ---       _setRate
      01001CC4H   CODE     ---       _setSlaveAddress
      01001FA7H   CODE     ---       _setSleepEnabled
      010020F4H   CODE     ---       _setXAccelOffset
      0100210CH   CODE     ---       _setXGyroOffset
      01002068H   CODE     ---       _setXGyroOffsetTC
      010020FCH   CODE     ---       _setYAccelOffset
      01001FB2H   CODE     ---       _setYGyroOffset
      01002072H   CODE     ---       _setYGyroOffsetTC
      01002104H   CODE     ---       _setZAccelOffset
      010020EBH   CODE     ---       _setZeroMotionDetectionDuration
      010020D9H   CODE     ---       _setZeroMotionDetectionThreshold
      01001FBDH   CODE     ---       _setZGyroOffset
      0100207CH   CODE     ---       _setZGyroOffsetTC
      01001F53H   CODE     ---       _SPI_Read
      01001B65H   CODE     ---       _SPI_Read_Buf
      0100204AH   CODE     ---       _SPI_RW
      01001D36H   CODE     ---       _SPI_RW_Reg
      01001C1CH   CODE     ---       _SPI_Write_Buf
      01001B0DH   CODE     ---       _TX_Mode_NOACK
      01001DD1H   CODE     ---       _uart_putchar
      01000CC9H   CODE     ---       _writeDMPConfigurationSet
      01000B25H   CODE     ---       _writeMemoryBlock
      01002054H   CODE     ---       _writeProgDMPConfigurationSet
      01001BFCH   CODE     ---       _writeProgMemoryBlock
*SFR* 000000D0H.6 DATA     BIT       AC
*SFR* 000000E0H   DATA     BYTE      ACC
*SFR* 000000D3H   DATA     BYTE      ADCCON1
*SFR* 000000D2H   DATA     BYTE      ADCCON2
*SFR* 000000D1H   DATA     BYTE      ADCCON3
*SFR* 000000D4H   DATA     BYTE      ADCDATH
*SFR* 000000D5H   DATA     BYTE      ADCDATL
*SFR* 000000D8H   DATA     BYTE      ADCON
      010024A8H   CONST    ---       ADDR_HOST
*SFR* 000000EFH   DATA     BYTE      ARCON
*SFR* 000000F0H   DATA     BYTE      B
*SFR* 000000D8H.7 DATA     BIT       BD
      02000293H   XDATA    ---       buffer
*SFR* 000000C2H   DATA     WORD      CC1
*SFR* 000000C4H   DATA     WORD      CC2
*SFR* 000000C6H   DATA     WORD      CC3
*SFR* 000000C1H   DATA     BYTE      CCEN
*SFR* 000000C3H   DATA     BYTE      CCH1
*SFR* 000000C5H   DATA     BYTE      CCH2
*SFR* 000000C7H   DATA     BYTE      CCH3
*SFR* 000000C2H   DATA     BYTE      CCL1
*SFR* 000000C4H   DATA     BYTE      CCL2
*SFR* 000000C6H   DATA     BYTE      CCL3
*SFR* 000000DDH   DATA     BYTE      CCPDATIA
*SFR* 000000DEH   DATA     BYTE      CCPDATIB
*SFR* 000000DFH   DATA     BYTE      CCPDATO
*SFR* 000000A3H   DATA     BYTE      CLKCTRL
*SFR* 000000ADH   DATA     BYTE      CLKLFCTRL
*SFR* 000000DBH   DATA     BYTE      COMPCON
      01001187H   CODE     ---       configura_dmp
*SFR* 000000CAH   DATA     WORD      CRC
*SFR* 000000CBH   DATA     BYTE      CRCH
*SFR* 000000CAH   DATA     BYTE      CRCL
*SFR* 000000D0H.7 DATA     BIT       CY
      00000050H   DATA     BYTE      data_ready
      0200028FH   XDATA    BYTE      devStatus
      01002C36H   CONST    ---       dmpConfig
LX51 LINKER/LOCATER V4.66.62.0                                                        11/16/2016  22:07:09  PAGE 14


      0100209AH   CODE     ---       dmpGetFIFOPacketSize
      01000056H   CODE     ---       dmpInitialize
      010024ADH   CONST    ---       dmpMemory
      02000291H   XDATA    ---       dmpPacketBuffer
      0200028DH   XDATA    WORD      dmpPacketSize
      0000001FH   DATA     BYTE      dmpReady
      01002CF6H   CONST    ---       dmpUpdates
*SFR* 00000083H   DATA     BYTE      DPH
*SFR* 00000085H   DATA     BYTE      DPH1
*SFR* 00000082H   DATA     BYTE      DPL
*SFR* 00000084H   DATA     BYTE      DPL1
*SFR* 00000092H   DATA     BYTE      DPS
*SFR* 000000A8H.7 DATA     BIT       EA
*SFR* 000000A8H.4 DATA     BIT       ES0
*SFR* 000000A8H.1 DATA     BIT       ET0
*SFR* 000000A8H.3 DATA     BIT       ET1
*SFR* 000000A8H.5 DATA     BIT       ET2
*SFR* 000000A8H   DATA     BIT       EX0
*SFR* 000000A8H.2 DATA     BIT       EX1
*SFR* 000000B8H.7 DATA     BIT       EXEN2
*SFR* 000000C0H.7 DATA     BIT       EXF2
      01000006H   CODE     ---       ext0_irq
*SFR* 000000D0H.5 DATA     BIT       F0
*SFR* 000000FAH   DATA     BYTE      FCR
*SFR* 000000FBH   DATA     BYTE      FDCR
      02000000H   XDATA    ---       fifoBuffer
      0200028BH   XDATA    WORD      fifoCount
*SFR* 000000F9H   DATA     BYTE      FPCR
*SFR* 000000F8H   DATA     BYTE      FSR
      01001EF1H   CODE     ---       getDMPConfig1
      01001EFFH   CODE     ---       getDMPConfig2
      01001EB9H   CODE     ---       getFIFOCount
      01001D6FH   CODE     ---       getFIFOEnabled
      01001EC7H   CODE     ---       getIntStatus
      01001F29H   CODE     ---       getMotionDetectionDuration
      01001F0DH   CODE     ---       getMotionDetectionThreshold
      01001DD9H   CODE     ---       getOTPBankValid
      01001E65H   CODE     ---       getXAccelOffset
      01001E8FH   CODE     ---       getXGyroOffset
      01001E0BH   CODE     ---       getXGyroOffsetTC
      01001E73H   CODE     ---       getYAccelOffset
      01001E9DH   CODE     ---       getYGyroOffset
      01001E1BH   CODE     ---       getYGyroOffsetTC
      01001E81H   CODE     ---       getZAccelOffset
      01001D49H   CODE     ---       getZeroMotionDetectionDuration
      01001F1BH   CODE     ---       getZeroMotionDetectionThreshold
      01001EABH   CODE     ---       getZGyroOffset
      01001E2BH   CODE     ---       getZGyroOffsetTC
      0100167BH   CODE     ---       hal_w2_soft_reset
      01001B90H   CODE     ---       hal_w2_wait_data_ready
      01002086H   CODE     ---       hal_w2_wait_data_ready_ISR
      010019F6H   CODE     ---       I2C_IRQ
      01002090H   CODE     ---       I2C_IRQ_handler
      01001F78H   CODE     ---       i2c_mpu_reset
*SFR* 000000C8H.5 DATA     BIT       I2FR
*SFR* 000000C8H.6 DATA     BIT       I3FR
*SFR* 00000088H.1 DATA     BIT       IE0
*SFR* 00000088H.3 DATA     BIT       IE1
*SFR* 000000A8H   DATA     BYTE      IEN0
*SFR* 000000B8H   DATA     BYTE      IEN1
*SFR* 000000F8H.3 DATA     BIT       INFEN
      01001D81H   CODE     ---       iniciarIO
      01001F60H   CODE     ---       iniciarRF
*SFR* 000000A6H   DATA     BYTE      INTEXP
*SFR* 000000A9H   DATA     BYTE      IP0
LX51 LINKER/LOCATER V4.66.62.0                                                        11/16/2016  22:07:09  PAGE 15


*SFR* 000000B9H   DATA     BYTE      IP1
*SFR* 000000C0H   DATA     BYTE      IRCON
*SFR* 00000088H   DATA     BIT       IT0
*SFR* 00000088H.2 DATA     BIT       IT1
*SFR* 00000080H.3 DATA     BIT       LEDVM
      01000F7CH   CODE     ---       ler_dmp
      01001C57H   CODE     ---       luzes_iniciais
      01000E58H   CODE     ---       main
      02000081H   XDATA    ---       malloc_memory_pool
      00000020H.4 DATA     BIT       MAX_RT
*SFR* 000000F8H.7 DATA     BIT       MCDIS
*SFR* 000000E9H   DATA     BYTE      MD0
*SFR* 000000EAH   DATA     BYTE      MD1
*SFR* 000000EBH   DATA     BYTE      MD2
*SFR* 000000ECH   DATA     BYTE      MD3
*SFR* 000000EDH   DATA     BYTE      MD4
*SFR* 000000EEH   DATA     BYTE      MD5
*SFR* 000000A7H   DATA     BYTE      MEMCON
*SFR* 000000B8H.4 DATA     BIT       MISC
*SFR* 000000C0H.4 DATA     BIT       MISCF
*SFR* 000000C9H   DATA     BYTE      MPAGE
      01001F9CH   CODE     ---       mpu_8051_malloc_setup
      01001D0EH   CODE     ---       mpu_initialize
      01001CF8H   CODE     ---       mpu_testConnection
      0000001EH   DATA     BYTE      mpuInterrupt
      02000040H   XDATA    BYTE      mpuIntStatus
      00000021H.0 BIT      BIT       newPayload
*SFR* 000000AEH   DATA     BYTE      OPMCON
*SFR* 000000D0H.2 DATA     BIT       OV
*SFR* 000000D0H   DATA     BIT       P
*SFR* 00000080H   DATA     BYTE      P0
*SFR* 00000080H   DATA     BIT       P00
*SFR* 00000080H.1 DATA     BIT       P01
*SFR* 00000080H.2 DATA     BIT       P02
*SFR* 00000080H.3 DATA     BIT       P03
*SFR* 00000080H.4 DATA     BIT       P04
*SFR* 00000080H.5 DATA     BIT       P05
*SFR* 00000080H.6 DATA     BIT       P06
*SFR* 00000080H.7 DATA     BIT       P07
*SFR* 0000009EH   DATA     BYTE      P0CON
*SFR* 00000093H   DATA     BYTE      P0DIR
*SFR* 00000090H   DATA     BYTE      P1
*SFR* 00000090H   DATA     BIT       P10
*SFR* 00000090H.1 DATA     BIT       P11
*SFR* 00000090H.2 DATA     BIT       P12
*SFR* 00000090H.3 DATA     BIT       P13
*SFR* 00000090H.4 DATA     BIT       P14
*SFR* 00000090H.5 DATA     BIT       P15
*SFR* 00000090H.6 DATA     BIT       P16
*SFR* 00000090H.7 DATA     BIT       P17
*SFR* 0000009FH   DATA     BYTE      P1CON
*SFR* 00000094H   DATA     BYTE      P1DIR
*SFR* 000000A0H   DATA     BYTE      P2
*SFR* 000000A0H   DATA     BIT       P20
*SFR* 000000A0H.1 DATA     BIT       P21
*SFR* 000000A0H.2 DATA     BIT       P22
*SFR* 000000A0H.3 DATA     BIT       P23
*SFR* 000000A0H.4 DATA     BIT       P24
*SFR* 000000A0H.5 DATA     BIT       P25
*SFR* 000000A0H.6 DATA     BIT       P26
*SFR* 000000A0H.7 DATA     BIT       P27
*SFR* 00000097H   DATA     BYTE      P2CON
*SFR* 00000095H   DATA     BYTE      P2DIR
*SFR* 000000B0H   DATA     BYTE      P3
*SFR* 000000B0H   DATA     BIT       P30
LX51 LINKER/LOCATER V4.66.62.0                                                        11/16/2016  22:07:09  PAGE 16


*SFR* 000000B0H.1 DATA     BIT       P31
*SFR* 000000B0H.2 DATA     BIT       P32
*SFR* 000000B0H.3 DATA     BIT       P33
*SFR* 000000B0H.4 DATA     BIT       P34
*SFR* 000000B0H.5 DATA     BIT       P35
*SFR* 000000B0H.6 DATA     BIT       P36
*SFR* 000000B0H.7 DATA     BIT       P37
*SFR* 0000008FH   DATA     BYTE      P3CON
*SFR* 00000096H   DATA     BYTE      P3DIR
      0200027FH   XDATA    ---       packet_motion6
      02000277H   XDATA    ---       packet_quat
      02000275H   XDATA    WORD      packetSize
      02000290H   XDATA    BYTE      payloadWidth
*SFR* 00000087H   DATA     BYTE      PCON
      01002114H   CODE     ---       pin_isr_setup
*SFR* 000000DCH   DATA     BYTE      POFCON
*SFR* 000000D0H   DATA     BYTE      PSW
*SFR* 000000B2H   DATA     BYTE      PWMCON
*SFR* 000000A1H   DATA     BYTE      PWMDC0
*SFR* 000000A2H   DATA     BYTE      PWMDC1
*SFR* 000000A4H   DATA     BYTE      PWRDWN
*SFR* 00000098H.2 DATA     BIT       RB80
*SFR* 000000F8H.1 DATA     BIT       RDEND
*SFR* 000000F8H.2 DATA     BIT       RDIS
*SFR* 000000F8H.4 DATA     BIT       RDYN
*SFR* 00000098H.4 DATA     BIT       REN0
      01001F90H   CODE     ---       resetDMP
      01001F6CH   CODE     ---       resetFIFO
      01001F84H   CODE     ---       resetI2CMaster
*SFR* 000000B8H.1 DATA     BIT       RF
      0100196FH   CODE     ---       rf_init
      0100157EH   CODE     ---       RF_IRQ
*SFR* 000000E8H   DATA     BIT       RFCE
*SFR* 000000E8H.2 DATA     BIT       RFCKEN
*SFR* 000000E8H   DATA     BYTE      RFCON
*SFR* 000000E8H.1 DATA     BIT       RFCSN
*SFR* 000000C0H.1 DATA     BIT       RFF
*SFR* 000000B8H   DATA     BIT       RFSPI
*SFR* 000000C0H   DATA     BIT       RFSPIF
*SFR* 00000098H   DATA     BIT       RI0
*SFR* 000000D6H   DATA     BYTE      RNGCTL
*SFR* 000000D7H   DATA     BYTE      RNGDAT
*SFR* 000000D0H.3 DATA     BIT       RS0
*SFR* 000000D0H.4 DATA     BIT       RS1
*SFR* 000000B1H   DATA     BYTE      RSTREAS
*SFR* 000000B4H   DATA     BYTE      RTC2CMP0
*SFR* 000000B5H   DATA     BYTE      RTC2CMP1
*SFR* 000000B3H   DATA     BYTE      RTC2CON
*SFR* 000000B6H   DATA     BYTE      RTC2CPT00
*SFR* 000000ABH   DATA     BYTE      RTC2CPT01
*SFR* 000000ACH   DATA     BYTE      RTC2CPT10
      02000041H   XDATA    ---       rx_buf
      00000020H.6 DATA     BIT       RX_DR
      01001DB7H   CODE     ---       RX_Mode
*SFR* 00000099H   DATA     BYTE      S0BUF
*SFR* 00000098H   DATA     BYTE      S0CON
*SFR* 000000BAH   DATA     BYTE      S0RELH
*SFR* 000000AAH   DATA     BYTE      S0RELL
*SFR* 00000080H.2 DATA     BIT       S1
*SFR* 00000090H.4 DATA     BIT       S2
      01001459H   CODE     ---       setup
*SFR* 00000098H.7 DATA     BIT       SM0
*SFR* 00000098H.6 DATA     BIT       SM1
*SFR* 00000098H.5 DATA     BIT       SM20
*SFR* 00000081H   DATA     BYTE      SP
LX51 LINKER/LOCATER V4.66.62.0                                                        11/16/2016  22:07:09  PAGE 17


*SFR* 000000B8H.2 DATA     BIT       SPI
*SFR* 000000C0H.2 DATA     BIT       SPIF
*SFR* 000000FCH   DATA     BYTE      SPIMCON0
*SFR* 000000FDH   DATA     BYTE      SPIMCON1
*SFR* 000000FFH   DATA     BYTE      SPIMDAT
*SFR* 000000FEH   DATA     BYTE      SPIMSTAT
*SFR* 000000E4H   DATA     BYTE      SPIRCON0
*SFR* 000000E5H   DATA     BYTE      SPIRCON1
*SFR* 000000E7H   DATA     BYTE      SPIRDAT
*SFR* 000000E6H   DATA     BYTE      SPIRSTAT
*SFR* 000000BCH   DATA     BYTE      SPISCON0
*SFR* 000000BDH   DATA     BYTE      SPISCON1
*SFR* 000000BFH   DATA     BYTE      SPISDAT
*SFR* 000000B7H   DATA     BYTE      SPISRDSZ
*SFR* 000000BEH   DATA     BYTE      SPISSTAT
      00000020H   DATA     BYTE      sta
      01002036H   CODE     ---       start_T0
      01002040H   CODE     ---       stop_T0
*SFR* 000000F8H.6 DATA     BIT       STP
*SFR* 000000CCH   DATA     WORD      T2
*SFR* 000000C8H.2 DATA     BIT       T2CM
*SFR* 000000C8H   DATA     BYTE      T2CON
*SFR* 000000C8H   DATA     BIT       T2I0
*SFR* 000000C8H.1 DATA     BIT       T2I1
*SFR* 000000C8H.7 DATA     BIT       T2PS
*SFR* 000000C8H.3 DATA     BIT       T2R0
*SFR* 000000C8H.4 DATA     BIT       T2R1
*SFR* 00000098H.3 DATA     BIT       TB80
*SFR* 00000088H   DATA     BYTE      TCON
*SFR* 00000088H.5 DATA     BIT       TF0
*SFR* 00000088H.7 DATA     BIT       TF1
*SFR* 000000C0H.6 DATA     BIT       TF2
*SFR* 0000008CH   DATA     BYTE      TH0
*SFR* 0000008DH   DATA     BYTE      TH1
*SFR* 000000CDH   DATA     BYTE      TH2
*SFR* 00000098H.1 DATA     BIT       TI0
      0000001CH   DATA     INT       timer_flag
*SFR* 0000008AH   DATA     BYTE      TL0
*SFR* 0000008BH   DATA     BYTE      TL1
*SFR* 000000CCH   DATA     BYTE      TL2
*SFR* 00000089H   DATA     BYTE      TMOD
      01001DFBH   CODE     ---       TMR0_IRQ
*SFR* 00000088H.4 DATA     BIT       TR0
*SFR* 00000088H.6 DATA     BIT       TR1
      02000061H   XDATA    ---       tx_buf
      00000020H.5 DATA     BIT       TX_DS
      01001CAAH   CODE     ---       uart_init
      00000051H   DATA     BYTE      w2_status
*SFR* 000000E2H   DATA     BYTE      W2CON0
*SFR* 000000E1H   DATA     BYTE      W2CON1
*SFR* 000000DAH   DATA     BYTE      W2DAT
*SFR* 000000D9H   DATA     BYTE      W2SADR
*SFR* 000000AFH   DATA     BYTE      WDSV
*SFR* 000000F8H.5 DATA     BIT       WEN
*SFR* 000000F8H   DATA     BIT       WPEN
*SFR* 000000A5H   DATA     BYTE      WUCON
*SFR* 000000C0H.5 DATA     BIT       WUF
*SFR* 000000B8H.5 DATA     BIT       WUIRQ
*SFR* 000000CFH   DATA     BYTE      WUOPC0
*SFR* 000000CEH   DATA     BYTE      WUOPC1
*SFR* 000000B8H.3 DATA     BIT       WUPIN
*SFR* 000000C0H.3 DATA     BIT       WUPINF



LX51 LINKER/LOCATER V4.66.62.0                                                        11/16/2016  22:07:09  PAGE 18


SYMBOL TABLE OF MODULE:  FProject (?C_STARTUP)

      VALUE       REP       CLASS    TYPE      SYMBOL NAME
      ====================================================
      ---         MODULE    ---      ---       ?C_STARTUP
      01000000H   PUBLIC    CODE     ---       ?C_STARTUP
      000000E0H   SYMBOL    DATA     ---       ACC
      000000F0H   SYMBOL    DATA     ---       B
      00000083H   SYMBOL    DATA     ---       DPH
      00000082H   SYMBOL    DATA     ---       DPL
      00000000H   SYMBOL    NUMBER   ---       IBPSTACK
      00000100H   SYMBOL    NUMBER   ---       IBPSTACKTOP
      00000080H   SYMBOL    NUMBER   ---       IDATALEN
      010014F5H   SYMBOL    CODE     ---       IDATALOOP
      00000000H   SYMBOL    NUMBER   ---       PBPSTACK
      00000100H   SYMBOL    NUMBER   ---       PBPSTACKTOP
      00000000H   SYMBOL    NUMBER   ---       PDATALEN
      00000000H   SYMBOL    NUMBER   ---       PDATASTART
      00000000H   SYMBOL    NUMBER   ---       PPAGE
      00000000H   SYMBOL    NUMBER   ---       PPAGEENABLE
      000000A0H   SYMBOL    DATA     ---       PPAGE_SFR
      00000081H   SYMBOL    DATA     ---       SP
      010014F2H   SYMBOL    CODE     ---       STARTUP1
      00000000H   SYMBOL    NUMBER   ---       XBPSTACK
      00000000H   SYMBOL    NUMBER   ---       XBPSTACKTOP
      00000000H   SYMBOL    NUMBER   ---       XDATALEN
      00000000H   SYMBOL    NUMBER   ---       XDATASTART
      01000000H   LINE      CODE     ---       #126
      010014F2H   LINE      CODE     ---       #133
      010014F4H   LINE      CODE     ---       #134
      010014F5H   LINE      CODE     ---       #135
      010014F6H   LINE      CODE     ---       #136
      010014F8H   LINE      CODE     ---       #185
      010014FBH   LINE      CODE     ---       #196

      ---         MODULE    ---      ---       MAIN
      02000293H   PUBLIC    XDATA    ---       buffer
      02000291H   PUBLIC    XDATA    ---       dmpPacketBuffer
      02000290H   PUBLIC    XDATA    BYTE      payloadWidth
      00000020H.4 PUBLIC    DATA     BIT       MAX_RT
      0200028FH   PUBLIC    XDATA    BYTE      devStatus
      0200028DH   PUBLIC    XDATA    WORD      dmpPacketSize
      0000001FH   PUBLIC    DATA     BYTE      dmpReady
      0200028BH   PUBLIC    XDATA    WORD      fifoCount
      0200027FH   PUBLIC    XDATA    ---       packet_motion6
      0000001EH   PUBLIC    DATA     BYTE      mpuInterrupt
      00000020H.5 PUBLIC    DATA     BIT       TX_DS
      0000001CH   PUBLIC    DATA     INT       timer_flag
      00000020H.6 PUBLIC    DATA     BIT       RX_DR
      00000020H   PUBLIC    DATA     BYTE      sta
      00000021H.0 PUBLIC    BIT      BIT       newPayload
      02000277H   PUBLIC    XDATA    ---       packet_quat
      02000275H   PUBLIC    XDATA    WORD      packetSize
      02000081H   PUBLIC    XDATA    ---       malloc_memory_pool
      02000061H   PUBLIC    XDATA    ---       tx_buf
      02000041H   PUBLIC    XDATA    ---       rx_buf
      02000040H   PUBLIC    XDATA    BYTE      mpuIntStatus
      02000000H   PUBLIC    XDATA    ---       fifoBuffer
      01002CF6H   PUBLIC    CONST    ---       dmpUpdates
      01002C36H   PUBLIC    CONST    ---       dmpConfig
      010024ADH   PUBLIC    CONST    ---       dmpMemory
      010024A8H   PUBLIC    CONST    ---       ADDR_HOST
      010019F6H   PUBLIC    CODE     ---       I2C_IRQ
      01001C57H   PUBLIC    CODE     ---       luzes_iniciais
      01000E58H   PUBLIC    CODE     ---       main
LX51 LINKER/LOCATER V4.66.62.0                                                        11/16/2016  22:07:09  PAGE 19


      01000F7CH   PUBLIC    CODE     ---       ler_dmp
      01001187H   PUBLIC    CODE     ---       configura_dmp
      01001459H   PUBLIC    CODE     ---       setup
      01001D81H   PUBLIC    CODE     ---       iniciarIO
      01000006H   PUBLIC    CODE     ---       ext0_irq
      01002114H   PUBLIC    CODE     ---       pin_isr_setup
      020002A1H   PUBLIC    XDATA    BYTE      ?_dmpGetQuaternion_int16?BYTE
      010016EEH   PUBLIC    CODE     ---       _dmpGetQuaternion_int16
      01000056H   PUBLIC    CODE     ---       dmpInitialize
      01001F90H   PUBLIC    CODE     ---       resetDMP
      01001FDEH   PUBLIC    CODE     ---       _setFIFOEnabled
      01001D6FH   PUBLIC    CODE     ---       getFIFOEnabled
      010020EBH   PUBLIC    CODE     ---       _setZeroMotionDetectionDuration
      01001D49H   PUBLIC    CODE     ---       getZeroMotionDetectionDuration
      010020E2H   PUBLIC    CODE     ---       _setMotionDetectionDuration
      01001F29H   PUBLIC    CODE     ---       getMotionDetectionDuration
      010020D9H   PUBLIC    CODE     ---       _setZeroMotionDetectionThreshold
      01001F1BH   PUBLIC    CODE     ---       getZeroMotionDetectionThreshold
      010020D0H   PUBLIC    CODE     ---       _setMotionDetectionThreshold
      01001F0DH   PUBLIC    CODE     ---       getMotionDetectionThreshold
      0100207CH   PUBLIC    CODE     ---       _setZGyroOffsetTC
      01001E2BH   PUBLIC    CODE     ---       getZGyroOffsetTC
      01002072H   PUBLIC    CODE     ---       _setYGyroOffsetTC
      01001E1BH   PUBLIC    CODE     ---       getYGyroOffsetTC
      01002068H   PUBLIC    CODE     ---       _setXGyroOffsetTC
      01001E0BH   PUBLIC    CODE     ---       getXGyroOffsetTC
      0100205EH   PUBLIC    CODE     ---       _setOTPBankValid
      01001DD9H   PUBLIC    CODE     ---       getOTPBankValid
      010020C7H   PUBLIC    CODE     ---       _setDMPConfig2
      01001EFFH   PUBLIC    CODE     ---       getDMPConfig2
      010020BEH   PUBLIC    CODE     ---       _setDMPConfig1
      01001EF1H   PUBLIC    CODE     ---       getDMPConfig1
      01001EE3H   PUBLIC    CODE     ---       _setDLPFMode
      01001ED5H   PUBLIC    CODE     ---       _setExternalFrameSync
      010020B5H   PUBLIC    CODE     ---       _setRate
      010020ACH   PUBLIC    CODE     ---       _setIntEnabled
      01001F84H   PUBLIC    CODE     ---       resetI2CMaster
      01001FD3H   PUBLIC    CODE     ---       _setI2CMasterModeEnabled
      01001CC4H   PUBLIC    CODE     ---       _setSlaveAddress
      01001F78H   PUBLIC    CODE     ---       i2c_mpu_reset
      02000339H   PUBLIC    XDATA    BYTE      ?_writeProgMemoryBlock?BYTE
      01001BFCH   PUBLIC    CODE     ---       _writeProgMemoryBlock
      01002054H   PUBLIC    CODE     ---       _writeProgDMPConfigurationSet
      02000339H   PUBLIC    XDATA    BYTE      ?_readMemoryBlock?BYTE
      01001264H   PUBLIC    CODE     ---       _readMemoryBlock
      02000339H   PUBLIC    XDATA    BYTE      ?_writeDMPConfigurationSet?BYTE
      01000CC9H   PUBLIC    CODE     ---       _writeDMPConfigurationSet
      02000349H   PUBLIC    XDATA    BYTE      ?_writeMemoryBlock?BYTE
      01000B25H   PUBLIC    CODE     ---       _writeMemoryBlock
      010020A3H   PUBLIC    CODE     ---       _setMemoryStartAddress
      01001B39H   PUBLIC    CODE     ---       _getFIFOBytes
      0100209AH   PUBLIC    CODE     ---       dmpGetFIFOPacketSize
      01001F6CH   PUBLIC    CODE     ---       resetFIFO
      01001FC8H   PUBLIC    CODE     ---       _setDMPEnabled
      01001EC7H   PUBLIC    CODE     ---       getIntStatus
      01001EB9H   PUBLIC    CODE     ---       getFIFOCount
      01001C8FH   PUBLIC    CODE     ---       _setMemoryBank
      01001EABH   PUBLIC    CODE     ---       getZGyroOffset
      01001E9DH   PUBLIC    CODE     ---       getYGyroOffset
      01001E8FH   PUBLIC    CODE     ---       getXGyroOffset
      01001E81H   PUBLIC    CODE     ---       getZAccelOffset
      01001E73H   PUBLIC    CODE     ---       getYAccelOffset
      01001E65H   PUBLIC    CODE     ---       getXAccelOffset
      01001FBDH   PUBLIC    CODE     ---       _setZGyroOffset
      01001FB2H   PUBLIC    CODE     ---       _setYGyroOffset
LX51 LINKER/LOCATER V4.66.62.0                                                        11/16/2016  22:07:09  PAGE 20


      0100210CH   PUBLIC    CODE     ---       _setXGyroOffset
      01002104H   PUBLIC    CODE     ---       _setZAccelOffset
      010020FCH   PUBLIC    CODE     ---       _setYAccelOffset
      010020F4H   PUBLIC    CODE     ---       _setXAccelOffset
      0100131FH   PUBLIC    CODE     ---       _getMotion6_packet
      01001CF8H   PUBLIC    CODE     ---       mpu_testConnection
      01001D0EH   PUBLIC    CODE     ---       mpu_initialize
      01001FA7H   PUBLIC    CODE     ---       _setSleepEnabled
      01001E57H   PUBLIC    CODE     ---       _setFullScaleAccelRange
      01001E49H   PUBLIC    CODE     ---       _setFullScaleGyroRange
      01001E3BH   PUBLIC    CODE     ---       _setClockSource
      01001F9CH   PUBLIC    CODE     ---       mpu_8051_malloc_setup
      00000048H   PUBLIC    DATA     BYTE      ?_send_packet_from_host_to_computer?BYTE
      01001AD8H   PUBLIC    CODE     ---       _send_packet_from_host_to_computer
      00000043H   PUBLIC    DATA     BYTE      ?_send_packet_to_computer?BYTE
      01001AA3H   PUBLIC    CODE     ---       _send_packet_to_computer
      00000022H   PUBLIC    DATA     BYTE      ?_send_packet_to_host?BYTE
      010018CEH   PUBLIC    CODE     ---       _send_packet_to_host
      01001C3BH   PUBLIC    CODE     ---       _putstring
      01001DD1H   PUBLIC    CODE     ---       _uart_putchar
      01001CAAH   PUBLIC    CODE     ---       uart_init
      01001F60H   PUBLIC    CODE     ---       iniciarRF
      0100196FH   PUBLIC    CODE     ---       rf_init
      0100157EH   PUBLIC    CODE     ---       RF_IRQ
      01001B0DH   PUBLIC    CODE     ---       _TX_Mode_NOACK
      01001DB7H   PUBLIC    CODE     ---       RX_Mode
      00000029H   PUBLIC    DATA     BYTE      ?_SPI_Write_Buf?BYTE
      01001C1CH   PUBLIC    CODE     ---       _SPI_Write_Buf
      00000038H   PUBLIC    DATA     BYTE      ?_SPI_Read_Buf?BYTE
      01001B65H   PUBLIC    CODE     ---       _SPI_Read_Buf
      01001F53H   PUBLIC    CODE     ---       _SPI_Read
      01001D36H   PUBLIC    CODE     ---       _SPI_RW_Reg
      0100204AH   PUBLIC    CODE     ---       _SPI_RW
      01002040H   PUBLIC    CODE     ---       stop_T0
      01002036H   PUBLIC    CODE     ---       start_T0
      01001DFBH   PUBLIC    CODE     ---       TMR0_IRQ
      00000098H.3 SFRSYM    DATA     BIT       TB80
      000000BEH   SFRSYM    DATA     BYTE      SPISSTAT
      000000C8H   SFRSYM    DATA     BIT       T2I0
      000000C3H   SFRSYM    DATA     BYTE      CCH1
      00000080H   SFRSYM    DATA     BYTE      P0
      000000C8H.1 SFRSYM    DATA     BIT       T2I1
      000000DFH   SFRSYM    DATA     BYTE      CCPDATO
      000000C5H   SFRSYM    DATA     BYTE      CCH2
      00000090H   SFRSYM    DATA     BYTE      P1
      000000C7H   SFRSYM    DATA     BYTE      CCH3
      000000A0H   SFRSYM    DATA     BYTE      P2
      00000098H.5 SFRSYM    DATA     BIT       SM20
      000000B0H   SFRSYM    DATA     BYTE      P3
      00000080H.2 SFRSYM    DATA     BIT       S1
      000000D0H.6 SFRSYM    DATA     BIT       AC
      000000C2H   SFRSYM    DATA     BYTE      CCL1
      00000090H.4 SFRSYM    DATA     BIT       S2
      000000C4H   SFRSYM    DATA     BYTE      CCL2
      000000D8H.7 SFRSYM    DATA     BIT       BD
      000000B8H   SFRSYM    DATA     BIT       RFSPI
      000000A8H.7 SFRSYM    DATA     BIT       EA
      000000CCH   SFRSYM    DATA     WORD      T2
      000000C6H   SFRSYM    DATA     BYTE      CCL3
      000000B7H   SFRSYM    DATA     BYTE      SPISRDSZ
      000000C8H.3 SFRSYM    DATA     BIT       T2R0
      000000C8H.4 SFRSYM    DATA     BIT       T2R1
      000000A8H   SFRSYM    DATA     BYTE      IEN0
      000000B8H   SFRSYM    DATA     BYTE      IEN1
      000000A5H   SFRSYM    DATA     BYTE      WUCON
LX51 LINKER/LOCATER V4.66.62.0                                                        11/16/2016  22:07:09  PAGE 21


      00000085H   SFRSYM    DATA     BYTE      DPH1
      000000DBH   SFRSYM    DATA     BYTE      COMPCON
      000000A3H   SFRSYM    DATA     BYTE      CLKCTRL
      00000084H   SFRSYM    DATA     BYTE      DPL1
      000000C8H.5 SFRSYM    DATA     BIT       I2FR
      000000B8H.3 SFRSYM    DATA     BIT       WUPIN
      000000C8H.6 SFRSYM    DATA     BIT       I3FR
      000000FFH   SFRSYM    DATA     BYTE      SPIMDAT
      000000C0H.7 SFRSYM    DATA     BIT       EXF2
      00000098H.4 SFRSYM    DATA     BIT       REN0
      000000C8H.2 SFRSYM    DATA     BIT       T2CM
      000000B8H.1 SFRSYM    DATA     BIT       RF
      000000B8H.5 SFRSYM    DATA     BIT       WUIRQ
      000000E7H   SFRSYM    DATA     BYTE      SPIRDAT
      000000C1H   SFRSYM    DATA     BYTE      CCEN
      000000E2H   SFRSYM    DATA     BYTE      W2CON0
      000000BFH   SFRSYM    DATA     BYTE      SPISDAT
      000000D0H.7 SFRSYM    DATA     BIT       CY
      000000E1H   SFRSYM    DATA     BYTE      W2CON1
      000000FBH   SFRSYM    DATA     BYTE      FDCR
      000000E8H   SFRSYM    DATA     BIT       RFCE
      000000CBH   SFRSYM    DATA     BYTE      CRCH
      00000081H   SFRSYM    DATA     BYTE      SP
      000000D0H.2 SFRSYM    DATA     BIT       OV
      000000CAH   SFRSYM    DATA     BYTE      CRCL
      000000ADH   SFRSYM    DATA     BYTE      CLKLFCTRL
      000000B1H   SFRSYM    DATA     BYTE      RSTREAS
      000000C8H.7 SFRSYM    DATA     BIT       T2PS
      000000F9H   SFRSYM    DATA     BYTE      FPCR
      000000B8H.4 SFRSYM    DATA     BIT       MISC
      000000A1H   SFRSYM    DATA     BYTE      PWMDC0
      000000B4H   SFRSYM    DATA     BYTE      RTC2CMP0
      000000A2H   SFRSYM    DATA     BYTE      PWMDC1
      000000B5H   SFRSYM    DATA     BYTE      RTC2CMP1
      00000080H   SFRSYM    DATA     BIT       P00
      000000BAH   SFRSYM    DATA     BYTE      S0RELH
      00000090H   SFRSYM    DATA     BIT       P10
      00000080H.1 SFRSYM    DATA     BIT       P01
      00000087H   SFRSYM    DATA     BYTE      PCON
      000000A0H   SFRSYM    DATA     BIT       P20
      00000090H.1 SFRSYM    DATA     BIT       P11
      00000080H.2 SFRSYM    DATA     BIT       P02
      000000B0H   SFRSYM    DATA     BIT       P30
      000000A0H.1 SFRSYM    DATA     BIT       P21
      00000090H.2 SFRSYM    DATA     BIT       P12
      00000080H.3 SFRSYM    DATA     BIT       P03
      000000C0H.2 SFRSYM    DATA     BIT       SPIF
      000000F8H.2 SFRSYM    DATA     BIT       RDIS
      000000B0H.1 SFRSYM    DATA     BIT       P31
      000000A0H.2 SFRSYM    DATA     BIT       P22
      00000090H.3 SFRSYM    DATA     BIT       P13
      00000080H.4 SFRSYM    DATA     BIT       P04
      000000AAH   SFRSYM    DATA     BYTE      S0RELL
      000000B0H.2 SFRSYM    DATA     BIT       P32
      000000A0H.3 SFRSYM    DATA     BIT       P23
      00000090H.4 SFRSYM    DATA     BIT       P14
      00000080H.5 SFRSYM    DATA     BIT       P05
      000000D9H   SFRSYM    DATA     BYTE      W2SADR
      00000089H   SFRSYM    DATA     BYTE      TMOD
      00000088H   SFRSYM    DATA     BYTE      TCON
      000000B0H.3 SFRSYM    DATA     BIT       P33
      000000A0H.4 SFRSYM    DATA     BIT       P24
      00000090H.5 SFRSYM    DATA     BIT       P15
      00000080H.6 SFRSYM    DATA     BIT       P06
      000000B0H.4 SFRSYM    DATA     BIT       P34
LX51 LINKER/LOCATER V4.66.62.0                                                        11/16/2016  22:07:09  PAGE 22


      000000A0H.5 SFRSYM    DATA     BIT       P25
      00000090H.6 SFRSYM    DATA     BIT       P16
      00000080H.7 SFRSYM    DATA     BIT       P07
      000000C2H   SFRSYM    DATA     WORD      CC1
      000000B0H.5 SFRSYM    DATA     BIT       P35
      000000A0H.6 SFRSYM    DATA     BIT       P26
      00000090H.7 SFRSYM    DATA     BIT       P17
      000000C4H   SFRSYM    DATA     WORD      CC2
      000000B0H.6 SFRSYM    DATA     BIT       P36
      000000A0H.7 SFRSYM    DATA     BIT       P27
      000000C6H   SFRSYM    DATA     WORD      CC3
      000000B0H.7 SFRSYM    DATA     BIT       P37
      000000E8H.2 SFRSYM    DATA     BIT       RFCKEN
      000000F8H   SFRSYM    DATA     BIT       WPEN
      000000DDH   SFRSYM    DATA     BYTE      CCPDATIA
      000000DEH   SFRSYM    DATA     BYTE      CCPDATIB
      00000088H.1 SFRSYM    DATA     BIT       IE0
      000000F8H.4 SFRSYM    DATA     BIT       RDYN
      00000088H.3 SFRSYM    DATA     BIT       IE1
      000000CFH   SFRSYM    DATA     BYTE      WUOPC0
      000000F0H   SFRSYM    DATA     BYTE      B
      000000E9H   SFRSYM    DATA     BYTE      MD0
      000000CEH   SFRSYM    DATA     BYTE      WUOPC1
      000000A7H   SFRSYM    DATA     BYTE      MEMCON
      000000EAH   SFRSYM    DATA     BYTE      MD1
      000000D7H   SFRSYM    DATA     BYTE      RNGDAT
      000000EBH   SFRSYM    DATA     BYTE      MD2
      000000ECH   SFRSYM    DATA     BYTE      MD3
      000000EDH   SFRSYM    DATA     BYTE      MD4
      000000AFH   SFRSYM    DATA     BYTE      WDSV
      000000EEH   SFRSYM    DATA     BYTE      MD5
      000000E0H   SFRSYM    DATA     BYTE      ACC
      000000DCH   SFRSYM    DATA     BYTE      POFCON
      000000A8H.4 SFRSYM    DATA     BIT       ES0
      000000A8H.1 SFRSYM    DATA     BIT       ET0
      000000A9H   SFRSYM    DATA     BYTE      IP0
      000000A8H.3 SFRSYM    DATA     BIT       ET1
      00000088H.5 SFRSYM    DATA     BIT       TF0
      000000B9H   SFRSYM    DATA     BYTE      IP1
      000000A8H.5 SFRSYM    DATA     BIT       ET2
      00000098H   SFRSYM    DATA     BIT       RI0
      00000088H.7 SFRSYM    DATA     BIT       TF1
      000000C0H   SFRSYM    DATA     BIT       RFSPIF
      000000C0H.6 SFRSYM    DATA     BIT       TF2
      000000FCH   SFRSYM    DATA     BYTE      SPIMCON0
      000000D6H   SFRSYM    DATA     BYTE      RNGCTL
      0000008CH   SFRSYM    DATA     BYTE      TH0
      000000A8H   SFRSYM    DATA     BIT       EX0
      00000098H.1 SFRSYM    DATA     BIT       TI0
      00000088H   SFRSYM    DATA     BIT       IT0
      000000FDH   SFRSYM    DATA     BYTE      SPIMCON1
      0000008DH   SFRSYM    DATA     BYTE      TH1
      000000A8H.2 SFRSYM    DATA     BIT       EX1
      00000088H.2 SFRSYM    DATA     BIT       IT1
      000000CDH   SFRSYM    DATA     BYTE      TH2
      000000AEH   SFRSYM    DATA     BYTE      OPMCON
      000000D0H   SFRSYM    DATA     BIT       P
      00000098H.7 SFRSYM    DATA     BIT       SM0
      0000008AH   SFRSYM    DATA     BYTE      TL0
      00000098H.6 SFRSYM    DATA     BIT       SM1
      000000E4H   SFRSYM    DATA     BYTE      SPIRCON0
      0000008BH   SFRSYM    DATA     BYTE      TL1
      000000E5H   SFRSYM    DATA     BYTE      SPIRCON1
      000000CCH   SFRSYM    DATA     BYTE      TL2
      000000BCH   SFRSYM    DATA     BYTE      SPISCON0
LX51 LINKER/LOCATER V4.66.62.0                                                        11/16/2016  22:07:09  PAGE 23


      000000BDH   SFRSYM    DATA     BYTE      SPISCON1
      000000D0H.3 SFRSYM    DATA     BIT       RS0
      00000088H.4 SFRSYM    DATA     BIT       TR0
      000000D0H.4 SFRSYM    DATA     BIT       RS1
      000000B2H   SFRSYM    DATA     BYTE      PWMCON
      00000088H.6 SFRSYM    DATA     BIT       TR1
      000000CAH   SFRSYM    DATA     WORD      CRC
      000000A6H   SFRSYM    DATA     BYTE      INTEXP
      000000C0H.3 SFRSYM    DATA     BIT       WUPINF
      000000FAH   SFRSYM    DATA     BYTE      FCR
      000000D3H   SFRSYM    DATA     BYTE      ADCCON1
      000000D2H   SFRSYM    DATA     BYTE      ADCCON2
      00000083H   SFRSYM    DATA     BYTE      DPH
      000000D1H   SFRSYM    DATA     BYTE      ADCCON3
      000000C0H.1 SFRSYM    DATA     BIT       RFF
      00000093H   SFRSYM    DATA     BYTE      P0DIR
      00000082H   SFRSYM    DATA     BYTE      DPL
      0000009EH   SFRSYM    DATA     BYTE      P0CON
      00000099H   SFRSYM    DATA     BYTE      S0BUF
      00000094H   SFRSYM    DATA     BYTE      P1DIR
      0000009FH   SFRSYM    DATA     BYTE      P1CON
      00000095H   SFRSYM    DATA     BYTE      P2DIR
      000000B8H.7 SFRSYM    DATA     BIT       EXEN2
      000000DAH   SFRSYM    DATA     BYTE      W2DAT
      00000097H   SFRSYM    DATA     BYTE      P2CON
      00000096H   SFRSYM    DATA     BYTE      P3DIR
      000000A4H   SFRSYM    DATA     BYTE      PWRDWN
      00000098H   SFRSYM    DATA     BYTE      S0CON
      0000008FH   SFRSYM    DATA     BYTE      P3CON
      000000B6H   SFRSYM    DATA     BYTE      RTC2CPT00
      000000D8H   SFRSYM    DATA     BYTE      ADCON
      000000ACH   SFRSYM    DATA     BYTE      RTC2CPT10
      000000ABH   SFRSYM    DATA     BYTE      RTC2CPT01
      000000C8H   SFRSYM    DATA     BYTE      T2CON
      00000092H   SFRSYM    DATA     BYTE      DPS
      000000F8H.5 SFRSYM    DATA     BIT       WEN
      000000F8H   SFRSYM    DATA     BYTE      FSR
      000000D4H   SFRSYM    DATA     BYTE      ADCDATH
      000000C9H   SFRSYM    DATA     BYTE      MPAGE
      000000B8H.2 SFRSYM    DATA     BIT       SPI
      000000F8H.1 SFRSYM    DATA     BIT       RDEND
      000000D5H   SFRSYM    DATA     BYTE      ADCDATL
      000000F8H.3 SFRSYM    DATA     BIT       INFEN
      000000F8H.7 SFRSYM    DATA     BIT       MCDIS
      000000C0H.5 SFRSYM    DATA     BIT       WUF
      000000C0H.4 SFRSYM    DATA     BIT       MISCF
      000000EFH   SFRSYM    DATA     BYTE      ARCON
      000000D0H.5 SFRSYM    DATA     BIT       F0
      000000F8H.6 SFRSYM    DATA     BIT       STP
      000000FEH   SFRSYM    DATA     BYTE      SPIMSTAT
      00000080H.3 SFRSYM    DATA     BIT       LEDVM
      000000E8H   SFRSYM    DATA     BYTE      RFCON
      000000D0H   SFRSYM    DATA     BYTE      PSW
      00000098H.2 SFRSYM    DATA     BIT       RB80
      000000C0H   SFRSYM    DATA     BYTE      IRCON
      000000E8H.1 SFRSYM    DATA     BIT       RFCSN
      000000E6H   SFRSYM    DATA     BYTE      SPIRSTAT
      000000B3H   SFRSYM    DATA     BYTE      RTC2CON

      01000926H   BLOCK     CODE     ---       LVL=0
      ---         BLOCKEND  ---      ---       LVL=0

      01001DFBH   BLOCK     CODE     ---       LVL=0
      01001DFBH   LINE      CODE     ---       #25
      01001DFDH   LINE      CODE     ---       #27
LX51 LINKER/LOCATER V4.66.62.0                                                        11/16/2016  22:07:09  PAGE 24


      01001DFDH   LINE      CODE     ---       #28
      01001DFDH   LINE      CODE     ---       #29
      01001E05H   LINE      CODE     ---       #30
      01001E05H   LINE      CODE     ---       #31
      01001E08H   LINE      CODE     ---       #32
      01001E08H   LINE      CODE     ---       #33
      ---         BLOCKEND  ---      ---       LVL=0

      01002036H   BLOCK     CODE     ---       LVL=0
      01002036H   LINE      CODE     ---       #35
      01002036H   LINE      CODE     ---       #36
      01002036H   LINE      CODE     ---       #37
      01002036H   LINE      CODE     ---       #38
      01002036H   LINE      CODE     ---       #39
      01002039H   LINE      CODE     ---       #40
      0100203BH   LINE      CODE     ---       #41
      0100203DH   LINE      CODE     ---       #42
      0100203FH   LINE      CODE     ---       #43
      ---         BLOCKEND  ---      ---       LVL=0

      01002040H   BLOCK     CODE     ---       LVL=0
      01002040H   LINE      CODE     ---       #45
      01002040H   LINE      CODE     ---       #46
      01002040H   LINE      CODE     ---       #47
      01002040H   LINE      CODE     ---       #48
      01002040H   LINE      CODE     ---       #49
      01002043H   LINE      CODE     ---       #50
      01002045H   LINE      CODE     ---       #51
      01002047H   LINE      CODE     ---       #52
      01002049H   LINE      CODE     ---       #53
      ---         BLOCKEND  ---      ---       LVL=0

      0100204AH   BLOCK     CODE     ---       LVL=0
      00000007H   SYMBOL    DATA     BYTE      value
      0100204AH   LINE      CODE     ---       #32
      0100204AH   LINE      CODE     ---       #33
      0100204AH   LINE      CODE     ---       #34
      0100204CH   LINE      CODE     ---       #36
      01002051H   LINE      CODE     ---       #38
      01002053H   LINE      CODE     ---       #39
      ---         BLOCKEND  ---      ---       LVL=0

      01001D36H   BLOCK     CODE     ---       LVL=0
      00000007H   SYMBOL    DATA     BYTE      reg
      00000006H   SYMBOL    DATA     BYTE      value
      01001D38H   BLOCK     CODE     NEAR LAB  LVL=1
      00000005H   SYMBOL    DATA     BYTE      status
      ---         BLOCKEND  ---      ---       LVL=1
      01001D36H   LINE      CODE     ---       #41
      01001D38H   LINE      CODE     ---       #42
      01001D38H   LINE      CODE     ---       #45
      01001D3AH   LINE      CODE     ---       #46
      01001D3FH   LINE      CODE     ---       #47
      01001D44H   LINE      CODE     ---       #48
      01001D46H   LINE      CODE     ---       #50
      01001D48H   LINE      CODE     ---       #51
      ---         BLOCKEND  ---      ---       LVL=0

      01001F53H   BLOCK     CODE     ---       LVL=0
      00000007H   SYMBOL    DATA     BYTE      reg
      01001F53H   BLOCK     CODE     NEAR LAB  LVL=1
      00000007H   SYMBOL    DATA     BYTE      reg_val
      ---         BLOCKEND  ---      ---       LVL=1
      01001F53H   LINE      CODE     ---       #53
      01001F53H   LINE      CODE     ---       #54
LX51 LINKER/LOCATER V4.66.62.0                                                        11/16/2016  22:07:09  PAGE 25


      01001F53H   LINE      CODE     ---       #57
      01001F55H   LINE      CODE     ---       #58
      01001F58H   LINE      CODE     ---       #59
      01001F5DH   LINE      CODE     ---       #60
      01001F5FH   LINE      CODE     ---       #62
      01001F5FH   LINE      CODE     ---       #63
      ---         BLOCKEND  ---      ---       LVL=0

      01001B65H   BLOCK     CODE     ---       LVL=0
      00000007H   SYMBOL    DATA     BYTE      reg
      00000039H   SYMBOL    DATA     ---       pBuf
      0000003CH   SYMBOL    DATA     BYTE      bytes
      01001B6BH   BLOCK     CODE     NEAR LAB  LVL=1
      00000006H   SYMBOL    DATA     BYTE      status
      00000005H   SYMBOL    DATA     BYTE      byte_ctr
      ---         BLOCKEND  ---      ---       LVL=1
      01001B65H   LINE      CODE     ---       #65
      01001B6BH   LINE      CODE     ---       #66
      01001B6BH   LINE      CODE     ---       #69
      01001B6BH   LINE      CODE     ---       #70
      01001B6BH   LINE      CODE     ---       #72
      01001B74H   LINE      CODE     ---       #73
      01001B8BH   LINE      CODE     ---       #75
      01001B8DH   LINE      CODE     ---       #77
      01001B8FH   LINE      CODE     ---       #78
      ---         BLOCKEND  ---      ---       LVL=0

      01001C1CH   BLOCK     CODE     ---       LVL=0
      00000007H   SYMBOL    DATA     BYTE      reg
      0000002AH   SYMBOL    DATA     ---       pBuf
      0000002DH   SYMBOL    DATA     BYTE      bytes
      01001C22H   BLOCK     CODE     NEAR LAB  LVL=1
      00000006H   SYMBOL    DATA     BYTE      status
      00000005H   SYMBOL    DATA     BYTE      byte_ctr
      ---         BLOCKEND  ---      ---       LVL=1
      01001C1CH   LINE      CODE     ---       #80
      01001C22H   LINE      CODE     ---       #81
      01001C22H   LINE      CODE     ---       #84
      01001C22H   LINE      CODE     ---       #85
      01001C22H   LINE      CODE     ---       #86
      01001C2BH   LINE      CODE     ---       #87
      01001C36H   LINE      CODE     ---       #88
      01001C38H   LINE      CODE     ---       #89
      01001C3AH   LINE      CODE     ---       #90
      ---         BLOCKEND  ---      ---       LVL=0

      01001DB7H   BLOCK     CODE     ---       LVL=0
      01001DB7H   LINE      CODE     ---       #93
      01001DB7H   LINE      CODE     ---       #94
      01001DB7H   LINE      CODE     ---       #95
      01001DBAH   LINE      CODE     ---       #96
      01001DBCH   LINE      CODE     ---       #97
      01001DBEH   LINE      CODE     ---       #98
      01001DC5H   LINE      CODE     ---       #99
      01001DC7H   LINE      CODE     ---       #100
      ---         BLOCKEND  ---      ---       LVL=0

      01001B0DH   BLOCK     CODE     ---       LVL=0
      00000027H   SYMBOL    DATA     INT       payloadLength
      01001B0DH   LINE      CODE     ---       #102
      01001B11H   LINE      CODE     ---       #103
      01001B11H   LINE      CODE     ---       #104
      01001B13H   LINE      CODE     ---       #105
      01001B1AH   LINE      CODE     ---       #106
      01001B22H   LINE      CODE     ---       #107
LX51 LINKER/LOCATER V4.66.62.0                                                        11/16/2016  22:07:09  PAGE 26


      01001B30H   LINE      CODE     ---       #109
      01001B32H   LINE      CODE     ---       #110
      01001B38H   LINE      CODE     ---       #111
      ---         BLOCKEND  ---      ---       LVL=0

      0100157EH   BLOCK     CODE     ---       LVL=0
      0100157EH   LINE      CODE     ---       #114
      01001597H   LINE      CODE     ---       #116
      0100159EH   LINE      CODE     ---       #117
      010015A1H   LINE      CODE     ---       #118
      010015A1H   LINE      CODE     ---       #119
      010015AFH   LINE      CODE     ---       #120
      010015B6H   LINE      CODE     ---       #121
      010015B8H   LINE      CODE     ---       #122
      010015C2H   LINE      CODE     ---       #123
      010015C7H   LINE      CODE     ---       #124
      010015C7H   LINE      CODE     ---       #125
      010015C9H   LINE      CODE     ---       #126
      010015CFH   LINE      CODE     ---       #127
      010015D1H   LINE      CODE     ---       #128
      010015D1H   LINE      CODE     ---       #129
      010015D1H   LINE      CODE     ---       #130
      010015D4H   LINE      CODE     ---       #131
      010015DBH   LINE      CODE     ---       #132
      010015DEH   LINE      CODE     ---       #133
      010015E5H   LINE      CODE     ---       #134
      010015ECH   LINE      CODE     ---       #135
      ---         BLOCKEND  ---      ---       LVL=0

      0100196FH   BLOCK     CODE     ---       LVL=0
      0100196FH   LINE      CODE     ---       #138
      0100196FH   LINE      CODE     ---       #139
      0100196FH   LINE      CODE     ---       #140
      01001971H   LINE      CODE     ---       #141
      01001973H   LINE      CODE     ---       #143
      0100197BH   LINE      CODE     ---       #144
      01001983H   LINE      CODE     ---       #145
      0100198AH   LINE      CODE     ---       #147
      01001991H   LINE      CODE     ---       #148
      01001998H   LINE      CODE     ---       #149
      0100199FH   LINE      CODE     ---       #150
      010019A6H   LINE      CODE     ---       #152
      010019ADH   LINE      CODE     ---       #153
      ---         BLOCKEND  ---      ---       LVL=0

      01001F60H   BLOCK     CODE     ---       LVL=0
      01001F60H   LINE      CODE     ---       #157
      01001F60H   LINE      CODE     ---       #159
      01001F62H   LINE      CODE     ---       #160
      01001F64H   LINE      CODE     ---       #161
      01001F66H   LINE      CODE     ---       #162
      01001F69H   LINE      CODE     ---       #163
      ---         BLOCKEND  ---      ---       LVL=0

      01001CAAH   BLOCK     CODE     ---       LVL=0
      01001CAAH   LINE      CODE     ---       #8
      01001CAAH   LINE      CODE     ---       #9
      01001CACH   LINE      CODE     ---       #10
      01001CAEH   LINE      CODE     ---       #11
      01001CB0H   LINE      CODE     ---       #12
      01001CB2H   LINE      CODE     ---       #13
      01001CB5H   LINE      CODE     ---       #14
      01001CB8H   LINE      CODE     ---       #16
      01001CBBH   LINE      CODE     ---       #17
      01001CBEH   LINE      CODE     ---       #18
LX51 LINKER/LOCATER V4.66.62.0                                                        11/16/2016  22:07:09  PAGE 27


      01001CC0H   LINE      CODE     ---       #19
      01001CC3H   LINE      CODE     ---       #20
      ---         BLOCKEND  ---      ---       LVL=0

      01001DC8H   BLOCK     CODE     VOID      LVL=0
      ---         BLOCKEND  ---      ---       LVL=0

      01001DD1H   BLOCK     CODE     ---       LVL=0
      00000007H   SYMBOL    DATA     BYTE      x
      01001DD1H   LINE      CODE     ---       #22
      01001DD1H   LINE      CODE     ---       #23
      01001DD4H   LINE      CODE     ---       #24
      01001DD6H   LINE      CODE     ---       #25
      01001DD8H   LINE      CODE     ---       #26
      ---         BLOCKEND  ---      ---       LVL=0

      01001C3BH   BLOCK     CODE     ---       LVL=0
      0000004DH   SYMBOL    DATA     ---       s
      01001C3BH   LINE      CODE     ---       #29
      01001C41H   LINE      CODE     ---       #30
      01001C4CH   LINE      CODE     ---       #31
      01001C56H   LINE      CODE     ---       #32
      ---         BLOCKEND  ---      ---       LVL=0

      010018CEH   BLOCK     CODE     ---       LVL=0
      00000007H   SYMBOL    DATA     BYTE      packet_type
      00000023H   SYMBOL    DATA     ---       data_to_send
      00000026H   SYMBOL    DATA     BYTE      data_len
      010018D4H   BLOCK     CODE     NEAR LAB  LVL=1
      00000006H   SYMBOL    DATA     WORD      i
      ---         BLOCKEND  ---      ---       LVL=1
      010018CEH   LINE      CODE     ---       #34
      010018D4H   LINE      CODE     ---       #36
      010018D9H   LINE      CODE     ---       #37
      010018DDH   LINE      CODE     ---       #38
      010018ECH   LINE      CODE     ---       #39
      0100190CH   LINE      CODE     ---       #40
      01001913H   LINE      CODE     ---       #41
      0100191EH   LINE      CODE     ---       #42
      ---         BLOCKEND  ---      ---       LVL=0

      01001AA3H   BLOCK     CODE     ---       LVL=0
      00000006H   SYMBOL    DATA     BYTE      packet_type
      00000044H   SYMBOL    DATA     ---       data_to_send
      00000047H   SYMBOL    DATA     BYTE      data_len
      01001AA9H   BLOCK     CODE     NEAR LAB  LVL=1
      00000004H   SYMBOL    DATA     WORD      i
      ---         BLOCKEND  ---      ---       LVL=1
      01001AA3H   LINE      CODE     ---       #47
      01001AA9H   LINE      CODE     ---       #49
      01001AA9H   LINE      CODE     ---       #50
      01001AACH   LINE      CODE     ---       #51
      01001AB1H   LINE      CODE     ---       #52
      01001AC4H   LINE      CODE     ---       #53
      01001ACAH   LINE      CODE     ---       #54
      01001AD3H   LINE      CODE     ---       #55
      ---         BLOCKEND  ---      ---       LVL=0

      01001AD8H   BLOCK     CODE     ---       LVL=0
      00000006H   SYMBOL    DATA     BYTE      packet_type
      00000049H   SYMBOL    DATA     ---       data_to_send
      0000004CH   SYMBOL    DATA     BYTE      data_len
      01001ADEH   BLOCK     CODE     NEAR LAB  LVL=1
      00000004H   SYMBOL    DATA     WORD      i
      ---         BLOCKEND  ---      ---       LVL=1
LX51 LINKER/LOCATER V4.66.62.0                                                        11/16/2016  22:07:09  PAGE 28


      01001AD8H   LINE      CODE     ---       #59
      01001ADEH   LINE      CODE     ---       #61
      01001ADEH   LINE      CODE     ---       #62
      01001AE1H   LINE      CODE     ---       #63
      01001AE8H   LINE      CODE     ---       #64
      01001AEDH   LINE      CODE     ---       #65
      01001AF9H   LINE      CODE     ---       #66
      01001AFFH   LINE      CODE     ---       #67
      01001B08H   LINE      CODE     ---       #68
      ---         BLOCKEND  ---      ---       LVL=0

      01001F9CH   BLOCK     CODE     ---       LVL=0
      01001F9CH   LINE      CODE     ---       #20
      01001F9CH   LINE      CODE     ---       #21
      ---         BLOCKEND  ---      ---       LVL=0

      01001E3BH   BLOCK     CODE     ---       LVL=0
      00000007H   SYMBOL    DATA     BYTE      source
      01001E3BH   LINE      CODE     ---       #23
      01001E3BH   LINE      CODE     ---       #24
      ---         BLOCKEND  ---      ---       LVL=0

      01001E49H   BLOCK     CODE     ---       LVL=0
      00000007H   SYMBOL    DATA     BYTE      range
      01001E49H   LINE      CODE     ---       #26
      01001E49H   LINE      CODE     ---       #27
      ---         BLOCKEND  ---      ---       LVL=0

      01001E57H   BLOCK     CODE     ---       LVL=0
      00000007H   SYMBOL    DATA     BYTE      range
      01001E57H   LINE      CODE     ---       #29
      01001E57H   LINE      CODE     ---       #30
      ---         BLOCKEND  ---      ---       LVL=0

      01001FA7H   BLOCK     CODE     ---       LVL=0
      00000007H   SYMBOL    DATA     BYTE      enabled
      01001FA7H   LINE      CODE     ---       #32
      01001FA7H   LINE      CODE     ---       #33
      ---         BLOCKEND  ---      ---       LVL=0

      01001D0EH   BLOCK     CODE     ---       LVL=0
      01001D0EH   LINE      CODE     ---       #35
      01001D0EH   LINE      CODE     ---       #36
      01001D13H   LINE      CODE     ---       #37
      01001D18H   LINE      CODE     ---       #38
      01001D1DH   LINE      CODE     ---       #39
      ---         BLOCKEND  ---      ---       LVL=0

      01001CF8H   BLOCK     CODE     ---       LVL=0
      01001CF8H   LINE      CODE     ---       #41
      01001CF8H   LINE      CODE     ---       #42
      01001D02H   LINE      CODE     ---       #43
      01001D0DH   LINE      CODE     ---       #44
      ---         BLOCKEND  ---      ---       LVL=0

      0100131FH   BLOCK     CODE     ---       LVL=0
      02000363H   SYMBOL    XDATA    ---       packet6
      0100131FH   LINE      CODE     ---       #45
      01001327H   LINE      CODE     ---       #46
      01001339H   LINE      CODE     ---       #47
      0100134CH   LINE      CODE     ---       #48
      01001353H   LINE      CODE     ---       #49
      0100135BH   LINE      CODE     ---       #50
      01001364H   LINE      CODE     ---       #51
      0100136FH   LINE      CODE     ---       #52
LX51 LINKER/LOCATER V4.66.62.0                                                        11/16/2016  22:07:09  PAGE 29


      0100137AH   LINE      CODE     ---       #53
      01001385H   LINE      CODE     ---       #54
      01001390H   LINE      CODE     ---       #55
      0100139BH   LINE      CODE     ---       #56
      010013A6H   LINE      CODE     ---       #57
      010013B1H   LINE      CODE     ---       #58
      010013BCH   LINE      CODE     ---       #59
      ---         BLOCKEND  ---      ---       LVL=0

      010020F4H   BLOCK     CODE     ---       LVL=0
      00000006H   SYMBOL    DATA     INT       offset
      010020F4H   LINE      CODE     ---       #60
      010020F4H   LINE      CODE     ---       #61
      ---         BLOCKEND  ---      ---       LVL=0

      010020FCH   BLOCK     CODE     ---       LVL=0
      00000006H   SYMBOL    DATA     INT       offset
      010020FCH   LINE      CODE     ---       #63
      010020FCH   LINE      CODE     ---       #64
      ---         BLOCKEND  ---      ---       LVL=0

      01002104H   BLOCK     CODE     ---       LVL=0
      00000006H   SYMBOL    DATA     INT       offset
      01002104H   LINE      CODE     ---       #66
      01002104H   LINE      CODE     ---       #67
      ---         BLOCKEND  ---      ---       LVL=0

      0100210CH   BLOCK     CODE     ---       LVL=0
      00000006H   SYMBOL    DATA     INT       offset
      0100210CH   LINE      CODE     ---       #69
      0100210CH   LINE      CODE     ---       #70
      ---         BLOCKEND  ---      ---       LVL=0

      01001FB2H   BLOCK     CODE     ---       LVL=0
      00000006H   SYMBOL    DATA     INT       offset
      01001FB2H   LINE      CODE     ---       #72
      01001FB2H   LINE      CODE     ---       #73
      ---         BLOCKEND  ---      ---       LVL=0

      01001FBDH   BLOCK     CODE     ---       LVL=0
      00000006H   SYMBOL    DATA     INT       offset
      01001FBDH   LINE      CODE     ---       #75
      01001FBDH   LINE      CODE     ---       #76
      ---         BLOCKEND  ---      ---       LVL=0

      01001E65H   BLOCK     CODE     ---       LVL=0
      01001E65H   LINE      CODE     ---       #79
      01001E65H   LINE      CODE     ---       #80
      01001E6FH   LINE      CODE     ---       #81
      01001E72H   LINE      CODE     ---       #82
      ---         BLOCKEND  ---      ---       LVL=0

      01001E73H   BLOCK     CODE     ---       LVL=0
      01001E73H   LINE      CODE     ---       #83
      01001E73H   LINE      CODE     ---       #84
      01001E7DH   LINE      CODE     ---       #85
      01001E80H   LINE      CODE     ---       #86
      ---         BLOCKEND  ---      ---       LVL=0

      01001E81H   BLOCK     CODE     ---       LVL=0
      01001E81H   LINE      CODE     ---       #87
      01001E81H   LINE      CODE     ---       #88
      01001E8BH   LINE      CODE     ---       #89
      01001E8EH   LINE      CODE     ---       #90
      ---         BLOCKEND  ---      ---       LVL=0
LX51 LINKER/LOCATER V4.66.62.0                                                        11/16/2016  22:07:09  PAGE 30



      01001E8FH   BLOCK     CODE     ---       LVL=0
      01001E8FH   LINE      CODE     ---       #91
      01001E8FH   LINE      CODE     ---       #92
      01001E99H   LINE      CODE     ---       #93
      01001E9CH   LINE      CODE     ---       #94
      ---         BLOCKEND  ---      ---       LVL=0

      01001E9DH   BLOCK     CODE     ---       LVL=0
      01001E9DH   LINE      CODE     ---       #95
      01001E9DH   LINE      CODE     ---       #96
      01001EA7H   LINE      CODE     ---       #97
      01001EAAH   LINE      CODE     ---       #98
      ---         BLOCKEND  ---      ---       LVL=0

      01001EABH   BLOCK     CODE     ---       LVL=0
      01001EABH   LINE      CODE     ---       #99
      01001EABH   LINE      CODE     ---       #100
      01001EB5H   LINE      CODE     ---       #101
      01001EB8H   LINE      CODE     ---       #102
      ---         BLOCKEND  ---      ---       LVL=0

      01001C8FH   BLOCK     CODE     ---       LVL=0
      00000007H   SYMBOL    DATA     BYTE      bank
      00000005H   SYMBOL    DATA     BYTE      prefetchEnabled
      00000003H   SYMBOL    DATA     BYTE      userBank
      01001C8FH   LINE      CODE     ---       #104
      01001C8FH   LINE      CODE     ---       #105
      01001C93H   LINE      CODE     ---       #106
      01001C9AH   LINE      CODE     ---       #107
      01001CA1H   LINE      CODE     ---       #108
      ---         BLOCKEND  ---      ---       LVL=0

      01001EB9H   BLOCK     CODE     ---       LVL=0
      01001EB9H   LINE      CODE     ---       #111
      01001EB9H   LINE      CODE     ---       #112
      01001EC3H   LINE      CODE     ---       #113
      01001EC6H   LINE      CODE     ---       #114
      ---         BLOCKEND  ---      ---       LVL=0

      01001EC7H   BLOCK     CODE     ---       LVL=0
      01001EC7H   LINE      CODE     ---       #116
      01001EC7H   LINE      CODE     ---       #117
      01001ECFH   LINE      CODE     ---       #118
      01001ED4H   LINE      CODE     ---       #119
      ---         BLOCKEND  ---      ---       LVL=0

      01001FC8H   BLOCK     CODE     ---       LVL=0
      00000007H   SYMBOL    DATA     BYTE      enabled
      01001FC8H   LINE      CODE     ---       #121
      01001FC8H   LINE      CODE     ---       #122
      ---         BLOCKEND  ---      ---       LVL=0

      01001F6CH   BLOCK     CODE     ---       LVL=0
      01001F6CH   LINE      CODE     ---       #125
      01001F6CH   LINE      CODE     ---       #126
      ---         BLOCKEND  ---      ---       LVL=0

      0100209AH   BLOCK     CODE     ---       LVL=0
      0100209AH   LINE      CODE     ---       #129
      0100209AH   LINE      CODE     ---       #130
      010020A2H   LINE      CODE     ---       #131
      ---         BLOCKEND  ---      ---       LVL=0

      01001B39H   BLOCK     CODE     ---       LVL=0
LX51 LINKER/LOCATER V4.66.62.0                                                        11/16/2016  22:07:09  PAGE 31


      02000339H   SYMBOL    XDATA    ---       data_ptr
      00000005H   SYMBOL    DATA     BYTE      data_len
      01001B39H   LINE      CODE     ---       #133
      01001B3FH   LINE      CODE     ---       #134
      01001B45H   LINE      CODE     ---       #135
      01001B5AH   LINE      CODE     ---       #136
      01001B5AH   LINE      CODE     ---       #137
      01001B64H   LINE      CODE     ---       #138
      01001B64H   LINE      CODE     ---       #139
      ---         BLOCKEND  ---      ---       LVL=0

      010020A3H   BLOCK     CODE     ---       LVL=0
      00000007H   SYMBOL    DATA     BYTE      address
      010020A3H   LINE      CODE     ---       #140
      010020A3H   LINE      CODE     ---       #141
      ---         BLOCKEND  ---      ---       LVL=0

      01000B25H   BLOCK     CODE     ---       LVL=0
      02000349H   SYMBOL    XDATA    ---       data_ptr
      0200034CH   SYMBOL    XDATA    WORD      dataSize
      0200034EH   SYMBOL    XDATA    BYTE      bank
      0200034FH   SYMBOL    XDATA    BYTE      address
      02000350H   SYMBOL    XDATA    BYTE      verify
      02000351H   SYMBOL    XDATA    BYTE      useProgMem
      01000B33H   BLOCK     CODE     NEAR LAB  LVL=1
      02000352H   SYMBOL    XDATA    BYTE      chunkSize_wmb
      02000353H   SYMBOL    XDATA    ---       verifyBuffer_wmb
      02000356H   SYMBOL    XDATA    ---       progBuffer_wmb
      02000359H   SYMBOL    XDATA    WORD      i_wmb
      00000007H   SYMBOL    DATA     BYTE      j_wmb
      ---         BLOCKEND  ---      ---       LVL=1
      01000B25H   LINE      CODE     ---       #145
      01000B33H   LINE      CODE     ---       #149
      01000B39H   LINE      CODE     ---       #152
      01000B43H   LINE      CODE     ---       #153
      01000B4BH   LINE      CODE     ---       #154
      01000B5EH   LINE      CODE     ---       #155
      01000B73H   LINE      CODE     ---       #156
      01000B8CH   LINE      CODE     ---       #158
      01000B8FH   LINE      CODE     ---       #161
      01000BA5H   LINE      CODE     ---       #164
      01000BB9H   LINE      CODE     ---       #166
      01000BBFH   LINE      CODE     ---       #168
      01000BEBH   LINE      CODE     ---       #169
      01000BEBH   LINE      CODE     ---       #171
      01000BF8H   LINE      CODE     ---       #172
      01000BF8H   LINE      CODE     ---       #174
      01000C07H   LINE      CODE     ---       #177
      01000C18H   LINE      CODE     ---       #178
      01000C18H   LINE      CODE     ---       #179
      01000C1BH   LINE      CODE     ---       #180
      01000C27H   LINE      CODE     ---       #181
      01000C43H   LINE      CODE     ---       #182
      01000C49H   LINE      CODE     ---       #183
      01000C58H   LINE      CODE     ---       #184
      01000C5BH   LINE      CODE     ---       #185
      01000C5BH   LINE      CODE     ---       #186
      01000C5BH   LINE      CODE     ---       #189
      01000C6AH   LINE      CODE     ---       #192
      01000C70H   LINE      CODE     ---       #195
      01000C85H   LINE      CODE     ---       #196
      01000C91H   LINE      CODE     ---       #197
      01000C91H   LINE      CODE     ---       #198
      01000C94H   LINE      CODE     ---       #199
      01000C94H   LINE      CODE     ---       #200
LX51 LINKER/LOCATER V4.66.62.0                                                        11/16/2016  22:07:09  PAGE 32


      01000C97H   LINE      CODE     ---       #201
      01000CA3H   LINE      CODE     ---       #202
      01000CB2H   LINE      CODE     ---       #203
      01000CB4H   LINE      CODE     ---       #204
      ---         BLOCKEND  ---      ---       LVL=0

      01000CC9H   BLOCK     CODE     ---       LVL=0
      02000339H   SYMBOL    XDATA    ---       data_ptr
      0200033CH   SYMBOL    XDATA    WORD      dataSize
      0200033EH   SYMBOL    XDATA    BYTE      useProgMem
      01000CD7H   BLOCK     CODE     NEAR LAB  LVL=1
      0200033FH   SYMBOL    XDATA    ---       progBuffer_wdcs
      02000342H   SYMBOL    XDATA    BYTE      success_wdcs
      02000343H   SYMBOL    XDATA    BYTE      special_wdcs
      02000344H   SYMBOL    XDATA    WORD      i_wdcs
      00000006H   SYMBOL    DATA     WORD      j_wdcs
      02000346H   SYMBOL    XDATA    BYTE      bank_wdcs
      02000347H   SYMBOL    XDATA    BYTE      offset_wdcs
      02000348H   SYMBOL    XDATA    BYTE      length_wdcs
      ---         BLOCKEND  ---      ---       LVL=1
      01000CC9H   LINE      CODE     ---       #209
      01000CD7H   LINE      CODE     ---       #210
      01000CDDH   LINE      CODE     ---       #214
      01000CE3H   LINE      CODE     ---       #215
      01000CEDH   LINE      CODE     ---       #216
      01000CEDH   LINE      CODE     ---       #221
      01000D09H   LINE      CODE     ---       #222
      01000D13H   LINE      CODE     ---       #223
      01000D1CH   LINE      CODE     ---       #224
      01000D25H   LINE      CODE     ---       #225
      01000D2BH   LINE      CODE     ---       #226
      01000D2DH   LINE      CODE     ---       #227
      01000D37H   LINE      CODE     ---       #228
      01000D41H   LINE      CODE     ---       #229
      01000D4BH   LINE      CODE     ---       #230
      01000D4BH   LINE      CODE     ---       #233
      01000D58H   LINE      CODE     ---       #235
      01000D5BH   LINE      CODE     ---       #236
      01000D73H   LINE      CODE     ---       #237
      01000DA7H   LINE      CODE     ---       #238
      01000DA7H   LINE      CODE     ---       #239
      01000DB4H   LINE      CODE     ---       #240
      01000DB4H   LINE      CODE     ---       #241
      01000DE0H   LINE      CODE     ---       #242
      01000DEEH   LINE      CODE     ---       #243
      01000DF0H   LINE      CODE     ---       #249
      01000DF9H   LINE      CODE     ---       #250
      01000E06H   LINE      CODE     ---       #251
      01000E08H   LINE      CODE     ---       #252
      01000E12H   LINE      CODE     ---       #253
      01000E12H   LINE      CODE     ---       #257
      01000E19H   LINE      CODE     ---       #263
      01000E22H   LINE      CODE     ---       #265
      01000E28H   LINE      CODE     ---       #266
      01000E2AH   LINE      CODE     ---       #268
      01000E2FH   LINE      CODE     ---       #269
      01000E2FH   LINE      CODE     ---       #270
      01000E2FH   LINE      CODE     ---       #272
      01000E38H   LINE      CODE     ---       #273
      01000E45H   LINE      CODE     ---       #274
      01000E48H   LINE      CODE     ---       #275
      01000E48H   LINE      CODE     ---       #276
      01000E48H   LINE      CODE     ---       #277
      01000E55H   LINE      CODE     ---       #278
      01000E57H   LINE      CODE     ---       #279
LX51 LINKER/LOCATER V4.66.62.0                                                        11/16/2016  22:07:09  PAGE 33


      ---         BLOCKEND  ---      ---       LVL=0

      01001264H   BLOCK     CODE     ---       LVL=0
      02000339H   SYMBOL    XDATA    ---       data_ptr
      0200033CH   SYMBOL    XDATA    WORD      dataSize
      0200033EH   SYMBOL    XDATA    BYTE      bank
      0200033FH   SYMBOL    XDATA    BYTE      address
      01001272H   BLOCK     CODE     NEAR LAB  LVL=1
      02000340H   SYMBOL    XDATA    BYTE      chunkSize_rmb
      02000341H   SYMBOL    XDATA    WORD      i_rmb
      ---         BLOCKEND  ---      ---       LVL=1
      01001264H   LINE      CODE     ---       #283
      01001272H   LINE      CODE     ---       #286
      01001273H   LINE      CODE     ---       #287
      01001276H   LINE      CODE     ---       #288
      0100128FH   LINE      CODE     ---       #290
      01001292H   LINE      CODE     ---       #293
      010012A6H   LINE      CODE     ---       #296
      010012B8H   LINE      CODE     ---       #299
      010012D3H   LINE      CODE     ---       #302
      010012E0H   LINE      CODE     ---       #305
      010012E6H   LINE      CODE     ---       #308
      010012F8H   LINE      CODE     ---       #309
      01001304H   LINE      CODE     ---       #310
      01001307H   LINE      CODE     ---       #311
      0100130AH   LINE      CODE     ---       #312
      0100130AH   LINE      CODE     ---       #313
      0100130DH   LINE      CODE     ---       #314
      ---         BLOCKEND  ---      ---       LVL=0

      01002054H   BLOCK     CODE     ---       LVL=0
      00000001H   SYMBOL    DATA     ---       data_ptr
      00000004H   SYMBOL    DATA     WORD      dataSize
      01002054H   LINE      CODE     ---       #317
      01002054H   LINE      CODE     ---       #318
      0100205DH   LINE      CODE     ---       #319
      ---         BLOCKEND  ---      ---       LVL=0

      01001BFCH   BLOCK     CODE     ---       LVL=0
      00000001H   SYMBOL    DATA     ---       data_ptr
      00000004H   SYMBOL    DATA     WORD      dataSize
      0200033EH   SYMBOL    XDATA    BYTE      bank
      0200033FH   SYMBOL    XDATA    BYTE      address
      02000340H   SYMBOL    XDATA    BYTE      verify
      01001BFCH   LINE      CODE     ---       #320
      01001BFCH   LINE      CODE     ---       #321
      01001C1BH   LINE      CODE     ---       #322
      ---         BLOCKEND  ---      ---       LVL=0

      01001F78H   BLOCK     CODE     ---       LVL=0
      01001F78H   LINE      CODE     ---       #323
      01001F78H   LINE      CODE     ---       #324
      ---         BLOCKEND  ---      ---       LVL=0

      01001CC4H   BLOCK     CODE     ---       LVL=0
      00000007H   SYMBOL    DATA     BYTE      num
      00000006H   SYMBOL    DATA     BYTE      address
      01001CC4H   LINE      CODE     ---       #326
      01001CC6H   LINE      CODE     ---       #327
      01001CCCH   LINE      CODE     ---       #328
      01001CDDH   LINE      CODE     ---       #329
      ---         BLOCKEND  ---      ---       LVL=0

      01001FD3H   BLOCK     CODE     ---       LVL=0
      00000007H   SYMBOL    DATA     BYTE      enabled
LX51 LINKER/LOCATER V4.66.62.0                                                        11/16/2016  22:07:09  PAGE 34


      01001FD3H   LINE      CODE     ---       #330
      01001FD3H   LINE      CODE     ---       #331
      ---         BLOCKEND  ---      ---       LVL=0

      01001F84H   BLOCK     CODE     ---       LVL=0
      01001F84H   LINE      CODE     ---       #333
      01001F84H   LINE      CODE     ---       #334
      ---         BLOCKEND  ---      ---       LVL=0

      010020ACH   BLOCK     CODE     ---       LVL=0
      00000007H   SYMBOL    DATA     BYTE      enabled
      010020ACH   LINE      CODE     ---       #336
      010020ACH   LINE      CODE     ---       #337
      ---         BLOCKEND  ---      ---       LVL=0

      010020B5H   BLOCK     CODE     ---       LVL=0
      00000007H   SYMBOL    DATA     BYTE      rate
      010020B5H   LINE      CODE     ---       #339
      010020B5H   LINE      CODE     ---       #340
      ---         BLOCKEND  ---      ---       LVL=0

      01001ED5H   BLOCK     CODE     ---       LVL=0
      00000007H   SYMBOL    DATA     BYTE      sync_ext
      01001ED5H   LINE      CODE     ---       #342
      01001ED5H   LINE      CODE     ---       #343
      ---         BLOCKEND  ---      ---       LVL=0

      01001EE3H   BLOCK     CODE     ---       LVL=0
      00000007H   SYMBOL    DATA     BYTE      mode
      01001EE3H   LINE      CODE     ---       #345
      01001EE3H   LINE      CODE     ---       #346
      ---         BLOCKEND  ---      ---       LVL=0

      01001EF1H   BLOCK     CODE     ---       LVL=0
      01001EF1H   LINE      CODE     ---       #350
      01001EF1H   LINE      CODE     ---       #351
      01001EF9H   LINE      CODE     ---       #352
      01001EFEH   LINE      CODE     ---       #353
      ---         BLOCKEND  ---      ---       LVL=0

      010020BEH   BLOCK     CODE     ---       LVL=0
      00000007H   SYMBOL    DATA     BYTE      config
      010020BEH   LINE      CODE     ---       #354
      010020BEH   LINE      CODE     ---       #355
      ---         BLOCKEND  ---      ---       LVL=0

      01001EFFH   BLOCK     CODE     ---       LVL=0
      01001EFFH   LINE      CODE     ---       #360
      01001EFFH   LINE      CODE     ---       #361
      01001F07H   LINE      CODE     ---       #362
      01001F0CH   LINE      CODE     ---       #363
      ---         BLOCKEND  ---      ---       LVL=0

      010020C7H   BLOCK     CODE     ---       LVL=0
      00000007H   SYMBOL    DATA     BYTE      config
      010020C7H   LINE      CODE     ---       #364
      010020C7H   LINE      CODE     ---       #365
      ---         BLOCKEND  ---      ---       LVL=0

      01001DD9H   BLOCK     CODE     ---       LVL=0
      01001DD9H   LINE      CODE     ---       #367
      01001DD9H   LINE      CODE     ---       #368
      01001DE4H   LINE      CODE     ---       #369
      01001DE9H   LINE      CODE     ---       #370
      ---         BLOCKEND  ---      ---       LVL=0
LX51 LINKER/LOCATER V4.66.62.0                                                        11/16/2016  22:07:09  PAGE 35



      0100205EH   BLOCK     CODE     ---       LVL=0
      00000007H   SYMBOL    DATA     BYTE      enabled
      0100205EH   LINE      CODE     ---       #371
      0100205EH   LINE      CODE     ---       #372
      ---         BLOCKEND  ---      ---       LVL=0

      01001E0BH   BLOCK     CODE     ---       LVL=0
      01001E0BH   LINE      CODE     ---       #374
      01001E0BH   LINE      CODE     ---       #375
      01001E15H   LINE      CODE     ---       #376
      01001E1AH   LINE      CODE     ---       #377
      ---         BLOCKEND  ---      ---       LVL=0

      01002068H   BLOCK     CODE     ---       LVL=0
      00000007H   SYMBOL    DATA     CHAR      offset
      01002068H   LINE      CODE     ---       #378
      01002068H   LINE      CODE     ---       #379
      ---         BLOCKEND  ---      ---       LVL=0

      01001E1BH   BLOCK     CODE     ---       LVL=0
      01001E1BH   LINE      CODE     ---       #384
      01001E1BH   LINE      CODE     ---       #385
      01001E25H   LINE      CODE     ---       #386
      01001E2AH   LINE      CODE     ---       #387
      ---         BLOCKEND  ---      ---       LVL=0

      01002072H   BLOCK     CODE     ---       LVL=0
      00000007H   SYMBOL    DATA     CHAR      offset
      01002072H   LINE      CODE     ---       #388
      01002072H   LINE      CODE     ---       #389
      ---         BLOCKEND  ---      ---       LVL=0

      01001E2BH   BLOCK     CODE     ---       LVL=0
      01001E2BH   LINE      CODE     ---       #394
      01001E2BH   LINE      CODE     ---       #395
      01001E35H   LINE      CODE     ---       #396
      01001E3AH   LINE      CODE     ---       #397
      ---         BLOCKEND  ---      ---       LVL=0

      0100207CH   BLOCK     CODE     ---       LVL=0
      00000007H   SYMBOL    DATA     CHAR      offset
      0100207CH   LINE      CODE     ---       #398
      0100207CH   LINE      CODE     ---       #399
      ---         BLOCKEND  ---      ---       LVL=0

      01001F0DH   BLOCK     CODE     ---       LVL=0
      01001F0DH   LINE      CODE     ---       #402
      01001F0DH   LINE      CODE     ---       #403
      01001F15H   LINE      CODE     ---       #404
      01001F1AH   LINE      CODE     ---       #405
      ---         BLOCKEND  ---      ---       LVL=0

      010020D0H   BLOCK     CODE     ---       LVL=0
      00000007H   SYMBOL    DATA     BYTE      threshold
      010020D0H   LINE      CODE     ---       #406
      010020D0H   LINE      CODE     ---       #407
      ---         BLOCKEND  ---      ---       LVL=0

      01001F1BH   BLOCK     CODE     ---       LVL=0
      01001F1BH   LINE      CODE     ---       #409
      01001F1BH   LINE      CODE     ---       #410
      01001F23H   LINE      CODE     ---       #411
      01001F28H   LINE      CODE     ---       #412
      ---         BLOCKEND  ---      ---       LVL=0
LX51 LINKER/LOCATER V4.66.62.0                                                        11/16/2016  22:07:09  PAGE 36



      010020D9H   BLOCK     CODE     ---       LVL=0
      00000007H   SYMBOL    DATA     BYTE      threshold
      010020D9H   LINE      CODE     ---       #414
      010020D9H   LINE      CODE     ---       #415
      ---         BLOCKEND  ---      ---       LVL=0

      01001F29H   BLOCK     CODE     ---       LVL=0
      01001F29H   LINE      CODE     ---       #417
      01001F29H   LINE      CODE     ---       #418
      01001F31H   LINE      CODE     ---       #419
      01001F36H   LINE      CODE     ---       #420
      ---         BLOCKEND  ---      ---       LVL=0

      010020E2H   BLOCK     CODE     ---       LVL=0
      00000007H   SYMBOL    DATA     BYTE      duration
      010020E2H   LINE      CODE     ---       #422
      010020E2H   LINE      CODE     ---       #423
      ---         BLOCKEND  ---      ---       LVL=0

      01001D49H   BLOCK     CODE     ---       LVL=0
      01001D49H   LINE      CODE     ---       #426
      01001D49H   LINE      CODE     ---       #427
      01001D56H   LINE      CODE     ---       #428
      01001D5BH   LINE      CODE     ---       #429
      ---         BLOCKEND  ---      ---       LVL=0

      010020EBH   BLOCK     CODE     ---       LVL=0
      00000007H   SYMBOL    DATA     BYTE      duration
      010020EBH   LINE      CODE     ---       #431
      010020EBH   LINE      CODE     ---       #432
      ---         BLOCKEND  ---      ---       LVL=0

      01001D6FH   BLOCK     CODE     ---       LVL=0
      01001D6FH   LINE      CODE     ---       #434
      01001D6FH   LINE      CODE     ---       #435
      01001D7BH   LINE      CODE     ---       #436
      01001D80H   LINE      CODE     ---       #437
      ---         BLOCKEND  ---      ---       LVL=0

      01001FDEH   BLOCK     CODE     ---       LVL=0
      00000007H   SYMBOL    DATA     BYTE      enabled
      01001FDEH   LINE      CODE     ---       #439
      01001FDEH   LINE      CODE     ---       #440
      ---         BLOCKEND  ---      ---       LVL=0

      01001F90H   BLOCK     CODE     ---       LVL=0
      01001F90H   LINE      CODE     ---       #442
      01001F90H   LINE      CODE     ---       #443
      ---         BLOCKEND  ---      ---       LVL=0

      01000056H   BLOCK     CODE     ---       LVL=0
      01000056H   BLOCK     CODE     NEAR LAB  LVL=1
      020002A1H   SYMBOL    XDATA    BYTE      xgOffsetTC
      020002A2H   SYMBOL    XDATA    BYTE      ygOffsetTC
      020002A3H   SYMBOL    XDATA    BYTE      zgOffsetTC
      020002A4H   SYMBOL    XDATA    ---       dmpUpdate
      020002B4H   SYMBOL    XDATA    BYTE      j
      020002B5H   SYMBOL    XDATA    WORD      pos
      020002B7H   SYMBOL    XDATA    WORD      fifoCount
      020002B9H   SYMBOL    XDATA    ---       fifoBuffer
      ---         BLOCKEND  ---      ---       LVL=1
      01000056H   LINE      CODE     ---       #447
      01000056H   LINE      CODE     ---       #450
      0100005DH   LINE      CODE     ---       #455
LX51 LINKER/LOCATER V4.66.62.0                                                        11/16/2016  22:07:09  PAGE 37


      01000064H   LINE      CODE     ---       #456
      01000067H   LINE      CODE     ---       #457
      0100006EH   LINE      CODE     ---       #467
      01000075H   LINE      CODE     ---       #468
      0100007AH   LINE      CODE     ---       #471
      01000081H   LINE      CODE     ---       #472
      0100008AH   LINE      CODE     ---       #474
      01000096H   LINE      CODE     ---       #475
      0100009BH   LINE      CODE     ---       #480
      010000A2H   LINE      CODE     ---       #481
      010000A9H   LINE      CODE     ---       #490
      010000B0H   LINE      CODE     ---       #491
      010000B8H   LINE      CODE     ---       #492
      010000C0H   LINE      CODE     ---       #493
      010000C8H   LINE      CODE     ---       #503
      010000D4H   LINE      CODE     ---       #504
      010000DBH   LINE      CODE     ---       #506
      010000E2H   LINE      CODE     ---       #507
      010000E7H   LINE      CODE     ---       #509
      010000EEH   LINE      CODE     ---       #511
      010000F1H   LINE      CODE     ---       #512
      010000F8H   LINE      CODE     ---       #519
      010000FFH   LINE      CODE     ---       #520
      0100011CH   LINE      CODE     ---       #522
      01000123H   LINE      CODE     ---       #527
      0100012AH   LINE      CODE     ---       #528
      0100013DH   LINE      CODE     ---       #530
      01000149H   LINE      CODE     ---       #532
      01000155H   LINE      CODE     ---       #533
      0100015AH   LINE      CODE     ---       #536
      01000161H   LINE      CODE     ---       #537
      01000166H   LINE      CODE     ---       #540
      01000172H   LINE      CODE     ---       #541
      01000177H   LINE      CODE     ---       #544
      01000183H   LINE      CODE     ---       #548
      0100018AH   LINE      CODE     ---       #550
      01000191H   LINE      CODE     ---       #551
      01000196H   LINE      CODE     ---       #554
      0100019DH   LINE      CODE     ---       #555
      010001A2H   LINE      CODE     ---       #558
      010001A9H   LINE      CODE     ---       #559
      010001AEH   LINE      CODE     ---       #560
      010001B3H   LINE      CODE     ---       #563
      010001BAH   LINE      CODE     ---       #564
      010001BFH   LINE      CODE     ---       #567
      010001CBH   LINE      CODE     ---       #568
      010001D3H   LINE      CODE     ---       #569
      010001DBH   LINE      CODE     ---       #570
      010001E3H   LINE      CODE     ---       #578
      010001EAH   LINE      CODE     ---       #579
      010001FEH   LINE      CODE     ---       #582
      01000201H   LINE      CODE     ---       #585
      01000208H   LINE      CODE     ---       #586
      0100021CH   LINE      CODE     ---       #588
      0100021FH   LINE      CODE     ---       #591
      01000222H   LINE      CODE     ---       #594
      01000225H   LINE      CODE     ---       #599
      01000228H   LINE      CODE     ---       #602
      0100022DH   LINE      CODE     ---       #605
      01000232H   LINE      CODE     ---       #608
      01000237H   LINE      CODE     ---       #611
      0100023CH   LINE      CODE     ---       #614
      0100023FH   LINE      CODE     ---       #617
      01000244H   LINE      CODE     ---       #620
      01000249H   LINE      CODE     ---       #623
LX51 LINKER/LOCATER V4.66.62.0                                                        11/16/2016  22:07:09  PAGE 38


      0100024CH   LINE      CODE     ---       #626
      01000253H   LINE      CODE     ---       #627
      01000267H   LINE      CODE     ---       #628
      0100026AH   LINE      CODE     ---       #631
      01000271H   LINE      CODE     ---       #632
      01000285H   LINE      CODE     ---       #633
      01000288H   LINE      CODE     ---       #636
      0100028FH   LINE      CODE     ---       #637
      010002A3H   LINE      CODE     ---       #638
      010002A6H   LINE      CODE     ---       #641
      010002A9H   LINE      CODE     ---       #642
      010002B5H   LINE      CODE     ---       #643
      010002B7H   LINE      CODE     ---       #644
      010002BCH   LINE      CODE     ---       #645
      010002BFH   LINE      CODE     ---       #646
      010002D0H   LINE      CODE     ---       #647
      010002D2H   LINE      CODE     ---       #652
      010002D5H   LINE      CODE     ---       #660
      010002DCH   LINE      CODE     ---       #661
      010002F0H   LINE      CODE     ---       #662
      01000310H   LINE      CODE     ---       #665
      01000313H   LINE      CODE     ---       #666
      01000318H   LINE      CODE     ---       #667
      01000323H   LINE      CODE     ---       #668
      01000325H   LINE      CODE     ---       #674
      01000334H   LINE      CODE     ---       #682
      01000349H   LINE      CODE     ---       #683
      0100035DH   LINE      CODE     ---       #684
      01000360H   LINE      CODE     ---       #689
      01000365H   LINE      CODE     ---       #692
      0100036EH   LINE      CODE     ---       #698
      01000371H   LINE      CODE     ---       #699
      01000374H   LINE      CODE     ---       #700
      01000376H   LINE      CODE     ---       #702
      0100037DH   LINE      CODE     ---       #703
      01000380H   LINE      CODE     ---       #704
      01000380H   LINE      CODE     ---       #705
      01000380H   LINE      CODE     ---       #707
      01000387H   LINE      CODE     ---       #708
      0100038AH   LINE      CODE     ---       #709
      0100038AH   LINE      CODE     ---       #710
      01000391H   LINE      CODE     ---       #711
      01000393H   LINE      CODE     ---       #712
      ---         BLOCKEND  ---      ---       LVL=0

      010016EEH   BLOCK     CODE     ---       LVL=0
      020002A1H   SYMBOL    XDATA    ---       data_ptr
      020002A4H   SYMBOL    XDATA    ---       packet
      010016EEH   LINE      CODE     ---       #713
      010016F4H   LINE      CODE     ---       #715
      01001709H   LINE      CODE     ---       #716
      01001720H   LINE      CODE     ---       #717
      01001732H   LINE      CODE     ---       #718
      01001744H   LINE      CODE     ---       #719
      0100175DH   LINE      CODE     ---       #720
      0100175FH   LINE      CODE     ---       #721
      ---         BLOCKEND  ---      ---       LVL=0

      01002114H   BLOCK     CODE     ---       LVL=0
      01002114H   LINE      CODE     ---       #49
      01002114H   LINE      CODE     ---       #50
      01002116H   LINE      CODE     ---       #51
      01002119H   LINE      CODE     ---       #52
      0100211BH   LINE      CODE     ---       #53
      ---         BLOCKEND  ---      ---       LVL=0
LX51 LINKER/LOCATER V4.66.62.0                                                        11/16/2016  22:07:09  PAGE 39



      01000006H   BLOCK     CODE     ---       LVL=0
      01000006H   LINE      CODE     ---       #54
      01000006H   LINE      CODE     ---       #56
      01000009H   LINE      CODE     ---       #57
      ---         BLOCKEND  ---      ---       LVL=0

      01001D81H   BLOCK     CODE     ---       LVL=0
      01001D81H   LINE      CODE     ---       #63
      01001D81H   LINE      CODE     ---       #65
      01001D84H   LINE      CODE     ---       #66
      01001D87H   LINE      CODE     ---       #67
      01001D8AH   LINE      CODE     ---       #68
      01001D8DH   LINE      CODE     ---       #70
      01001D90H   LINE      CODE     ---       #71
      01001D92H   LINE      CODE     ---       #72
      ---         BLOCKEND  ---      ---       LVL=0

      01001459H   BLOCK     CODE     ---       LVL=0
      01001459H   LINE      CODE     ---       #74
      01001459H   LINE      CODE     ---       #75
      0100145CH   LINE      CODE     ---       #76
      0100145FH   LINE      CODE     ---       #77
      01001464H   LINE      CODE     ---       #79
      01001469H   LINE      CODE     ---       #80
      01001475H   LINE      CODE     ---       #81
      01001478H   LINE      CODE     ---       #82
      0100147BH   LINE      CODE     ---       #83
      01001487H   LINE      CODE     ---       #84
      0100148FH   LINE      CODE     ---       #85
      01001496H   LINE      CODE     ---       #86
      01001498H   LINE      CODE     ---       #87
      010014A2H   LINE      CODE     ---       #88
      010014A2H   LINE      CODE     ---       #89
      010014AEH   LINE      CODE     ---       #90
      010014C3H   LINE      CODE     ---       #91
      010014D8H   LINE      CODE     ---       #94
      ---         BLOCKEND  ---      ---       LVL=0

      01001187H   BLOCK     CODE     ---       LVL=0
      01001187H   LINE      CODE     ---       #95
      01001187H   LINE      CODE     ---       #96
      0100118EH   LINE      CODE     ---       #97
      0100119AH   LINE      CODE     ---       #98
      010011A2H   LINE      CODE     ---       #99
      010011A9H   LINE      CODE     ---       #100
      010011BEH   LINE      CODE     ---       #101
      010011D3H   LINE      CODE     ---       #102
      010011DBH   LINE      CODE     ---       #103
      010011E5H   LINE      CODE     ---       #104
      010011EAH   LINE      CODE     ---       #105
      010011F8H   LINE      CODE     ---       #106
      01001200H   LINE      CODE     ---       #107
      01001208H   LINE      CODE     ---       #108
      0100120BH   LINE      CODE     ---       #109
      01001212H   LINE      CODE     ---       #110
      0100121DH   LINE      CODE     ---       #111
      01001224H   LINE      CODE     ---       #113
      01001226H   LINE      CODE     ---       #114
      01001239H   LINE      CODE     ---       #115
      01001239H   LINE      CODE     ---       #116
      ---         BLOCKEND  ---      ---       LVL=0

      01000F7CH   BLOCK     CODE     ---       LVL=0
      01000F7CH   LINE      CODE     ---       #118
LX51 LINKER/LOCATER V4.66.62.0                                                        11/16/2016  22:07:09  PAGE 40


      01000F7CH   LINE      CODE     ---       #119
      01000F88H   LINE      CODE     ---       #120
      01000F8AH   LINE      CODE     ---       #121
      01000F8DH   LINE      CODE     ---       #122
      01000F9BH   LINE      CODE     ---       #123
      01000F9DH   LINE      CODE     ---       #124
      01000F9FH   LINE      CODE     ---       #125
      01000FA1H   LINE      CODE     ---       #126
      01000FADH   LINE      CODE     ---       #128
      01000FB0H   LINE      CODE     ---       #129
      01000FB8H   LINE      CODE     ---       #132
      01000FBBH   LINE      CODE     ---       #133
      01000FC2H   LINE      CODE     ---       #134
      01000FD0H   LINE      CODE     ---       #135
      01000FD7H   LINE      CODE     ---       #136
      01000FDFH   LINE      CODE     ---       #138
      01000FF2H   LINE      CODE     ---       #141
      01000FF5H   LINE      CODE     ---       #142
      01001004H   LINE      CODE     ---       #144
      0100100BH   LINE      CODE     ---       #145
      0100101AH   LINE      CODE     ---       #147
      01001029H   LINE      CODE     ---       #150
      01001038H   LINE      CODE     ---       #154
      01001042H   LINE      CODE     ---       #155
      01001042H   LINE      CODE     ---       #156
      ---         BLOCKEND  ---      ---       LVL=0

      01000E58H   BLOCK     CODE     ---       LVL=0
      01000E58H   LINE      CODE     ---       #157
      01000E58H   LINE      CODE     ---       #158
      01000E5BH   LINE      CODE     ---       #159
      01000E5BH   LINE      CODE     ---       #160
      01000E5EH   LINE      CODE     ---       #161
      01000E65H   LINE      CODE     ---       #162
      01000E71H   LINE      CODE     ---       #163
      01000E74H   LINE      CODE     ---       #164
      01000E80H   LINE      CODE     ---       #165
      01000E83H   LINE      CODE     ---       #166
      01000E86H   LINE      CODE     ---       #167
      01000E89H   LINE      CODE     ---       #168
      01000E89H   LINE      CODE     ---       #169
      01000E8CH   LINE      CODE     ---       #170
      01000E93H   LINE      CODE     ---       #171
      01000E9AH   LINE      CODE     ---       #172
      01000E9DH   LINE      CODE     ---       #173
      01000EA9H   LINE      CODE     ---       #174
      01000EA9H   LINE      CODE     ---       #175
      01000EB1H   LINE      CODE     ---       #177
      01000EB8H   LINE      CODE     ---       #178
      01000EBBH   LINE      CODE     ---       #179
      01000EC2H   LINE      CODE     ---       #180
      01000EC2H   LINE      CODE     ---       #181
      01000EC5H   LINE      CODE     ---       #183
      01000ECDH   LINE      CODE     ---       #184
      01000ED6H   LINE      CODE     ---       #185
      01000ED6H   LINE      CODE     ---       #186
      01000EE2H   LINE      CODE     ---       #187
      01000EE5H   LINE      CODE     ---       #188
      01000EE7H   LINE      CODE     ---       #189
      01000EE7H   LINE      CODE     ---       #190
      01000EEAH   LINE      CODE     ---       #191
      01000EF1H   LINE      CODE     ---       #192
      01000EF3H   LINE      CODE     ---       #193
      01000EF3H   LINE      CODE     ---       #194
      01000EF3H   LINE      CODE     ---       #195
LX51 LINKER/LOCATER V4.66.62.0                                                        11/16/2016  22:07:09  PAGE 41


      01000EF3H   LINE      CODE     ---       #196
      01000EF6H   LINE      CODE     ---       #197
      01000EF8H   LINE      CODE     ---       #198
      01000EF8H   LINE      CODE     ---       #200
      01000F08H   LINE      CODE     ---       #204
      01000F08H   LINE      CODE     ---       #206
      01000F10H   LINE      CODE     ---       #208
      01000F16H   LINE      CODE     ---       #209
      01000F16H   LINE      CODE     ---       #210
      01000F19H   LINE      CODE     ---       #211
      ---         BLOCKEND  ---      ---       LVL=0

      01001C57H   BLOCK     CODE     ---       LVL=0
      01001C57H   LINE      CODE     ---       #212
      01001C57H   LINE      CODE     ---       #213
      01001C57H   LINE      CODE     ---       #214
      01001C57H   LINE      CODE     ---       #215
      01001C57H   LINE      CODE     ---       #216
      01001C5AH   LINE      CODE     ---       #217
      01001C5AH   LINE      CODE     ---       #218
      01001C5AH   LINE      CODE     ---       #219
      01001C5AH   LINE      CODE     ---       #220
      01001C5DH   LINE      CODE     ---       #221
      01001C5FH   LINE      CODE     ---       #222
      ---         BLOCKEND  ---      ---       LVL=0

      010019F6H   BLOCK     CODE     ---       LVL=0
      010019F6H   LINE      CODE     ---       #225
      01001A13H   LINE      CODE     ---       #226
      01001A16H   LINE      CODE     ---       #227
      ---         BLOCKEND  ---      ---       LVL=0

      ---         MODULE    ---      ---       HAL_W2_ISR
      00000051H   PUBLIC    DATA     BYTE      w2_status
      00000050H   PUBLIC    DATA     BYTE      data_ready
      00000024H   PUBLIC    DATA     BYTE      ?_i2c_mpu_writeWords?BYTE
      01001878H   PUBLIC    CODE     ---       _i2c_mpu_writeWords
      01001D5CH   PUBLIC    CODE     ---       _i2c_mpu_writeWord
      00000022H   PUBLIC    DATA     BYTE      ?_i2c_mpu_readBits?BYTE
      01001820H   PUBLIC    CODE     ---       _i2c_mpu_readBits
      0000000FH   PUBLIC    DATA     BYTE      ?_i2c_mpu_readBit?BYTE
      01001BB7H   PUBLIC    CODE     ---       _i2c_mpu_readBit
      00000022H   PUBLIC    DATA     BYTE      ?_i2c_mpu_writeBits?BYTE
      01001760H   PUBLIC    CODE     ---       _i2c_mpu_writeBits
      00000022H   PUBLIC    DATA     BYTE      ?_i2c_mpu_writeBit?BYTE
      01001921H   PUBLIC    CODE     ---       _i2c_mpu_writeBit
      0000002EH   PUBLIC    DATA     BYTE      ?_i2c_mpu_readBytes?BYTE
      010017C3H   PUBLIC    CODE     ---       _i2c_mpu_readBytes
      01001DA5H   PUBLIC    CODE     ---       _i2c_mpu_readByte
      0000002AH   PUBLIC    DATA     BYTE      ?_i2c_mpu_writeBytes?BYTE
      01001A31H   PUBLIC    CODE     ---       _i2c_mpu_writeBytes
      01001DEAH   PUBLIC    CODE     ---       _i2c_mpu_writeByte
      0100167BH   PUBLIC    CODE     ---       hal_w2_soft_reset
      0000003DH   PUBLIC    DATA     BYTE      ?_hal_w2_read?BYTE
      010019B4H   PUBLIC    CODE     ---       _hal_w2_read
      00000016H   PUBLIC    DATA     BYTE      ?_hal_w2_write?BYTE
      01001A6BH   PUBLIC    CODE     ---       _hal_w2_write
      01001D93H   PUBLIC    CODE     ---       _hal_w2_init_transfer
      01001B90H   PUBLIC    CODE     ---       hal_w2_wait_data_ready
      01001BDBH   PUBLIC    CODE     ---       _hal_w2_configure_master
      0100202BH   PUBLIC    CODE     ---       _hal_w2_all_irq_enable
      01002020H   PUBLIC    CODE     ---       _hal_w2_enable
      01002015H   PUBLIC    CODE     ---       _hal_w2_set_op_mode
      01001F37H   PUBLIC    CODE     ---       _hal_w2_set_clk_freq
      0100211CH   PUBLIC    CODE     ---       _hal_w2_set_slave_address
LX51 LINKER/LOCATER V4.66.62.0                                                        11/16/2016  22:07:09  PAGE 42


      0100200AH   PUBLIC    CODE     ---       _hal_w2_irq_adr_match_enable
      01001FFFH   PUBLIC    CODE     ---       _hal_w2_irq_stop_cond_enable
      01001FF4H   PUBLIC    CODE     ---       _hal_w2_alter_clock
      01001FE9H   PUBLIC    CODE     ---       _hal_w2_respond_to_gen_adr
      01002090H   PUBLIC    CODE     ---       I2C_IRQ_handler
      01002086H   PUBLIC    CODE     ---       hal_w2_wait_data_ready_ISR
      00000098H.3 SFRSYM    DATA     BIT       TB80
      000000BEH   SFRSYM    DATA     BYTE      SPISSTAT
      000000C8H   SFRSYM    DATA     BIT       T2I0
      000000C3H   SFRSYM    DATA     BYTE      CCH1
      00000080H   SFRSYM    DATA     BYTE      P0
      000000C8H.1 SFRSYM    DATA     BIT       T2I1
      000000DFH   SFRSYM    DATA     BYTE      CCPDATO
      000000C5H   SFRSYM    DATA     BYTE      CCH2
      00000090H   SFRSYM    DATA     BYTE      P1
      000000C7H   SFRSYM    DATA     BYTE      CCH3
      000000A0H   SFRSYM    DATA     BYTE      P2
      00000098H.5 SFRSYM    DATA     BIT       SM20
      000000B0H   SFRSYM    DATA     BYTE      P3
      000000D0H.6 SFRSYM    DATA     BIT       AC
      000000C2H   SFRSYM    DATA     BYTE      CCL1
      000000C4H   SFRSYM    DATA     BYTE      CCL2
      000000D8H.7 SFRSYM    DATA     BIT       BD
      000000B8H   SFRSYM    DATA     BIT       RFSPI
      000000A8H.7 SFRSYM    DATA     BIT       EA
      000000CCH   SFRSYM    DATA     WORD      T2
      000000C6H   SFRSYM    DATA     BYTE      CCL3
      000000B7H   SFRSYM    DATA     BYTE      SPISRDSZ
      000000C8H.3 SFRSYM    DATA     BIT       T2R0
      000000C8H.4 SFRSYM    DATA     BIT       T2R1
      000000A8H   SFRSYM    DATA     BYTE      IEN0
      000000B8H   SFRSYM    DATA     BYTE      IEN1
      000000A5H   SFRSYM    DATA     BYTE      WUCON
      00000085H   SFRSYM    DATA     BYTE      DPH1
      000000DBH   SFRSYM    DATA     BYTE      COMPCON
      000000A3H   SFRSYM    DATA     BYTE      CLKCTRL
      00000084H   SFRSYM    DATA     BYTE      DPL1
      000000C8H.5 SFRSYM    DATA     BIT       I2FR
      000000B8H.3 SFRSYM    DATA     BIT       WUPIN
      000000C8H.6 SFRSYM    DATA     BIT       I3FR
      000000FFH   SFRSYM    DATA     BYTE      SPIMDAT
      000000C0H.7 SFRSYM    DATA     BIT       EXF2
      00000098H.4 SFRSYM    DATA     BIT       REN0
      000000C8H.2 SFRSYM    DATA     BIT       T2CM
      000000B8H.1 SFRSYM    DATA     BIT       RF
      000000B8H.5 SFRSYM    DATA     BIT       WUIRQ
      000000E7H   SFRSYM    DATA     BYTE      SPIRDAT
      000000C1H   SFRSYM    DATA     BYTE      CCEN
      000000E2H   SFRSYM    DATA     BYTE      W2CON0
      000000BFH   SFRSYM    DATA     BYTE      SPISDAT
      000000D0H.7 SFRSYM    DATA     BIT       CY
      000000E1H   SFRSYM    DATA     BYTE      W2CON1
      000000FBH   SFRSYM    DATA     BYTE      FDCR
      000000E8H   SFRSYM    DATA     BIT       RFCE
      000000CBH   SFRSYM    DATA     BYTE      CRCH
      00000081H   SFRSYM    DATA     BYTE      SP
      000000D0H.2 SFRSYM    DATA     BIT       OV
      000000CAH   SFRSYM    DATA     BYTE      CRCL
      000000ADH   SFRSYM    DATA     BYTE      CLKLFCTRL
      000000B1H   SFRSYM    DATA     BYTE      RSTREAS
      000000C8H.7 SFRSYM    DATA     BIT       T2PS
      000000F9H   SFRSYM    DATA     BYTE      FPCR
      000000B8H.4 SFRSYM    DATA     BIT       MISC
      000000A1H   SFRSYM    DATA     BYTE      PWMDC0
      000000B4H   SFRSYM    DATA     BYTE      RTC2CMP0
LX51 LINKER/LOCATER V4.66.62.0                                                        11/16/2016  22:07:09  PAGE 43


      000000A2H   SFRSYM    DATA     BYTE      PWMDC1
      000000B5H   SFRSYM    DATA     BYTE      RTC2CMP1
      00000080H   SFRSYM    DATA     BIT       P00
      000000BAH   SFRSYM    DATA     BYTE      S0RELH
      00000090H   SFRSYM    DATA     BIT       P10
      00000080H.1 SFRSYM    DATA     BIT       P01
      00000087H   SFRSYM    DATA     BYTE      PCON
      000000A0H   SFRSYM    DATA     BIT       P20
      00000090H.1 SFRSYM    DATA     BIT       P11
      00000080H.2 SFRSYM    DATA     BIT       P02
      000000B0H   SFRSYM    DATA     BIT       P30
      000000A0H.1 SFRSYM    DATA     BIT       P21
      00000090H.2 SFRSYM    DATA     BIT       P12
      00000080H.3 SFRSYM    DATA     BIT       P03
      000000C0H.2 SFRSYM    DATA     BIT       SPIF
      000000F8H.2 SFRSYM    DATA     BIT       RDIS
      000000B0H.1 SFRSYM    DATA     BIT       P31
      000000A0H.2 SFRSYM    DATA     BIT       P22
      00000090H.3 SFRSYM    DATA     BIT       P13
      00000080H.4 SFRSYM    DATA     BIT       P04
      000000AAH   SFRSYM    DATA     BYTE      S0RELL
      000000B0H.2 SFRSYM    DATA     BIT       P32
      000000A0H.3 SFRSYM    DATA     BIT       P23
      00000090H.4 SFRSYM    DATA     BIT       P14
      00000080H.5 SFRSYM    DATA     BIT       P05
      000000D9H   SFRSYM    DATA     BYTE      W2SADR
      00000089H   SFRSYM    DATA     BYTE      TMOD
      00000088H   SFRSYM    DATA     BYTE      TCON
      000000B0H.3 SFRSYM    DATA     BIT       P33
      000000A0H.4 SFRSYM    DATA     BIT       P24
      00000090H.5 SFRSYM    DATA     BIT       P15
      00000080H.6 SFRSYM    DATA     BIT       P06
      000000B0H.4 SFRSYM    DATA     BIT       P34
      000000A0H.5 SFRSYM    DATA     BIT       P25
      00000090H.6 SFRSYM    DATA     BIT       P16
      00000080H.7 SFRSYM    DATA     BIT       P07
      000000C2H   SFRSYM    DATA     WORD      CC1
      000000B0H.5 SFRSYM    DATA     BIT       P35
      000000A0H.6 SFRSYM    DATA     BIT       P26
      00000090H.7 SFRSYM    DATA     BIT       P17
      000000C4H   SFRSYM    DATA     WORD      CC2
      000000B0H.6 SFRSYM    DATA     BIT       P36
      000000A0H.7 SFRSYM    DATA     BIT       P27
      000000C6H   SFRSYM    DATA     WORD      CC3
      000000B0H.7 SFRSYM    DATA     BIT       P37
      000000E8H.2 SFRSYM    DATA     BIT       RFCKEN
      000000F8H   SFRSYM    DATA     BIT       WPEN
      000000DDH   SFRSYM    DATA     BYTE      CCPDATIA
      000000DEH   SFRSYM    DATA     BYTE      CCPDATIB
      00000088H.1 SFRSYM    DATA     BIT       IE0
      000000F8H.4 SFRSYM    DATA     BIT       RDYN
      00000088H.3 SFRSYM    DATA     BIT       IE1
      000000CFH   SFRSYM    DATA     BYTE      WUOPC0
      000000F0H   SFRSYM    DATA     BYTE      B
      000000E9H   SFRSYM    DATA     BYTE      MD0
      000000CEH   SFRSYM    DATA     BYTE      WUOPC1
      000000A7H   SFRSYM    DATA     BYTE      MEMCON
      000000EAH   SFRSYM    DATA     BYTE      MD1
      000000D7H   SFRSYM    DATA     BYTE      RNGDAT
      000000EBH   SFRSYM    DATA     BYTE      MD2
      000000ECH   SFRSYM    DATA     BYTE      MD3
      000000EDH   SFRSYM    DATA     BYTE      MD4
      000000AFH   SFRSYM    DATA     BYTE      WDSV
      000000EEH   SFRSYM    DATA     BYTE      MD5
      000000E0H   SFRSYM    DATA     BYTE      ACC
LX51 LINKER/LOCATER V4.66.62.0                                                        11/16/2016  22:07:09  PAGE 44


      000000DCH   SFRSYM    DATA     BYTE      POFCON
      000000A8H.4 SFRSYM    DATA     BIT       ES0
      000000A8H.1 SFRSYM    DATA     BIT       ET0
      000000A9H   SFRSYM    DATA     BYTE      IP0
      000000A8H.3 SFRSYM    DATA     BIT       ET1
      00000088H.5 SFRSYM    DATA     BIT       TF0
      000000B9H   SFRSYM    DATA     BYTE      IP1
      000000A8H.5 SFRSYM    DATA     BIT       ET2
      00000098H   SFRSYM    DATA     BIT       RI0
      00000088H.7 SFRSYM    DATA     BIT       TF1
      000000C0H   SFRSYM    DATA     BIT       RFSPIF
      000000C0H.6 SFRSYM    DATA     BIT       TF2
      000000FCH   SFRSYM    DATA     BYTE      SPIMCON0
      000000D6H   SFRSYM    DATA     BYTE      RNGCTL
      0000008CH   SFRSYM    DATA     BYTE      TH0
      000000A8H   SFRSYM    DATA     BIT       EX0
      00000098H.1 SFRSYM    DATA     BIT       TI0
      00000088H   SFRSYM    DATA     BIT       IT0
      000000FDH   SFRSYM    DATA     BYTE      SPIMCON1
      0000008DH   SFRSYM    DATA     BYTE      TH1
      000000A8H.2 SFRSYM    DATA     BIT       EX1
      00000088H.2 SFRSYM    DATA     BIT       IT1
      000000CDH   SFRSYM    DATA     BYTE      TH2
      000000AEH   SFRSYM    DATA     BYTE      OPMCON
      000000D0H   SFRSYM    DATA     BIT       P
      00000098H.7 SFRSYM    DATA     BIT       SM0
      0000008AH   SFRSYM    DATA     BYTE      TL0
      00000098H.6 SFRSYM    DATA     BIT       SM1
      000000E4H   SFRSYM    DATA     BYTE      SPIRCON0
      0000008BH   SFRSYM    DATA     BYTE      TL1
      000000E5H   SFRSYM    DATA     BYTE      SPIRCON1
      000000CCH   SFRSYM    DATA     BYTE      TL2
      000000BCH   SFRSYM    DATA     BYTE      SPISCON0
      000000BDH   SFRSYM    DATA     BYTE      SPISCON1
      000000D0H.3 SFRSYM    DATA     BIT       RS0
      00000088H.4 SFRSYM    DATA     BIT       TR0
      000000D0H.4 SFRSYM    DATA     BIT       RS1
      000000B2H   SFRSYM    DATA     BYTE      PWMCON
      00000088H.6 SFRSYM    DATA     BIT       TR1
      000000CAH   SFRSYM    DATA     WORD      CRC
      000000A6H   SFRSYM    DATA     BYTE      INTEXP
      000000C0H.3 SFRSYM    DATA     BIT       WUPINF
      000000FAH   SFRSYM    DATA     BYTE      FCR
      000000D3H   SFRSYM    DATA     BYTE      ADCCON1
      000000D2H   SFRSYM    DATA     BYTE      ADCCON2
      00000083H   SFRSYM    DATA     BYTE      DPH
      000000D1H   SFRSYM    DATA     BYTE      ADCCON3
      000000C0H.1 SFRSYM    DATA     BIT       RFF
      00000093H   SFRSYM    DATA     BYTE      P0DIR
      00000082H   SFRSYM    DATA     BYTE      DPL
      0000009EH   SFRSYM    DATA     BYTE      P0CON
      00000099H   SFRSYM    DATA     BYTE      S0BUF
      00000094H   SFRSYM    DATA     BYTE      P1DIR
      0000009FH   SFRSYM    DATA     BYTE      P1CON
      00000095H   SFRSYM    DATA     BYTE      P2DIR
      000000B8H.7 SFRSYM    DATA     BIT       EXEN2
      000000DAH   SFRSYM    DATA     BYTE      W2DAT
      00000097H   SFRSYM    DATA     BYTE      P2CON
      00000096H   SFRSYM    DATA     BYTE      P3DIR
      000000A4H   SFRSYM    DATA     BYTE      PWRDWN
      00000098H   SFRSYM    DATA     BYTE      S0CON
      0000008FH   SFRSYM    DATA     BYTE      P3CON
      000000B6H   SFRSYM    DATA     BYTE      RTC2CPT00
      000000D8H   SFRSYM    DATA     BYTE      ADCON
      000000ACH   SFRSYM    DATA     BYTE      RTC2CPT10
LX51 LINKER/LOCATER V4.66.62.0                                                        11/16/2016  22:07:09  PAGE 45


      000000ABH   SFRSYM    DATA     BYTE      RTC2CPT01
      000000C8H   SFRSYM    DATA     BYTE      T2CON
      00000092H   SFRSYM    DATA     BYTE      DPS
      000000F8H.5 SFRSYM    DATA     BIT       WEN
      000000F8H   SFRSYM    DATA     BYTE      FSR
      000000D4H   SFRSYM    DATA     BYTE      ADCDATH
      000000C9H   SFRSYM    DATA     BYTE      MPAGE
      000000B8H.2 SFRSYM    DATA     BIT       SPI
      000000F8H.1 SFRSYM    DATA     BIT       RDEND
      000000D5H   SFRSYM    DATA     BYTE      ADCDATL
      000000F8H.3 SFRSYM    DATA     BIT       INFEN
      000000F8H.7 SFRSYM    DATA     BIT       MCDIS
      000000C0H.5 SFRSYM    DATA     BIT       WUF
      000000C0H.4 SFRSYM    DATA     BIT       MISCF
      000000EFH   SFRSYM    DATA     BYTE      ARCON
      000000D0H.5 SFRSYM    DATA     BIT       F0
      000000F8H.6 SFRSYM    DATA     BIT       STP
      000000FEH   SFRSYM    DATA     BYTE      SPIMSTAT
      000000E8H   SFRSYM    DATA     BYTE      RFCON
      000000D0H   SFRSYM    DATA     BYTE      PSW
      00000098H.2 SFRSYM    DATA     BIT       RB80
      000000C0H   SFRSYM    DATA     BYTE      IRCON
      000000E8H.1 SFRSYM    DATA     BIT       RFCSN
      000000E6H   SFRSYM    DATA     BYTE      SPIRSTAT
      000000B3H   SFRSYM    DATA     BYTE      RTC2CON

      01001F45H   BLOCK     CODE     ---       LVL=0
      ---         BLOCKEND  ---      ---       LVL=0

      01002086H   BLOCK     CODE     ---       LVL=0
      01002086H   LINE      CODE     ---       #39
      01002086H   LINE      CODE     ---       #40
      01002086H   LINE      CODE     ---       #41
      01002089H   LINE      CODE     ---       #42
      0100208DH   LINE      CODE     ---       #43
      0100208FH   LINE      CODE     ---       #44
      ---         BLOCKEND  ---      ---       LVL=0

      01002090H   BLOCK     CODE     ---       LVL=0
      01002090H   LINE      CODE     ---       #45
      01002090H   LINE      CODE     ---       #46
      01002090H   LINE      CODE     ---       #48
      01002093H   LINE      CODE     ---       #49
      01002099H   LINE      CODE     ---       #51
      ---         BLOCKEND  ---      ---       LVL=0

      01001FE9H   BLOCK     CODE     ---       LVL=0
      00000007H   SYMBOL    DATA     BYTE      resp_gen
      01001FE9H   LINE      CODE     ---       #52
      01001FE9H   LINE      CODE     ---       #53
      01001FE9H   LINE      CODE     ---       #54
      01001FECH   LINE      CODE     ---       #55
      01001FECH   LINE      CODE     ---       #56
      01001FEFH   LINE      CODE     ---       #57
      01001FF0H   LINE      CODE     ---       #59
      01001FF0H   LINE      CODE     ---       #60
      01001FF3H   LINE      CODE     ---       #61
      01001FF3H   LINE      CODE     ---       #62
      ---         BLOCKEND  ---      ---       LVL=0

      01001FF4H   BLOCK     CODE     ---       LVL=0
      00000007H   SYMBOL    DATA     BYTE      alt_clk
      01001FF4H   LINE      CODE     ---       #64
      01001FF4H   LINE      CODE     ---       #65
      01001FF4H   LINE      CODE     ---       #66
LX51 LINKER/LOCATER V4.66.62.0                                                        11/16/2016  22:07:09  PAGE 46


      01001FF7H   LINE      CODE     ---       #67
      01001FF7H   LINE      CODE     ---       #68
      01001FFAH   LINE      CODE     ---       #69
      01001FFBH   LINE      CODE     ---       #71
      01001FFBH   LINE      CODE     ---       #72
      01001FFEH   LINE      CODE     ---       #73
      01001FFEH   LINE      CODE     ---       #74
      ---         BLOCKEND  ---      ---       LVL=0

      01001FFFH   BLOCK     CODE     ---       LVL=0
      00000007H   SYMBOL    DATA     BYTE      stop_cond
      01001FFFH   LINE      CODE     ---       #76
      01001FFFH   LINE      CODE     ---       #77
      01001FFFH   LINE      CODE     ---       #78
      01002002H   LINE      CODE     ---       #79
      01002002H   LINE      CODE     ---       #80
      01002005H   LINE      CODE     ---       #81
      01002006H   LINE      CODE     ---       #83
      01002006H   LINE      CODE     ---       #84
      01002009H   LINE      CODE     ---       #85
      01002009H   LINE      CODE     ---       #86
      ---         BLOCKEND  ---      ---       LVL=0

      0100200AH   BLOCK     CODE     ---       LVL=0
      00000007H   SYMBOL    DATA     BYTE      addr_match
      0100200AH   LINE      CODE     ---       #88
      0100200AH   LINE      CODE     ---       #89
      0100200AH   LINE      CODE     ---       #90
      0100200DH   LINE      CODE     ---       #91
      0100200DH   LINE      CODE     ---       #92
      01002010H   LINE      CODE     ---       #93
      01002011H   LINE      CODE     ---       #95
      01002011H   LINE      CODE     ---       #96
      01002014H   LINE      CODE     ---       #97
      01002014H   LINE      CODE     ---       #98
      ---         BLOCKEND  ---      ---       LVL=0

      0100211CH   BLOCK     CODE     ---       LVL=0
      00000007H   SYMBOL    DATA     BYTE      address
      0100211CH   LINE      CODE     ---       #100
      0100211CH   LINE      CODE     ---       #101
      0100211CH   LINE      CODE     ---       #102
      01002121H   LINE      CODE     ---       #103
      ---         BLOCKEND  ---      ---       LVL=0

      01001F37H   BLOCK     CODE     ---       LVL=0
      00000007H   SYMBOL    DATA     BYTE      freq
      01001F37H   LINE      CODE     ---       #107
      01001F37H   LINE      CODE     ---       #108
      01001F37H   LINE      CODE     ---       #109
      01001F44H   LINE      CODE     ---       #110
      ---         BLOCKEND  ---      ---       LVL=0

      01002015H   BLOCK     CODE     ---       LVL=0
      00000007H   SYMBOL    DATA     BYTE      mode
      01002015H   LINE      CODE     ---       #112
      01002015H   LINE      CODE     ---       #113
      01002015H   LINE      CODE     ---       #114
      01002018H   LINE      CODE     ---       #115
      01002018H   LINE      CODE     ---       #116
      0100201BH   LINE      CODE     ---       #117
      0100201CH   LINE      CODE     ---       #119
      0100201CH   LINE      CODE     ---       #120
      0100201FH   LINE      CODE     ---       #121
      0100201FH   LINE      CODE     ---       #122
LX51 LINKER/LOCATER V4.66.62.0                                                        11/16/2016  22:07:09  PAGE 47


      ---         BLOCKEND  ---      ---       LVL=0

      01002020H   BLOCK     CODE     ---       LVL=0
      00000007H   SYMBOL    DATA     BYTE      en
      01002020H   LINE      CODE     ---       #124
      01002020H   LINE      CODE     ---       #125
      01002020H   LINE      CODE     ---       #126
      01002023H   LINE      CODE     ---       #127
      01002023H   LINE      CODE     ---       #128
      01002026H   LINE      CODE     ---       #129
      01002027H   LINE      CODE     ---       #131
      01002027H   LINE      CODE     ---       #132
      0100202AH   LINE      CODE     ---       #133
      0100202AH   LINE      CODE     ---       #134
      ---         BLOCKEND  ---      ---       LVL=0

      0100202BH   BLOCK     CODE     ---       LVL=0
      00000007H   SYMBOL    DATA     BYTE      irq
      0100202BH   LINE      CODE     ---       #136
      0100202BH   LINE      CODE     ---       #137
      0100202BH   LINE      CODE     ---       #140
      0100202EH   LINE      CODE     ---       #141
      0100202EH   LINE      CODE     ---       #142
      01002031H   LINE      CODE     ---       #143
      01002032H   LINE      CODE     ---       #145
      01002032H   LINE      CODE     ---       #146
      01002035H   LINE      CODE     ---       #147
      01002035H   LINE      CODE     ---       #148
      ---         BLOCKEND  ---      ---       LVL=0

      01001BDBH   BLOCK     CODE     ---       LVL=0
      00000006H   SYMBOL    DATA     BYTE      mode
      01001BDBH   LINE      CODE     ---       #150
      01001BDDH   LINE      CODE     ---       #151
      01001BDDH   LINE      CODE     ---       #152
      01001BE2H   LINE      CODE     ---       #153
      01001BE7H   LINE      CODE     ---       #154
      01001BECH   LINE      CODE     ---       #156
      01001BEFH   LINE      CODE     ---       #157
      01001BF2H   LINE      CODE     ---       #158
      01001BF5H   LINE      CODE     ---       #160
      01001BF9H   LINE      CODE     ---       #161
      01001BFBH   LINE      CODE     ---       #162
      ---         BLOCKEND  ---      ---       LVL=0

      01001B90H   BLOCK     CODE     ---       LVL=0
      01001B90H   BLOCK     CODE     NEAR LAB  LVL=1
      00000008H   SYMBOL    DATA     DWORD     timeout_counter
      0000000CH   SYMBOL    DATA     BYTE      w2_status
      0000000DH   SYMBOL    DATA     BYTE      data_ready
      0000000EH   SYMBOL    DATA     BYTE      nack_received
      ---         BLOCKEND  ---      ---       LVL=1
      01001B90H   LINE      CODE     ---       #164
      01001B90H   LINE      CODE     ---       #165
      01001B90H   LINE      CODE     ---       #166
      01001B9AH   LINE      CODE     ---       #172
      01001B9AH   LINE      CODE     ---       #173
      01001B9DH   LINE      CODE     ---       #174
      01001BA3H   LINE      CODE     ---       #175
      01001BA9H   LINE      CODE     ---       #176
      01001BB0H   LINE      CODE     ---       #177
      01001BB4H   LINE      CODE     ---       #180
      01001BB6H   LINE      CODE     ---       #181
      ---         BLOCKEND  ---      ---       LVL=0

LX51 LINKER/LOCATER V4.66.62.0                                                        11/16/2016  22:07:09  PAGE 48


      01001D93H   BLOCK     CODE     ---       LVL=0
      00000007H   SYMBOL    DATA     BYTE      address
      00000005H   SYMBOL    DATA     BYTE      direction
      01001D93H   BLOCK     CODE     NEAR LAB  LVL=1
      00000007H   SYMBOL    DATA     BYTE      w2_status
      ---         BLOCKEND  ---      ---       LVL=1
      01001D93H   LINE      CODE     ---       #183
      01001D93H   LINE      CODE     ---       #184
      01001D93H   LINE      CODE     ---       #187
      01001D96H   LINE      CODE     ---       #188
      01001D9AH   LINE      CODE     ---       #190
      01001D9AH   LINE      CODE     ---       #192
      01001DA2H   LINE      CODE     ---       #193
      01001DA2H   LINE      CODE     ---       #194
      01001DA4H   LINE      CODE     ---       #195
      01001DA4H   LINE      CODE     ---       #197
      01001DA4H   LINE      CODE     ---       #198
      01001DA4H   LINE      CODE     ---       #199
      01001DA4H   LINE      CODE     ---       #200
      ---         BLOCKEND  ---      ---       LVL=0

      01001A6BH   BLOCK     CODE     ---       LVL=0
      00000007H   SYMBOL    DATA     BYTE      address
      00000017H   SYMBOL    DATA     ---       data_ptr
      0000001AH   SYMBOL    DATA     BYTE      data_len
      01001A71H   BLOCK     CODE     NEAR LAB  LVL=1
      00000006H   SYMBOL    DATA     BYTE      ack_received
      01001A85H   BLOCK     CODE     NEAR LAB  LVL=2
      0000001BH   SYMBOL    DATA     BYTE      w2_status
      ---         BLOCKEND  ---      ---       LVL=2
      ---         BLOCKEND  ---      ---       LVL=1
      01001A6BH   LINE      CODE     ---       #202
      01001A71H   LINE      CODE     ---       #203
      01001A71H   LINE      CODE     ---       #205
      01001A78H   LINE      CODE     ---       #207
      01001A85H   LINE      CODE     ---       #208
      01001A85H   LINE      CODE     ---       #210
      01001A8FH   LINE      CODE     ---       #211
      01001A94H   LINE      CODE     ---       #212
      01001A99H   LINE      CODE     ---       #213
      01001A99H   LINE      CODE     ---       #214
      01001A9BH   LINE      CODE     ---       #215
      01001A9BH   LINE      CODE     ---       #216
      01001A9DH   LINE      CODE     ---       #218
      01001AA0H   LINE      CODE     ---       #220
      01001AA2H   LINE      CODE     ---       #221
      ---         BLOCKEND  ---      ---       LVL=0

      010019B4H   BLOCK     CODE     ---       LVL=0
      00000007H   SYMBOL    DATA     BYTE      address
      0000003EH   SYMBOL    DATA     ---       data_ptr
      00000041H   SYMBOL    DATA     BYTE      data_len
      010019BAH   BLOCK     CODE     NEAR LAB  LVL=1
      00000007H   SYMBOL    DATA     BYTE      w2_status
      00000042H   SYMBOL    DATA     BYTE      ack_received
      ---         BLOCKEND  ---      ---       LVL=1
      010019B4H   LINE      CODE     ---       #223
      010019BAH   LINE      CODE     ---       #224
      010019BAH   LINE      CODE     ---       #228
      010019C1H   LINE      CODE     ---       #230
      010019C5H   LINE      CODE     ---       #231
      010019C5H   LINE      CODE     ---       #233
      010019C8H   LINE      CODE     ---       #234
      010019C8H   LINE      CODE     ---       #237
      010019D3H   LINE      CODE     ---       #238
LX51 LINKER/LOCATER V4.66.62.0                                                        11/16/2016  22:07:09  PAGE 49


      010019D3H   LINE      CODE     ---       #239
      010019D7H   LINE      CODE     ---       #240
      010019D7H   LINE      CODE     ---       #241
      010019DAH   LINE      CODE     ---       #242
      010019DAH   LINE      CODE     ---       #244
      010019DDH   LINE      CODE     ---       #246
      010019E7H   LINE      CODE     ---       #247
      010019F1H   LINE      CODE     ---       #248
      010019F3H   LINE      CODE     ---       #250
      010019F5H   LINE      CODE     ---       #251
      ---         BLOCKEND  ---      ---       LVL=0

      0100167BH   BLOCK     CODE     ---       LVL=0
      0100167BH   BLOCK     CODE     NEAR LAB  LVL=1
      00000036H   SYMBOL    DATA     BYTE      pulsecount
      00000037H   SYMBOL    DATA     BYTE      w2_freq
      ---         BLOCKEND  ---      ---       LVL=1
      0100167BH   LINE      CODE     ---       #253
      0100167BH   LINE      CODE     ---       #254
      0100167BH   LINE      CODE     ---       #259
      01001681H   LINE      CODE     ---       #261
      01001684H   LINE      CODE     ---       #262
      0100168CH   LINE      CODE     ---       #266
      0100168FH   LINE      CODE     ---       #267
      01001692H   LINE      CODE     ---       #270
      01001695H   LINE      CODE     ---       #275
      0100169BH   LINE      CODE     ---       #278
      0100169BH   LINE      CODE     ---       #280
      0100169BH   LINE      CODE     ---       #284
      0100169EH   LINE      CODE     ---       #285
      010016A1H   LINE      CODE     ---       #286
      010016A1H   LINE      CODE     ---       #288
      010016A7H   LINE      CODE     ---       #289
      010016A7H   LINE      CODE     ---       #291
      010016A7H   LINE      CODE     ---       #292
      010016AAH   LINE      CODE     ---       #293
      010016B3H   LINE      CODE     ---       #296
      010016B3H   LINE      CODE     ---       #298
      010016BAH   LINE      CODE     ---       #301
      010016BAH   LINE      CODE     ---       #303
      010016C1H   LINE      CODE     ---       #306
      010016C4H   LINE      CODE     ---       #309
      010016C7H   LINE      CODE     ---       #310
      010016CDH   LINE      CODE     ---       #312
      ---         BLOCKEND  ---      ---       LVL=0

      01001DEAH   BLOCK     CODE     ---       LVL=0
      00000007H   SYMBOL    DATA     BYTE      devAddr
      00000005H   SYMBOL    DATA     BYTE      regAddr
      00000029H   SYMBOL    DATA     BYTE      data_to_write
      01001DEAH   LINE      CODE     ---       #317
      01001DECH   LINE      CODE     ---       #318
      01001DFAH   LINE      CODE     ---       #319
      ---         BLOCKEND  ---      ---       LVL=0

      01001A31H   BLOCK     CODE     ---       LVL=0
      00000007H   SYMBOL    DATA     BYTE      devAddr
      00000004H   SYMBOL    DATA     BYTE      regAddr
      00000006H   SYMBOL    DATA     BYTE      data_len
      0000002DH   SYMBOL    DATA     ---       data_ptr
      01001A35H   BLOCK     CODE     NEAR LAB  LVL=1
      00000007H   SYMBOL    DATA     BYTE      w2_status
      00000005H   SYMBOL    DATA     BYTE      ack_received
      ---         BLOCKEND  ---      ---       LVL=1
      01001A31H   LINE      CODE     ---       #321
LX51 LINKER/LOCATER V4.66.62.0                                                        11/16/2016  22:07:09  PAGE 50


      01001A35H   LINE      CODE     ---       #326
      01001A3CH   LINE      CODE     ---       #327
      01001A3EH   LINE      CODE     ---       #328
      01001A41H   LINE      CODE     ---       #329
      01001A45H   LINE      CODE     ---       #330
      01001A45H   LINE      CODE     ---       #331
      01001A47H   LINE      CODE     ---       #332
      01001A47H   LINE      CODE     ---       #334
      01001A53H   LINE      CODE     ---       #335
      01001A53H   LINE      CODE     ---       #336
      01001A5BH   LINE      CODE     ---       #337
      01001A5BH   LINE      CODE     ---       #338
      01001A61H   LINE      CODE     ---       #339
      01001A61H   LINE      CODE     ---       #340
      01001A63H   LINE      CODE     ---       #341
      01001A63H   LINE      CODE     ---       #342
      01001A65H   LINE      CODE     ---       #343
      01001A68H   LINE      CODE     ---       #345
      01001A6AH   LINE      CODE     ---       #346
      ---         BLOCKEND  ---      ---       LVL=0

      01001DA5H   BLOCK     CODE     ---       LVL=0
      00000007H   SYMBOL    DATA     BYTE      devAddr
      00000005H   SYMBOL    DATA     BYTE      regAddr
      0000002BH   SYMBOL    DATA     ---       data_ptr
      01001DA5H   LINE      CODE     ---       #348
      01001DABH   LINE      CODE     ---       #349
      01001DB6H   LINE      CODE     ---       #350
      ---         BLOCKEND  ---      ---       LVL=0

      010017C3H   BLOCK     CODE     ---       LVL=0
      00000006H   SYMBOL    DATA     BYTE      devAddr
      00000004H   SYMBOL    DATA     BYTE      regAddr
      00000030H   SYMBOL    DATA     BYTE      data_len
      00000031H   SYMBOL    DATA     ---       data_ptr
      010017C9H   BLOCK     CODE     NEAR LAB  LVL=1
      00000034H   SYMBOL    DATA     BYTE      w2_status
      00000035H   SYMBOL    DATA     BYTE      ack_received
      ---         BLOCKEND  ---      ---       LVL=1
      010017C3H   LINE      CODE     ---       #352
      010017C9H   LINE      CODE     ---       #357
      010017D0H   LINE      CODE     ---       #358
      010017D2H   LINE      CODE     ---       #359
      010017D7H   LINE      CODE     ---       #360
      010017DCH   LINE      CODE     ---       #361
      010017DCH   LINE      CODE     ---       #362
      010017DFH   LINE      CODE     ---       #363
      010017DFH   LINE      CODE     ---       #367
      010017E8H   LINE      CODE     ---       #369
      010017ECH   LINE      CODE     ---       #370
      010017ECH   LINE      CODE     ---       #372
      010017EFH   LINE      CODE     ---       #374
      010017EFH   LINE      CODE     ---       #376
      010017FAH   LINE      CODE     ---       #377
      010017FAH   LINE      CODE     ---       #378
      010017FEH   LINE      CODE     ---       #379
      010017FEH   LINE      CODE     ---       #380
      01001801H   LINE      CODE     ---       #381
      01001801H   LINE      CODE     ---       #383
      01001806H   LINE      CODE     ---       #385
      01001810H   LINE      CODE     ---       #386
      0100181BH   LINE      CODE     ---       #387
      0100181DH   LINE      CODE     ---       #389
      0100181FH   LINE      CODE     ---       #390
      ---         BLOCKEND  ---      ---       LVL=0
LX51 LINKER/LOCATER V4.66.62.0                                                        11/16/2016  22:07:09  PAGE 51



      01001921H   BLOCK     CODE     ---       LVL=0
      00000022H   SYMBOL    DATA     BYTE      devAddr
      00000023H   SYMBOL    DATA     BYTE      regAddr
      00000024H   SYMBOL    DATA     BYTE      bitNum
      00000025H   SYMBOL    DATA     BYTE      data_to_write
      01001927H   BLOCK     CODE     NEAR LAB  LVL=1
      00000026H   SYMBOL    DATA     BYTE      b
      ---         BLOCKEND  ---      ---       LVL=1
      01001921H   LINE      CODE     ---       #393
      01001927H   LINE      CODE     ---       #395
      01001930H   LINE      CODE     ---       #396
      01001965H   LINE      CODE     ---       #397
      0100196EH   LINE      CODE     ---       #398
      ---         BLOCKEND  ---      ---       LVL=0

      01001760H   BLOCK     CODE     ---       LVL=0
      00000022H   SYMBOL    DATA     BYTE      devAddr
      00000023H   SYMBOL    DATA     BYTE      regAddr
      00000024H   SYMBOL    DATA     BYTE      bitStart
      00000025H   SYMBOL    DATA     BYTE      data_length
      00000026H   SYMBOL    DATA     BYTE      data_to_write
      01001766H   BLOCK     CODE     NEAR LAB  LVL=1
      00000027H   SYMBOL    DATA     BYTE      b
      01001772H   BLOCK     CODE     NEAR LAB  LVL=2
      00000028H   SYMBOL    DATA     BYTE      mask
      ---         BLOCKEND  ---      ---       LVL=2
      ---         BLOCKEND  ---      ---       LVL=1
      01001760H   LINE      CODE     ---       #399
      01001766H   LINE      CODE     ---       #408
      01001772H   LINE      CODE     ---       #409
      0100179FH   LINE      CODE     ---       #410
      010017ACH   LINE      CODE     ---       #411
      010017B0H   LINE      CODE     ---       #412
      010017B3H   LINE      CODE     ---       #413
      010017B7H   LINE      CODE     ---       #414
      010017C0H   LINE      CODE     ---       #415
      010017C0H   LINE      CODE     ---       #416
      010017C2H   LINE      CODE     ---       #417
      010017C2H   LINE      CODE     ---       #418
      ---         BLOCKEND  ---      ---       LVL=0

      01001BB7H   BLOCK     CODE     ---       LVL=0
      00000007H   SYMBOL    DATA     BYTE      devAddr
      00000005H   SYMBOL    DATA     BYTE      regAddr
      00000011H   SYMBOL    DATA     BYTE      bitNum
      00000012H   SYMBOL    DATA     ---       data_ptr
      01001BB9H   BLOCK     CODE     NEAR LAB  LVL=1
      00000015H   SYMBOL    DATA     BYTE      b
      00000007H   SYMBOL    DATA     BYTE      count
      ---         BLOCKEND  ---      ---       LVL=1
      01001BB7H   LINE      CODE     ---       #419
      01001BB9H   LINE      CODE     ---       #421
      01001BC2H   LINE      CODE     ---       #422
      01001BDAH   LINE      CODE     ---       #423
      01001BDAH   LINE      CODE     ---       #424
      ---         BLOCKEND  ---      ---       LVL=0

      01001820H   BLOCK     CODE     ---       LVL=0
      00000007H   SYMBOL    DATA     BYTE      devAddr
      00000005H   SYMBOL    DATA     BYTE      regAddr
      00000024H   SYMBOL    DATA     BYTE      bitStart
      00000025H   SYMBOL    DATA     BYTE      data_length
      00000026H   SYMBOL    DATA     ---       data_ptr
      01001822H   BLOCK     CODE     NEAR LAB  LVL=1
LX51 LINKER/LOCATER V4.66.62.0                                                        11/16/2016  22:07:09  PAGE 52


      00000005H   SYMBOL    DATA     BYTE      count
      00000029H   SYMBOL    DATA     BYTE      b
      01001830H   BLOCK     CODE     NEAR LAB  LVL=2
      0000002AH   SYMBOL    DATA     BYTE      mask
      ---         BLOCKEND  ---      ---       LVL=2
      ---         BLOCKEND  ---      ---       LVL=1
      01001820H   LINE      CODE     ---       #425
      01001822H   LINE      CODE     ---       #432
      01001830H   LINE      CODE     ---       #433
      0100185DH   LINE      CODE     ---       #434
      0100185FH   LINE      CODE     ---       #435
      0100186CH   LINE      CODE     ---       #436
      01001875H   LINE      CODE     ---       #437
      01001875H   LINE      CODE     ---       #438
      01001877H   LINE      CODE     ---       #439
      ---         BLOCKEND  ---      ---       LVL=0

      01001D5CH   BLOCK     CODE     ---       LVL=0
      00000007H   SYMBOL    DATA     BYTE      devAddr
      00000005H   SYMBOL    DATA     BYTE      regAddr
      00000022H   SYMBOL    DATA     WORD      data_to_write
      01001D5CH   LINE      CODE     ---       #442
      01001D60H   LINE      CODE     ---       #443
      01001D6EH   LINE      CODE     ---       #444
      ---         BLOCKEND  ---      ---       LVL=0

      01001878H   BLOCK     CODE     ---       LVL=0
      00000007H   SYMBOL    DATA     BYTE      devAddr
      00000006H   SYMBOL    DATA     BYTE      regAddr
      00000004H   SYMBOL    DATA     BYTE      data_length
      00000027H   SYMBOL    DATA     ---       data_ptr
      0100187CH   BLOCK     CODE     NEAR LAB  LVL=1
      00000007H   SYMBOL    DATA     BYTE      w2_status
      00000005H   SYMBOL    DATA     BYTE      ack_received
      ---         BLOCKEND  ---      ---       LVL=1
      01001878H   LINE      CODE     ---       #445
      0100187CH   LINE      CODE     ---       #456
      01001883H   LINE      CODE     ---       #457
      01001885H   LINE      CODE     ---       #458
      01001888H   LINE      CODE     ---       #459
      0100188CH   LINE      CODE     ---       #460
      0100188CH   LINE      CODE     ---       #461
      0100188EH   LINE      CODE     ---       #462
      0100188EH   LINE      CODE     ---       #464
      0100189CH   LINE      CODE     ---       #465
      0100189CH   LINE      CODE     ---       #466
      010018A7H   LINE      CODE     ---       #467
      010018A7H   LINE      CODE     ---       #468
      010018ADH   LINE      CODE     ---       #469
      010018ADH   LINE      CODE     ---       #470
      010018AFH   LINE      CODE     ---       #471
      010018AFH   LINE      CODE     ---       #472
      010018B2H   LINE      CODE     ---       #473
      010018BEH   LINE      CODE     ---       #474
      010018BEH   LINE      CODE     ---       #475
      010018C4H   LINE      CODE     ---       #476
      010018C4H   LINE      CODE     ---       #477
      010018C6H   LINE      CODE     ---       #478
      010018C6H   LINE      CODE     ---       #479
      010018C8H   LINE      CODE     ---       #480
      010018C8H   LINE      CODE     ---       #481
      010018C8H   LINE      CODE     ---       #482
      010018C8H   LINE      CODE     ---       #483
      010018CBH   LINE      CODE     ---       #485
      010018CDH   LINE      CODE     ---       #486
LX51 LINKER/LOCATER V4.66.62.0                                                        11/16/2016  22:07:09  PAGE 53


      ---         BLOCKEND  ---      ---       LVL=0

      ---         MODULE    ---      ---       HAL_DELAY
      01001D22H   PUBLIC    CODE     ---       _delay_ms
      01001CE9H   PUBLIC    CODE     ---       _delay_us

      01001CDEH   BLOCK     CODE     ---       LVL=0
      ---         BLOCKEND  ---      ---       LVL=0

      01001CE9H   BLOCK     CODE     ---       LVL=0
      00000006H   SYMBOL    DATA     WORD      us
      01001CE9H   LINE      CODE     ---       #37
      01001CE9H   LINE      CODE     ---       #38
      01001CE9H   LINE      CODE     ---       #40
      01001CE9H   LINE      CODE     ---       #41
      01001CEAH   LINE      CODE     ---       #42
      01001CEBH   LINE      CODE     ---       #43
      01001CECH   LINE      CODE     ---       #44
      01001CEDH   LINE      CODE     ---       #45
      01001CEEH   LINE      CODE     ---       #46
      01001CF7H   LINE      CODE     ---       #47
      ---         BLOCKEND  ---      ---       LVL=0

      01001D22H   BLOCK     CODE     ---       LVL=0
      00000004H   SYMBOL    DATA     WORD      ms
      01001D22H   LINE      CODE     ---       #49
      01001D26H   LINE      CODE     ---       #50
      01001D26H   LINE      CODE     ---       #52
      01001D26H   LINE      CODE     ---       #53
      01001D26H   LINE      CODE     ---       #54
      01001D29H   LINE      CODE     ---       #55
      01001D29H   LINE      CODE     ---       #56
      01001D2CH   LINE      CODE     ---       #57
      01001D35H   LINE      CODE     ---       #58
      ---         BLOCKEND  ---      ---       LVL=0

      ---         MODULE    ---      ---       ?C_INIT
      01001539H   PUBLIC    CODE     ---       ?C_START

      ---         MODULE    ---      ---       ?C?CLDPTR
      01000547H   PUBLIC    CODE     ---       ?C?CLDPTR

      ---         MODULE    ---      ---       ?C?CLDOPTR
      01000560H   PUBLIC    CODE     ---       ?C?CLDOPTR

      ---         MODULE    ---      ---       ?C?CSTPTR
      0100058DH   PUBLIC    CODE     ---       ?C?CSTPTR

      ---         MODULE    ---      ---       ?C?CSTOPTR
      0100059FH   PUBLIC    CODE     ---       ?C?CSTOPTR

      ---         MODULE    ---      ---       ?C?IILDX
      010005C1H   PUBLIC    CODE     ---       ?C?IILDX

      ---         MODULE    ---      ---       ?C?ILDIX
      010005D7H   PUBLIC    CODE     ---       ?C?ILDIX

      ---         MODULE    ---      ---       ?C?ILDPTR
      010005EDH   PUBLIC    CODE     ---       ?C?ILDPTR

      ---         MODULE    ---      ---       ?C?ISTPTR
      01000618H   PUBLIC    CODE     ---       ?C?ISTPTR

      ---         MODULE    ---      ---       ?C?ISTOPTR
      01000637H   PUBLIC    CODE     ---       ?C?ISTOPTR
LX51 LINKER/LOCATER V4.66.62.0                                                        11/16/2016  22:07:09  PAGE 54



      ---         MODULE    ---      ---       ?C?PLDIIDATA
      01000664H   PUBLIC    CODE     ---       ?C?PLDIIDATA

      ---         MODULE    ---      ---       ?C?PLDXDATA
      01000674H   PUBLIC    CODE     ---       ?C?PLDXDATA

      ---         MODULE    ---      ---       ?C?PSTXDATA
      0100067DH   PUBLIC    CODE     ---       ?C?PSTXDATA

      ---         MODULE    ---      ---       ?C?MEMCMP
      0100080CH   PUBLIC    CODE     ---       ?C?MEMCMP

      ---         MODULE    ---      ---       MALLOC
      010013BDH   PUBLIC    CODE     ---       _MALLOC

      ---         MODULE    ---      ---       INIT_MEM
      0200035BH   PUBLIC    XDATA    ---       __MEM_AVAIL__
      0100000EH   PUBLIC    CODE     ---       _INIT_MEMPOOL

      ---         MODULE    ---      ---       REALLOC
      01001603H   PUBLIC    CODE     ---       _REALLOC

      ---         MODULE    ---      ---       FREE
      01001083H   PUBLIC    CODE     ---       _FREE

      ---         MODULE    ---      ---       ?C?COPY
      01000900H   PUBLIC    CODE     ---       ?C?COPY



*** WARNING L57: UNCALLED FUNCTION, IGNORED FOR OVERLAY PROCESS
    NAME:    UART_INIT/MAIN

*** WARNING L57: UNCALLED FUNCTION, IGNORED FOR OVERLAY PROCESS
    NAME:    _PUTSTRING/MAIN

*** WARNING L57: UNCALLED FUNCTION, IGNORED FOR OVERLAY PROCESS
    NAME:    _SEND_PACKET_TO_COMPUTER/MAIN

*** WARNING L57: UNCALLED FUNCTION, IGNORED FOR OVERLAY PROCESS
    NAME:    _SEND_PACKET_FROM_HOST_TO_COMPUTER/MAIN

*** WARNING L57: UNCALLED FUNCTION, IGNORED FOR OVERLAY PROCESS
    NAME:    _GETMOTION6_PACKET/MAIN

*** WARNING L57: UNCALLED FUNCTION, IGNORED FOR OVERLAY PROCESS
    NAME:    GETXACCELOFFSET/MAIN

*** WARNING L57: UNCALLED FUNCTION, IGNORED FOR OVERLAY PROCESS
    NAME:    GETYACCELOFFSET/MAIN

*** WARNING L57: UNCALLED FUNCTION, IGNORED FOR OVERLAY PROCESS
    NAME:    GETZACCELOFFSET/MAIN

*** WARNING L57: UNCALLED FUNCTION, IGNORED FOR OVERLAY PROCESS
    NAME:    GETXGYROOFFSET/MAIN

*** WARNING L57: UNCALLED FUNCTION, IGNORED FOR OVERLAY PROCESS
    NAME:    GETYGYROOFFSET/MAIN

*** WARNING L57: UNCALLED FUNCTION, IGNORED FOR OVERLAY PROCESS
    NAME:    GETZGYROOFFSET/MAIN

*** WARNING L57: UNCALLED FUNCTION, IGNORED FOR OVERLAY PROCESS
LX51 LINKER/LOCATER V4.66.62.0                                                        11/16/2016  22:07:09  PAGE 55


    NAME:    _SETEXTERNALFRAMESYNC/MAIN

*** WARNING L57: UNCALLED FUNCTION, IGNORED FOR OVERLAY PROCESS
    NAME:    GETDMPCONFIG1/MAIN

*** WARNING L57: UNCALLED FUNCTION, IGNORED FOR OVERLAY PROCESS
    NAME:    GETDMPCONFIG2/MAIN

*** WARNING L57: UNCALLED FUNCTION, IGNORED FOR OVERLAY PROCESS
    NAME:    GETOTPBANKVALID/MAIN

*** WARNING L57: UNCALLED FUNCTION, IGNORED FOR OVERLAY PROCESS
    NAME:    GETMOTIONDETECTIONTHRESHOLD/MAIN

*** WARNING L57: UNCALLED FUNCTION, IGNORED FOR OVERLAY PROCESS
    NAME:    GETZEROMOTIONDETECTIONTHRESHOLD/MAIN

*** WARNING L57: UNCALLED FUNCTION, IGNORED FOR OVERLAY PROCESS
    NAME:    GETMOTIONDETECTIONDURATION/MAIN

*** WARNING L57: UNCALLED FUNCTION, IGNORED FOR OVERLAY PROCESS
    NAME:    GETZEROMOTIONDETECTIONDURATION/MAIN

*** WARNING L57: UNCALLED FUNCTION, IGNORED FOR OVERLAY PROCESS
    NAME:    GETFIFOENABLED/MAIN

*** WARNING L57: UNCALLED FUNCTION, IGNORED FOR OVERLAY PROCESS
    NAME:    PIN_ISR_SETUP/MAIN

*** WARNING L57: UNCALLED FUNCTION, IGNORED FOR OVERLAY PROCESS
    NAME:    _HAL_W2_RESPOND_TO_GEN_ADR/HAL_W2_ISR

*** WARNING L57: UNCALLED FUNCTION, IGNORED FOR OVERLAY PROCESS
    NAME:    _HAL_W2_ALTER_CLOCK/HAL_W2_ISR

*** WARNING L57: UNCALLED FUNCTION, IGNORED FOR OVERLAY PROCESS
    NAME:    _HAL_W2_IRQ_STOP_COND_ENABLE/HAL_W2_ISR

*** WARNING L57: UNCALLED FUNCTION, IGNORED FOR OVERLAY PROCESS
    NAME:    _HAL_W2_IRQ_ADR_MATCH_ENABLE/HAL_W2_ISR

*** WARNING L57: UNCALLED FUNCTION, IGNORED FOR OVERLAY PROCESS
    NAME:    _HAL_W2_SET_SLAVE_ADDRESS/HAL_W2_ISR

*** WARNING L57: UNCALLED FUNCTION, IGNORED FOR OVERLAY PROCESS
    NAME:    HAL_W2_WAIT_DATA_READY/HAL_W2_ISR

*** WARNING L57: UNCALLED FUNCTION, IGNORED FOR OVERLAY PROCESS
    NAME:    _HAL_W2_WRITE/HAL_W2_ISR

*** WARNING L57: UNCALLED FUNCTION, IGNORED FOR OVERLAY PROCESS
    NAME:    _HAL_W2_READ/HAL_W2_ISR

Program Size: data=82.1 xdata=869 const=3075 code=8475
LX51 RUN COMPLETE.  29 WARNING(S),  0 ERROR(S)
