LX51 LINKER/LOCATER V4.66.62.0                                                          11/17/2016  16:14:32  PAGE 1


LX51 LINKER/LOCATER V4.66.62.0, INVOKED BY:
C:\KEIL_V5\C51\BIN\LX51.EXE STARTUP.obj, main.obj, .\hal_w2_isr.obj, .\hal_delay.obj TO FProject DISABLEWARNING (16)


CPU MODE:     8051 MODE
MEMORY MODEL: SMALL


INPUT MODULES INCLUDED:
  STARTUP.obj (?C_STARTUP)
         COMMENT TYPE 1: A51 / ASM51 Assembler
  main.obj (MAIN)
         COMMENT TYPE 0: C51 V9.55
  .\hal_w2_isr.obj (HAL_W2_ISR)
         COMMENT TYPE 0: C51 V9.55
  .\hal_delay.obj (HAL_DELAY)
         COMMENT TYPE 0: C51 V9.55
  C:\KEIL_V5\C51\LIB\C51S.LIB (?C_INIT)
         COMMENT TYPE 1: A51 / ASM51 Assembler
  C:\KEIL_V5\C51\LIB\C51S.LIB (?C?CLDPTR)
         COMMENT TYPE 1: A51 / ASM51 Assembler
  C:\KEIL_V5\C51\LIB\C51S.LIB (?C?CLDOPTR)
         COMMENT TYPE 1: A51 / ASM51 Assembler
  C:\KEIL_V5\C51\LIB\C51S.LIB (?C?CSTPTR)
         COMMENT TYPE 1: A51 / ASM51 Assembler
  C:\KEIL_V5\C51\LIB\C51S.LIB (?C?CSTOPTR)
         COMMENT TYPE 1: A51 / ASM51 Assembler
  C:\KEIL_V5\C51\LIB\C51S.LIB (?C?IILDX)
         COMMENT TYPE 1: A51 / ASM51 Assembler
  C:\KEIL_V5\C51\LIB\C51S.LIB (?C?ILDIX)
         COMMENT TYPE 1: A51 / ASM51 Assembler
  C:\KEIL_V5\C51\LIB\C51S.LIB (?C?ILDPTR)
         COMMENT TYPE 1: A51 / ASM51 Assembler
  C:\KEIL_V5\C51\LIB\C51S.LIB (?C?ISTPTR)
         COMMENT TYPE 1: A51 / ASM51 Assembler
  C:\KEIL_V5\C51\LIB\C51S.LIB (?C?ISTOPTR)
         COMMENT TYPE 1: A51 / ASM51 Assembler
  C:\KEIL_V5\C51\LIB\C51S.LIB (?C?PLDIIDATA)
         COMMENT TYPE 1: A51 / ASM51 Assembler
  C:\KEIL_V5\C51\LIB\C51S.LIB (?C?PLDXDATA)
         COMMENT TYPE 1: A51 / ASM51 Assembler
  C:\KEIL_V5\C51\LIB\C51S.LIB (?C?PSTXDATA)
         COMMENT TYPE 1: A51 / ASM51 Assembler
  C:\KEIL_V5\C51\LIB\C51S.LIB (?C?MEMCMP)
         COMMENT TYPE 1: A51 / ASM51 Assembler
  C:\KEIL_V5\C51\LIB\C51S.LIB (MALLOC)
         COMMENT TYPE 1: C51 Compiler
  C:\KEIL_V5\C51\LIB\C51S.LIB (INIT_MEM)
         COMMENT TYPE 1: C51 Compiler
  C:\KEIL_V5\C51\LIB\C51S.LIB (REALLOC)
         COMMENT TYPE 1: C51 Compiler
  C:\KEIL_V5\C51\LIB\C51S.LIB (FREE)
         COMMENT TYPE 1: C51 Compiler
  C:\KEIL_V5\C51\LIB\C51S.LIB (?C?COPY)
         COMMENT TYPE 1: A51 / ASM51 Assembler


ACTIVE MEMORY CLASSES OF MODULE:  FProject (?C_STARTUP)

BASE        START       END         USED      MEMORY CLASS
==========================================================
C:000000H   C:000000H   C:00FFFFH   0023DFH   CODE
I:000000H   I:000000H   I:0000FFH   000001H   IDATA
I:000000H   I:000000H   I:00007FH   000051H   DATA
X:000000H   X:000000H   X:00FFFFH   000380H   XDATA
C:000000H   C:000000H   C:00FFFFH   000BF1H   CONST
LX51 LINKER/LOCATER V4.66.62.0                                                        11/17/2016  16:14:32  PAGE 2


I:000020H.0 I:000020H.0 I:00002FH.7 000000H.1 BIT


MEMORY MAP OF MODULE:  FProject (?C_STARTUP)


START     STOP      LENGTH    ALIGN  RELOC    MEMORY CLASS   SEGMENT NAME
=========================================================================

* * * * * * * * * * *   D A T A   M E M O R Y   * * * * * * * * * * * * *
000000H   000007H   000008H   ---    AT..     DATA           "REG BANK 0"
000008H   00000EH   000007H   BYTE   UNIT     DATA           ?DT?HAL_W2_WAIT_DATA_READY?HAL_W2_ISR
00000FH   000015H   000007H   BYTE   UNIT     DATA           ?DT?_I2C_MPU_READBIT?HAL_W2_ISR
000016H   00001BH   000006H   BYTE   UNIT     DATA           ?DT?_HAL_W2_WRITE?HAL_W2_ISR
00001CH   00001FH   000004H   BYTE   UNIT     DATA           ?DT?MAIN
000020H   000020H   000001H   BYTE   BITADDR  DATA           ?BA?MAIN
000021H.0 000021H.0 000000H.1 BIT    UNIT     BIT            ?BI?MAIN
000021H.1 000021H   000000H.7 ---    ---      **GAP**
000022H   00003CH   00001BH   BYTE   UNIT     DATA           _DATA_GROUP_
00003DH   000042H   000006H   BYTE   UNIT     DATA           ?DT?_HAL_W2_READ?HAL_W2_ISR
000043H   000047H   000005H   BYTE   UNIT     DATA           ?DT?_SEND_PACKET_TO_COMPUTER?MAIN
000048H   00004CH   000005H   BYTE   UNIT     DATA           ?DT?_SEND_PACKET_FROM_HOST_TO_COMPUTER?MAIN
00004DH   00004FH   000003H   BYTE   UNIT     DATA           ?DT?_PUTSTRING?MAIN
000050H   000051H   000002H   BYTE   UNIT     DATA           ?DT?HAL_W2_ISR
000052H   000052H   000001H   BYTE   UNIT     IDATA          ?STACK

* * * * * * * * * * *   C O D E   M E M O R Y   * * * * * * * * * * * * *
000000H   000002H   000003H   ---    OFFS..   CODE           ?CO??C_STARTUP?0
000003H   000005H   000003H   BYTE   OFFS..   CODE           ?MAIN?00003
000006H   000009H   000004H   BYTE   UNIT     CODE           ?PR?EXT0_IRQ?MAIN
00000AH   00000AH   000001H   ---    ---      **GAP**
00000BH   00000DH   000003H   BYTE   OFFS..   CODE           ?MAIN?0000B
00000EH   000049H   00003CH   BYTE   UNIT     CODE           ?PR?_INIT_MEMPOOL?INIT_MEM
00004AH   00004AH   000001H   ---    ---      **GAP**
00004BH   00004DH   000003H   BYTE   OFFS..   CODE           ?MAIN?0004B
00004EH   000052H   000005H   ---    ---      **GAP**
000053H   000055H   000003H   BYTE   OFFS..   CODE           ?MAIN?00053
000056H   000779H   000724H   BYTE   UNIT     CODE           ?PR?DMPINITIALIZE?MAIN
00077AH   000B58H   0003DFH   BYTE   UNIT     CODE           ?C?LIB_CODE
000B59H   000D80H   000228H   BYTE   UNIT     CODE           ?PR?MAIN
000D81H   000F24H   0001A4H   BYTE   UNIT     CODE           ?PR?_WRITEMEMORYBLOCK?MAIN
000F25H   0010B3H   00018FH   BYTE   UNIT     CODE           ?PR?_WRITEDMPCONFIGURATIONSET?MAIN
0010B4H   0011B7H   000104H   BYTE   UNIT     CODE           ?PR?_FREE?FREE
0011B8H   0012B5H   0000FEH   BYTE   UNIT     CODE           ?PR?_DMPGETPACKET16BITS?MAIN
0012B6H   00139CH   0000E7H   BYTE   UNIT     CODE           ?PR?CONFIGURA_DMP?MAIN
00139DH   00146AH   0000CEH   BYTE   UNIT     CODE           ?PR?SETUP?MAIN
00146BH   00152CH   0000C2H   BYTE   UNIT     CODE           ?PR?MAIN?MAIN
00152DH   0015E7H   0000BBH   BYTE   UNIT     CODE           ?PR?_READMEMORYBLOCK?MAIN
0015E8H   001685H   00009EH   BYTE   UNIT     CODE           ?PR?_GETMOTION6_PACKET?MAIN
001686H   001721H   00009CH   BYTE   UNIT     CODE           ?PR?LER_DMP?MAIN
001722H   0017BDH   00009CH   BYTE   UNIT     CODE           ?PR?_MALLOC?MALLOC
0017BEH   001849H   00008CH   BYTE   UNIT     CODE           ?C_C51STARTUP
00184AH   0018CEH   000085H   BYTE   UNIT     CODE           ?PR?RF_IRQ?MAIN
0018CFH   001946H   000078H   BYTE   UNIT     CODE           ?PR?_REALLOC?REALLOC
001947H   0019B9H   000073H   BYTE   UNIT     CODE           ?PR?HAL_W2_SOFT_RESET?HAL_W2_ISR
0019BAH   001A2BH   000072H   BYTE   UNIT     CODE           ?PR?_DMPGETQUATERNION_INT16?MAIN
001A2CH   001A8EH   000063H   BYTE   UNIT     CODE           ?PR?_I2C_MPU_WRITEBITS?HAL_W2_ISR
001A8FH   001AEBH   00005DH   BYTE   UNIT     CODE           ?PR?_I2C_MPU_READBYTES?HAL_W2_ISR
001AECH   001B43H   000058H   BYTE   UNIT     CODE           ?PR?_I2C_MPU_READBITS?HAL_W2_ISR
001B44H   001B99H   000056H   BYTE   UNIT     CODE           ?PR?_I2C_MPU_WRITEWORDS?HAL_W2_ISR
001B9AH   001BECH   000053H   BYTE   UNIT     CODE           ?PR?_SEND_PACKET_TO_HOST?MAIN
001BEDH   001C3AH   00004EH   BYTE   UNIT     CODE           ?PR?_I2C_MPU_WRITEBIT?HAL_W2_ISR
001C3BH   001C7FH   000045H   BYTE   UNIT     CODE           ?PR?RF_INIT?MAIN
001C80H   001CC1H   000042H   BYTE   UNIT     CODE           ?PR?_HAL_W2_READ?HAL_W2_ISR
001CC2H   001CFCH   00003BH   BYTE   UNIT     CODE           ?PR?I2C_IRQ?MAIN
LX51 LINKER/LOCATER V4.66.62.0                                                        11/17/2016  16:14:32  PAGE 3


001CFDH   001D36H   00003AH   BYTE   UNIT     CODE           ?PR?_I2C_MPU_WRITEBYTES?HAL_W2_ISR
001D37H   001D6EH   000038H   BYTE   UNIT     CODE           ?PR?_HAL_W2_WRITE?HAL_W2_ISR
001D6FH   001DA3H   000035H   BYTE   UNIT     CODE           ?PR?_SEND_PACKET_TO_COMPUTER?MAIN
001DA4H   001DD8H   000035H   BYTE   UNIT     CODE           ?PR?_SEND_PACKET_FROM_HOST_TO_COMPUTER?MAIN
001DD9H   001E04H   00002CH   BYTE   UNIT     CODE           ?PR?_TX_MODE_NOACK?MAIN
001E05H   001E30H   00002CH   BYTE   UNIT     CODE           ?PR?_GETFIFOBYTES?MAIN
001E31H   001E5BH   00002BH   BYTE   UNIT     CODE           ?PR?_SPI_READ_BUF?MAIN
001E5CH   001E82H   000027H   BYTE   UNIT     CODE           ?PR?HAL_W2_WAIT_DATA_READY?HAL_W2_ISR
001E83H   001EA6H   000024H   BYTE   UNIT     CODE           ?PR?_I2C_MPU_READBIT?HAL_W2_ISR
001EA7H   001EC7H   000021H   BYTE   UNIT     CODE           ?PR?_HAL_W2_CONFIGURE_MASTER?HAL_W2_ISR
001EC8H   001EE7H   000020H   BYTE   UNIT     CODE           ?PR?_WRITEPROGMEMORYBLOCK?MAIN
001EE8H   001F06H   00001FH   BYTE   UNIT     CODE           ?PR?_SPI_WRITE_BUF?MAIN
001F07H   001F22H   00001CH   BYTE   UNIT     CODE           ?PR?_PUTSTRING?MAIN
001F23H   001F3EH   00001CH   BYTE   UNIT     CODE           ?PR?LUZES_INICIAIS?MAIN
001F3FH   001F5AH   00001CH   BYTE   UNIT     CODE           ?C_INITSEG
001F5BH   001F75H   00001BH   BYTE   UNIT     CODE           ?PR?_SETMEMORYBANK?MAIN
001F76H   001F8FH   00001AH   BYTE   UNIT     CODE           ?PR?UART_INIT?MAIN
001F90H   001FA9H   00001AH   BYTE   UNIT     CODE           ?PR?_SETSLAVEADDRESS?MAIN
001FAAH   001FC3H   00001AH   BYTE   UNIT     CODE           ?PR?_DELAY_US?HAL_DELAY
001FC4H   001FD9H   000016H   BYTE   UNIT     CODE           ?PR?MPU_TESTCONNECTION?MAIN
001FDAH   001FEDH   000014H   BYTE   UNIT     CODE           ?PR?MPU_INITIALIZE?MAIN
001FEEH   002001H   000014H   BYTE   UNIT     CODE           ?PR?_DELAY_MS?HAL_DELAY
002002H   002014H   000013H   BYTE   UNIT     CODE           ?PR?_SPI_RW_REG?MAIN
002015H   002027H   000013H   BYTE   UNIT     CODE           ?PR?GETZEROMOTIONDETECTIONDURATION?MAIN
002028H   00203AH   000013H   BYTE   UNIT     CODE           ?PR?_I2C_MPU_WRITEWORD?HAL_W2_ISR
00203BH   00204CH   000012H   BYTE   UNIT     CODE           ?PR?GETFIFOENABLED?MAIN
00204DH   00205EH   000012H   BYTE   UNIT     CODE           ?PR?INICIARIO?MAIN
00205FH   002070H   000012H   BYTE   UNIT     CODE           ?PR?_HAL_W2_INIT_TRANSFER?HAL_W2_ISR
002071H   002082H   000012H   BYTE   UNIT     CODE           ?PR?_I2C_MPU_READBYTE?HAL_W2_ISR
002083H   002093H   000011H   BYTE   UNIT     CODE           ?PR?_UART_PUTCHAR?MAIN
002094H   0020A4H   000011H   BYTE   UNIT     CODE           ?PR?RX_MODE?MAIN
0020A5H   0020B5H   000011H   BYTE   UNIT     CODE           ?PR?GETOTPBANKVALID?MAIN
0020B6H   0020C6H   000011H   BYTE   UNIT     CODE           ?PR?_I2C_MPU_WRITEBYTE?HAL_W2_ISR
0020C7H   0020D6H   000010H   BYTE   UNIT     CODE           ?PR?TMR0_IRQ?MAIN
0020D7H   0020E6H   000010H   BYTE   UNIT     CODE           ?PR?GETXGYROOFFSETTC?MAIN
0020E7H   0020F6H   000010H   BYTE   UNIT     CODE           ?PR?GETYGYROOFFSETTC?MAIN
0020F7H   002106H   000010H   BYTE   UNIT     CODE           ?PR?GETZGYROOFFSETTC?MAIN
002107H   002114H   00000EH   BYTE   UNIT     CODE           ?PR?_SETCLOCKSOURCE?MAIN
002115H   002122H   00000EH   BYTE   UNIT     CODE           ?PR?_SETFULLSCALEGYRORANGE?MAIN
002123H   002130H   00000EH   BYTE   UNIT     CODE           ?PR?_SETFULLSCALEACCELRANGE?MAIN
002131H   00213EH   00000EH   BYTE   UNIT     CODE           ?PR?GETXACCELOFFSET?MAIN
00213FH   00214CH   00000EH   BYTE   UNIT     CODE           ?PR?GETYACCELOFFSET?MAIN
00214DH   00215AH   00000EH   BYTE   UNIT     CODE           ?PR?GETZACCELOFFSET?MAIN
00215BH   002168H   00000EH   BYTE   UNIT     CODE           ?PR?GETXGYROOFFSET?MAIN
002169H   002176H   00000EH   BYTE   UNIT     CODE           ?PR?GETYGYROOFFSET?MAIN
002177H   002184H   00000EH   BYTE   UNIT     CODE           ?PR?GETZGYROOFFSET?MAIN
002185H   002192H   00000EH   BYTE   UNIT     CODE           ?PR?GETFIFOCOUNT?MAIN
002193H   0021A0H   00000EH   BYTE   UNIT     CODE           ?PR?GETINTSTATUS?MAIN
0021A1H   0021AEH   00000EH   BYTE   UNIT     CODE           ?PR?_SETEXTERNALFRAMESYNC?MAIN
0021AFH   0021BCH   00000EH   BYTE   UNIT     CODE           ?PR?_SETDLPFMODE?MAIN
0021BDH   0021CAH   00000EH   BYTE   UNIT     CODE           ?PR?GETDMPCONFIG1?MAIN
0021CBH   0021D8H   00000EH   BYTE   UNIT     CODE           ?PR?GETDMPCONFIG2?MAIN
0021D9H   0021E6H   00000EH   BYTE   UNIT     CODE           ?PR?GETMOTIONDETECTIONTHRESHOLD?MAIN
0021E7H   0021F4H   00000EH   BYTE   UNIT     CODE           ?PR?GETZEROMOTIONDETECTIONTHRESHOLD?MAIN
0021F5H   002202H   00000EH   BYTE   UNIT     CODE           ?PR?GETMOTIONDETECTIONDURATION?MAIN
002203H   002210H   00000EH   BYTE   UNIT     CODE           ?PR?_HAL_W2_SET_CLK_FREQ?HAL_W2_ISR
002211H   00221EH   00000EH   BYTE   UNIT     CODE           ?PR?HAL_W2_ISR
00221FH   00222BH   00000DH   BYTE   UNIT     CODE           ?PR?_SPI_READ?MAIN
00222CH   002237H   00000CH   BYTE   UNIT     CODE           ?PR?INICIARRF?MAIN
002238H   002243H   00000CH   BYTE   UNIT     CODE           ?PR?RESETFIFO?MAIN
002244H   00224FH   00000CH   BYTE   UNIT     CODE           ?PR?I2C_MPU_RESET?MAIN
002250H   00225BH   00000CH   BYTE   UNIT     CODE           ?PR?RESETI2CMASTER?MAIN
00225CH   002267H   00000CH   BYTE   UNIT     CODE           ?PR?RESETDMP?MAIN
002268H   002272H   00000BH   BYTE   UNIT     CODE           ?PR?MPU_8051_MALLOC_SETUP?MAIN
002273H   00227DH   00000BH   BYTE   UNIT     CODE           ?PR?_SETSLEEPENABLED?MAIN
LX51 LINKER/LOCATER V4.66.62.0                                                        11/17/2016  16:14:32  PAGE 4


00227EH   002288H   00000BH   BYTE   UNIT     CODE           ?PR?_SETYGYROOFFSET?MAIN
002289H   002293H   00000BH   BYTE   UNIT     CODE           ?PR?_SETZGYROOFFSET?MAIN
002294H   00229EH   00000BH   BYTE   UNIT     CODE           ?PR?_SETDMPENABLED?MAIN
00229FH   0022A9H   00000BH   BYTE   UNIT     CODE           ?PR?_SETI2CMASTERMODEENABLED?MAIN
0022AAH   0022B4H   00000BH   BYTE   UNIT     CODE           ?PR?_SETFIFOENABLED?MAIN
0022B5H   0022BFH   00000BH   BYTE   UNIT     CODE           ?PR?_HAL_W2_RESPOND_TO_GEN_ADR?HAL_W2_ISR
0022C0H   0022CAH   00000BH   BYTE   UNIT     CODE           ?PR?_HAL_W2_ALTER_CLOCK?HAL_W2_ISR
0022CBH   0022D5H   00000BH   BYTE   UNIT     CODE           ?PR?_HAL_W2_IRQ_STOP_COND_ENABLE?HAL_W2_ISR
0022D6H   0022E0H   00000BH   BYTE   UNIT     CODE           ?PR?_HAL_W2_IRQ_ADR_MATCH_ENABLE?HAL_W2_ISR
0022E1H   0022EBH   00000BH   BYTE   UNIT     CODE           ?PR?_HAL_W2_SET_OP_MODE?HAL_W2_ISR
0022ECH   0022F6H   00000BH   BYTE   UNIT     CODE           ?PR?_HAL_W2_ENABLE?HAL_W2_ISR
0022F7H   002301H   00000BH   BYTE   UNIT     CODE           ?PR?_HAL_W2_ALL_IRQ_ENABLE?HAL_W2_ISR
002302H   00230BH   00000AH   BYTE   UNIT     CODE           ?PR?_SPI_RW?MAIN
00230CH   002315H   00000AH   BYTE   UNIT     CODE           ?PR?START_T0?MAIN
002316H   00231FH   00000AH   BYTE   UNIT     CODE           ?PR?STOP_T0?MAIN
002320H   002329H   00000AH   BYTE   UNIT     CODE           ?PR?_WRITEPROGDMPCONFIGURATIONSET?MAIN
00232AH   002333H   00000AH   BYTE   UNIT     CODE           ?PR?_SETOTPBANKVALID?MAIN
002334H   00233DH   00000AH   BYTE   UNIT     CODE           ?PR?_SETXGYROOFFSETTC?MAIN
00233EH   002347H   00000AH   BYTE   UNIT     CODE           ?PR?_SETYGYROOFFSETTC?MAIN
002348H   002351H   00000AH   BYTE   UNIT     CODE           ?PR?_SETZGYROOFFSETTC?MAIN
002352H   00235BH   00000AH   BYTE   UNIT     CODE           ?PR?HAL_W2_WAIT_DATA_READY_ISR?HAL_W2_ISR
00235CH   002365H   00000AH   BYTE   UNIT     CODE           ?PR?I2C_IRQ_HANDLER?HAL_W2_ISR
002366H   00236EH   000009H   BYTE   UNIT     CODE           ?PR?DMPGETFIFOPACKETSIZE?MAIN
00236FH   002377H   000009H   BYTE   UNIT     CODE           ?PR?_SETMEMORYSTARTADDRESS?MAIN
002378H   002380H   000009H   BYTE   UNIT     CODE           ?PR?_SETINTENABLED?MAIN
002381H   002389H   000009H   BYTE   UNIT     CODE           ?PR?_SETRATE?MAIN
00238AH   002392H   000009H   BYTE   UNIT     CODE           ?PR?_SETDMPCONFIG1?MAIN
002393H   00239BH   000009H   BYTE   UNIT     CODE           ?PR?_SETDMPCONFIG2?MAIN
00239CH   0023A4H   000009H   BYTE   UNIT     CODE           ?PR?_SETMOTIONDETECTIONTHRESHOLD?MAIN
0023A5H   0023ADH   000009H   BYTE   UNIT     CODE           ?PR?_SETZEROMOTIONDETECTIONTHRESHOLD?MAIN
0023AEH   0023B6H   000009H   BYTE   UNIT     CODE           ?PR?_SETMOTIONDETECTIONDURATION?MAIN
0023B7H   0023BFH   000009H   BYTE   UNIT     CODE           ?PR?_SETZEROMOTIONDETECTIONDURATION?MAIN
0023C0H   0023C7H   000008H   BYTE   UNIT     CODE           ?PR?_SETXACCELOFFSET?MAIN
0023C8H   0023CFH   000008H   BYTE   UNIT     CODE           ?PR?_SETYACCELOFFSET?MAIN
0023D0H   0023D7H   000008H   BYTE   UNIT     CODE           ?PR?_SETZACCELOFFSET?MAIN
0023D8H   0023DFH   000008H   BYTE   UNIT     CODE           ?PR?_SETXGYROOFFSET?MAIN
0023E0H   0023E5H   000006H   BYTE   UNIT     CODE           ?PR?_HAL_W2_SET_SLAVE_ADDRESS?HAL_W2_ISR
0023E6H   002FD6H   000BF1H   BYTE   UNIT     CONST          ?CO?MAIN

* * * * * * * * * * *  X D A T A   M E M O R Y  * * * * * * * * * * * * *
000000H   0002B4H   0002B5H   BYTE   UNIT     XDATA          ?XD?MAIN
0002B5H   000371H   0000BDH   BYTE   UNIT     XDATA          _XDATA_GROUP_
000372H   000379H   000008H   BYTE   UNIT     XDATA          ?XD?INIT_MEM
00037AH   00037FH   000006H   BYTE   UNIT     XDATA          ?XD?_DMPGETQUATERNION_INT16?MAIN



OVERLAY MAP OF MODULE:   FProject (?C_STARTUP)


FUNCTION/MODULE                              DATA_GROUP   XDATA_GROUP
--> CALLED FUNCTION/MODULE                   START  STOP  START  STOP
=====================================================================
?C_C51STARTUP                                ----- -----  ----- -----
  +--> MAIN/MAIN
  +--> ?C_INITSEG

MAIN/MAIN                                    ----- -----  ----- -----
  +--> SETUP/MAIN
  +--> ?CO?MAIN
  +--> _GETMOTION6_PACKET/MAIN
  +--> _SEND_PACKET_TO_HOST/MAIN
  +--> LER_DMP/MAIN
  +--> _DELAY_MS/HAL_DELAY
  +--> START_T0/MAIN
LX51 LINKER/LOCATER V4.66.62.0                                                        11/17/2016  16:14:32  PAGE 5


  +--> STOP_T0/MAIN

SETUP/MAIN                                   ----- -----  ----- -----
  +--> INICIARIO/MAIN
  +--> INICIARRF/MAIN
  +--> _HAL_W2_CONFIGURE_MASTER/HAL_W2_ISR
  +--> LUZES_INICIAIS/MAIN
  +--> ?CO?MAIN
  +--> MPU_8051_MALLOC_SETUP/MAIN
  +--> MPU_INITIALIZE/MAIN
  +--> MPU_TESTCONNECTION/MAIN
  +--> _DELAY_MS/HAL_DELAY
  +--> _SETXACCELOFFSET/MAIN
  +--> _SETYACCELOFFSET/MAIN
  +--> _SETZACCELOFFSET/MAIN
  +--> _SETXGYROOFFSET/MAIN
  +--> _SETYGYROOFFSET/MAIN
  +--> _SETZGYROOFFSET/MAIN
  +--> CONFIGURA_DMP/MAIN
  +--> _SEND_PACKET_TO_HOST/MAIN

INICIARIO/MAIN                               ----- -----  ----- -----

INICIARRF/MAIN                               ----- -----  ----- -----
  +--> RF_INIT/MAIN
  +--> RX_MODE/MAIN

RF_INIT/MAIN                                 ----- -----  ----- -----
  +--> MAIN
  +--> _SPI_WRITE_BUF/MAIN
  +--> _SPI_RW_REG/MAIN

MAIN                                         ----- -----  ----- -----
  +--> ?CO?MAIN
  +--> _UART_PUTCHAR/MAIN
  +--> _SPI_RW/MAIN

?CO?MAIN                                     ----- -----  ----- -----

_UART_PUTCHAR/MAIN                           ----- -----  ----- -----

_SPI_RW/MAIN                                 ----- -----  ----- -----

_SPI_WRITE_BUF/MAIN                          0029H 002DH  ----- -----
  +--> MAIN
  +--> _SPI_RW/MAIN

_SPI_RW_REG/MAIN                             ----- -----  ----- -----
  +--> _SPI_RW/MAIN

RX_MODE/MAIN                                 ----- -----  ----- -----
  +--> _SPI_RW_REG/MAIN

_HAL_W2_CONFIGURE_MASTER/HAL_W2_ISR          ----- -----  ----- -----
  +--> _HAL_W2_ENABLE/HAL_W2_ISR
  +--> _HAL_W2_SET_CLK_FREQ/HAL_W2_ISR
  +--> _HAL_W2_SET_OP_MODE/HAL_W2_ISR
  +--> _HAL_W2_ALL_IRQ_ENABLE/HAL_W2_ISR

_HAL_W2_ENABLE/HAL_W2_ISR                    ----- -----  ----- -----

_HAL_W2_SET_CLK_FREQ/HAL_W2_ISR              ----- -----  ----- -----

_HAL_W2_SET_OP_MODE/HAL_W2_ISR               ----- -----  ----- -----

LX51 LINKER/LOCATER V4.66.62.0                                                        11/17/2016  16:14:32  PAGE 6


_HAL_W2_ALL_IRQ_ENABLE/HAL_W2_ISR            ----- -----  ----- -----

LUZES_INICIAIS/MAIN                          ----- -----  ----- -----
  +--> _DELAY_MS/HAL_DELAY

_DELAY_MS/HAL_DELAY                          ----- -----  ----- -----
  +--> _DELAY_US/HAL_DELAY

_DELAY_US/HAL_DELAY                          ----- -----  ----- -----

MPU_8051_MALLOC_SETUP/MAIN                   ----- -----  ----- -----
  +--> _INIT_MEMPOOL/INIT_MEM

_INIT_MEMPOOL/INIT_MEM                       ----- -----  ----- -----

MPU_INITIALIZE/MAIN                          ----- -----  ----- -----
  +--> _SETCLOCKSOURCE/MAIN
  +--> _SETFULLSCALEGYRORANGE/MAIN
  +--> _SETFULLSCALEACCELRANGE/MAIN
  +--> _SETSLEEPENABLED/MAIN

_SETCLOCKSOURCE/MAIN                         ----- -----  ----- -----
  +--> _I2C_MPU_WRITEBITS/HAL_W2_ISR

_I2C_MPU_WRITEBITS/HAL_W2_ISR                0022H 0028H  ----- -----
  +--> _I2C_MPU_READBYTE/HAL_W2_ISR
  +--> _I2C_MPU_WRITEBYTE/HAL_W2_ISR

_I2C_MPU_READBYTE/HAL_W2_ISR                 002BH 002DH  ----- -----
  +--> _I2C_MPU_READBYTES/HAL_W2_ISR

_I2C_MPU_READBYTES/HAL_W2_ISR                002EH 0035H  ----- -----
  +--> _HAL_W2_INIT_TRANSFER/HAL_W2_ISR
  +--> HAL_W2_WAIT_DATA_READY_ISR/HAL_W2_ISR
  +--> HAL_W2_SOFT_RESET/HAL_W2_ISR
  +--> HAL_W2_ISR

_HAL_W2_INIT_TRANSFER/HAL_W2_ISR             ----- -----  ----- -----
  +--> HAL_W2_ISR

HAL_W2_ISR                                   ----- -----  ----- -----
  +--> HAL_W2_WAIT_DATA_READY_ISR/HAL_W2_ISR

HAL_W2_WAIT_DATA_READY_ISR/HAL_W2_ISR        ----- -----  ----- -----

HAL_W2_SOFT_RESET/HAL_W2_ISR                 0036H 0037H  ----- -----
  +--> _DELAY_US/HAL_DELAY

_I2C_MPU_WRITEBYTE/HAL_W2_ISR                0029H 0029H  ----- -----
  +--> _I2C_MPU_WRITEBYTES/HAL_W2_ISR

_I2C_MPU_WRITEBYTES/HAL_W2_ISR               002AH 002FH  ----- -----
  +--> _HAL_W2_INIT_TRANSFER/HAL_W2_ISR
  +--> HAL_W2_WAIT_DATA_READY_ISR/HAL_W2_ISR
  +--> HAL_W2_ISR

_SETFULLSCALEGYRORANGE/MAIN                  ----- -----  ----- -----
  +--> _I2C_MPU_WRITEBITS/HAL_W2_ISR

_SETFULLSCALEACCELRANGE/MAIN                 ----- -----  ----- -----
  +--> _I2C_MPU_WRITEBITS/HAL_W2_ISR

_SETSLEEPENABLED/MAIN                        ----- -----  ----- -----
  +--> _I2C_MPU_WRITEBIT/HAL_W2_ISR

LX51 LINKER/LOCATER V4.66.62.0                                                        11/17/2016  16:14:32  PAGE 7


_I2C_MPU_WRITEBIT/HAL_W2_ISR                 0022H 0026H  ----- -----
  +--> _I2C_MPU_READBYTE/HAL_W2_ISR
  +--> _I2C_MPU_WRITEBYTE/HAL_W2_ISR

MPU_TESTCONNECTION/MAIN                      ----- -----  ----- -----
  +--> MAIN
  +--> _I2C_MPU_READBITS/HAL_W2_ISR

_I2C_MPU_READBITS/HAL_W2_ISR                 0022H 002AH  ----- -----
  +--> _I2C_MPU_READBYTE/HAL_W2_ISR

_SETXACCELOFFSET/MAIN                        ----- -----  ----- -----
  +--> MAIN
  +--> _I2C_MPU_WRITEWORD/HAL_W2_ISR

_I2C_MPU_WRITEWORD/HAL_W2_ISR                0022H 0023H  ----- -----
  +--> _I2C_MPU_WRITEWORDS/HAL_W2_ISR

_I2C_MPU_WRITEWORDS/HAL_W2_ISR               0024H 0029H  ----- -----
  +--> _HAL_W2_INIT_TRANSFER/HAL_W2_ISR
  +--> HAL_W2_WAIT_DATA_READY_ISR/HAL_W2_ISR
  +--> HAL_W2_ISR

_SETYACCELOFFSET/MAIN                        ----- -----  ----- -----
  +--> MAIN
  +--> _I2C_MPU_WRITEWORD/HAL_W2_ISR

_SETZACCELOFFSET/MAIN                        ----- -----  ----- -----
  +--> MAIN
  +--> _I2C_MPU_WRITEWORD/HAL_W2_ISR

_SETXGYROOFFSET/MAIN                         ----- -----  ----- -----
  +--> MAIN
  +--> _I2C_MPU_WRITEWORD/HAL_W2_ISR

_SETYGYROOFFSET/MAIN                         ----- -----  ----- -----
  +--> _I2C_MPU_WRITEWORD/HAL_W2_ISR

_SETZGYROOFFSET/MAIN                         ----- -----  ----- -----
  +--> _I2C_MPU_WRITEWORD/HAL_W2_ISR

CONFIGURA_DMP/MAIN                           ----- -----  ----- -----
  +--> _DELAY_MS/HAL_DELAY
  +--> ?CO?MAIN
  +--> DMPINITIALIZE/MAIN
  +--> _SETXACCELOFFSET/MAIN
  +--> _SETYACCELOFFSET/MAIN
  +--> _SETZACCELOFFSET/MAIN
  +--> _SETXGYROOFFSET/MAIN
  +--> _SETYGYROOFFSET/MAIN
  +--> _SETZGYROOFFSET/MAIN
  +--> _SETDMPENABLED/MAIN
  +--> GETINTSTATUS/MAIN
  +--> DMPGETFIFOPACKETSIZE/MAIN
  +--> _SEND_PACKET_TO_HOST/MAIN

DMPINITIALIZE/MAIN                           ----- -----  02B5H 034FH
  +--> ?CO?MAIN
  +--> I2C_MPU_RESET/MAIN
  +--> _DELAY_MS/HAL_DELAY
  +--> _SETSLEEPENABLED/MAIN
  +--> _SETMEMORYBANK/MAIN
  +--> _SETMEMORYSTARTADDRESS/MAIN
  +--> GETXGYROOFFSETTC/MAIN
  +--> GETYGYROOFFSETTC/MAIN
LX51 LINKER/LOCATER V4.66.62.0                                                        11/17/2016  16:14:32  PAGE 8


  +--> GETZGYROOFFSETTC/MAIN
  +--> _SETSLAVEADDRESS/MAIN
  +--> _SETI2CMASTERMODEENABLED/MAIN
  +--> RESETI2CMASTER/MAIN
  +--> _WRITEPROGMEMORYBLOCK/MAIN
  +--> _WRITEPROGDMPCONFIGURATIONSET/MAIN
  +--> _SETCLOCKSOURCE/MAIN
  +--> _SETINTENABLED/MAIN
  +--> _SETRATE/MAIN
  +--> MAIN
  +--> _SETDLPFMODE/MAIN
  +--> _SETFULLSCALEGYRORANGE/MAIN
  +--> _SETDMPCONFIG1/MAIN
  +--> _SETDMPCONFIG2/MAIN
  +--> _SETOTPBANKVALID/MAIN
  +--> _I2C_MPU_READBYTE/HAL_W2_ISR
  +--> _I2C_MPU_WRITEBYTE/HAL_W2_ISR
  +--> RESETFIFO/MAIN
  +--> _SETMOTIONDETECTIONTHRESHOLD/MAIN
  +--> _SETZEROMOTIONDETECTIONTHRESHOLD/MAIN
  +--> _SETMOTIONDETECTIONDURATION/MAIN
  +--> _SETZEROMOTIONDETECTIONDURATION/MAIN
  +--> _SETFIFOENABLED/MAIN
  +--> _SETDMPENABLED/MAIN
  +--> RESETDMP/MAIN
  +--> _SEND_PACKET_TO_HOST/MAIN
  +--> _READMEMORYBLOCK/MAIN
  +--> GETFIFOCOUNT/MAIN
  +--> _GETFIFOBYTES/MAIN
  +--> GETINTSTATUS/MAIN
  +--> _WRITEMEMORYBLOCK/MAIN

I2C_MPU_RESET/MAIN                           ----- -----  ----- -----
  +--> _I2C_MPU_WRITEBIT/HAL_W2_ISR

_SETMEMORYBANK/MAIN                          ----- -----  ----- -----
  +--> _I2C_MPU_WRITEBYTE/HAL_W2_ISR

_SETMEMORYSTARTADDRESS/MAIN                  ----- -----  ----- -----
  +--> _I2C_MPU_WRITEBYTE/HAL_W2_ISR

GETXGYROOFFSETTC/MAIN                        ----- -----  ----- -----
  +--> MAIN
  +--> _I2C_MPU_READBITS/HAL_W2_ISR

GETYGYROOFFSETTC/MAIN                        ----- -----  ----- -----
  +--> MAIN
  +--> _I2C_MPU_READBITS/HAL_W2_ISR

GETZGYROOFFSETTC/MAIN                        ----- -----  ----- -----
  +--> MAIN
  +--> _I2C_MPU_READBITS/HAL_W2_ISR

_SETSLAVEADDRESS/MAIN                        ----- -----  ----- -----
  +--> _I2C_MPU_WRITEBYTE/HAL_W2_ISR

_SETI2CMASTERMODEENABLED/MAIN                ----- -----  ----- -----
  +--> _I2C_MPU_WRITEBIT/HAL_W2_ISR

RESETI2CMASTER/MAIN                          ----- -----  ----- -----
  +--> _I2C_MPU_WRITEBIT/HAL_W2_ISR

_WRITEPROGMEMORYBLOCK/MAIN                   ----- -----  0350H 0357H
  +--> _WRITEMEMORYBLOCK/MAIN

LX51 LINKER/LOCATER V4.66.62.0                                                        11/17/2016  16:14:32  PAGE 9


_WRITEMEMORYBLOCK/MAIN                       ----- -----  0360H 0371H
  +--> MAIN
  +--> _SETMEMORYBANK/MAIN
  +--> _SETMEMORYSTARTADDRESS/MAIN
  +--> _MALLOC/MALLOC
  +--> _I2C_MPU_WRITEBYTES/HAL_W2_ISR
  +--> _I2C_MPU_READBYTES/HAL_W2_ISR
  +--> _FREE/FREE

_MALLOC/MALLOC                               002AH 002DH  ----- -----

_FREE/FREE                                   002AH 002DH  ----- -----

_WRITEPROGDMPCONFIGURATIONSET/MAIN           ----- -----  ----- -----
  +--> _WRITEDMPCONFIGURATIONSET/MAIN

_WRITEDMPCONFIGURATIONSET/MAIN               ----- -----  0350H 035FH
  +--> MAIN
  +--> _MALLOC/MALLOC
  +--> _REALLOC/REALLOC
  +--> _WRITEMEMORYBLOCK/MAIN
  +--> _I2C_MPU_WRITEBYTE/HAL_W2_ISR
  +--> _FREE/FREE

_REALLOC/REALLOC                             0022H 0029H  ----- -----
  +--> _MALLOC/MALLOC
  +--> _FREE/FREE

_SETINTENABLED/MAIN                          ----- -----  ----- -----
  +--> _I2C_MPU_WRITEBYTE/HAL_W2_ISR

_SETRATE/MAIN                                ----- -----  ----- -----
  +--> _I2C_MPU_WRITEBYTE/HAL_W2_ISR

_SETDLPFMODE/MAIN                            ----- -----  ----- -----
  +--> _I2C_MPU_WRITEBITS/HAL_W2_ISR

_SETDMPCONFIG1/MAIN                          ----- -----  ----- -----
  +--> _I2C_MPU_WRITEBYTE/HAL_W2_ISR

_SETDMPCONFIG2/MAIN                          ----- -----  ----- -----
  +--> _I2C_MPU_WRITEBYTE/HAL_W2_ISR

_SETOTPBANKVALID/MAIN                        ----- -----  ----- -----
  +--> _I2C_MPU_WRITEBIT/HAL_W2_ISR

RESETFIFO/MAIN                               ----- -----  ----- -----
  +--> _I2C_MPU_WRITEBIT/HAL_W2_ISR

_SETMOTIONDETECTIONTHRESHOLD/MAIN            ----- -----  ----- -----
  +--> _I2C_MPU_WRITEBYTE/HAL_W2_ISR

_SETZEROMOTIONDETECTIONTHRESHOLD/MAIN        ----- -----  ----- -----
  +--> _I2C_MPU_WRITEBYTE/HAL_W2_ISR

_SETMOTIONDETECTIONDURATION/MAIN             ----- -----  ----- -----
  +--> _I2C_MPU_WRITEBYTE/HAL_W2_ISR

_SETZEROMOTIONDETECTIONDURATION/MAIN         ----- -----  ----- -----
  +--> _I2C_MPU_WRITEBYTE/HAL_W2_ISR

_SETFIFOENABLED/MAIN                         ----- -----  ----- -----
  +--> _I2C_MPU_WRITEBIT/HAL_W2_ISR

_SETDMPENABLED/MAIN                          ----- -----  ----- -----
LX51 LINKER/LOCATER V4.66.62.0                                                        11/17/2016  16:14:32  PAGE 10


  +--> _I2C_MPU_WRITEBIT/HAL_W2_ISR

RESETDMP/MAIN                                ----- -----  ----- -----
  +--> _I2C_MPU_WRITEBIT/HAL_W2_ISR

_SEND_PACKET_TO_HOST/MAIN                    0022H 0026H  ----- -----
  +--> MAIN
  +--> _TX_MODE_NOACK/MAIN
  +--> RX_MODE/MAIN

_TX_MODE_NOACK/MAIN                          0027H 0028H  ----- -----
  +--> _SPI_RW_REG/MAIN
  +--> MAIN
  +--> _SPI_WRITE_BUF/MAIN

_READMEMORYBLOCK/MAIN                        ----- -----  0350H 0359H
  +--> MAIN
  +--> _I2C_MPU_READBYTES/HAL_W2_ISR
  +--> _SETMEMORYBANK/MAIN
  +--> _SETMEMORYSTARTADDRESS/MAIN

GETFIFOCOUNT/MAIN                            ----- -----  ----- -----
  +--> MAIN
  +--> _I2C_MPU_READBYTES/HAL_W2_ISR

_GETFIFOBYTES/MAIN                           ----- -----  0350H 0352H
  +--> MAIN
  +--> _I2C_MPU_READBYTES/HAL_W2_ISR

GETINTSTATUS/MAIN                            ----- -----  ----- -----
  +--> MAIN
  +--> _I2C_MPU_READBYTE/HAL_W2_ISR

DMPGETFIFOPACKETSIZE/MAIN                    ----- -----  ----- -----

_GETMOTION6_PACKET/MAIN                      ----- -----  02B5H 02B6H
  +--> _I2C_MPU_READBYTES/HAL_W2_ISR
  +--> MAIN

LER_DMP/MAIN                                 ----- -----  ----- -----
  +--> MAIN
  +--> GETINTSTATUS/MAIN
  +--> RESETFIFO/MAIN
  +--> GETFIFOCOUNT/MAIN
  +--> _GETFIFOBYTES/MAIN
  +--> _DMPGETPACKET16BITS/MAIN
  +--> _SEND_PACKET_TO_HOST/MAIN

_DMPGETPACKET16BITS/MAIN                     ----- -----  02B5H 02BAH
  +--> MAIN

START_T0/MAIN                                ----- -----  ----- -----
  +--> MAIN

STOP_T0/MAIN                                 ----- -----  ----- -----
  +--> MAIN

?C_INITSEG                                   ----- -----  ----- -----

*** NEW ROOT *******************************

RF_IRQ/MAIN                                  ----- -----  ----- -----
  +--> _SPI_READ/MAIN
  +--> _SPI_READ_BUF/MAIN
  +--> _SPI_RW_REG/MAIN
LX51 LINKER/LOCATER V4.66.62.0                                                        11/17/2016  16:14:32  PAGE 11



_SPI_READ/MAIN                               ----- -----  ----- -----
  +--> _SPI_RW/MAIN

_SPI_READ_BUF/MAIN                           0038H 003CH  ----- -----
  +--> MAIN
  +--> _SPI_RW/MAIN

*** NEW ROOT *******************************

TMR0_IRQ/MAIN                                ----- -----  ----- -----
  +--> MAIN

*** NEW ROOT *******************************

EXT0_IRQ/MAIN                                ----- -----  ----- -----

*** NEW ROOT *******************************

I2C_IRQ/MAIN                                 ----- -----  ----- -----
  +--> I2C_IRQ_HANDLER/HAL_W2_ISR

I2C_IRQ_HANDLER/HAL_W2_ISR                   ----- -----  ----- -----



PUBLIC SYMBOLS OF MODULE:  FProject (?C_STARTUP)


      VALUE       CLASS    TYPE      PUBLIC SYMBOL NAME
      =================================================
      020002B5H   XDATA    BYTE      ?_dmpGetPacket16bits?BYTE
      0200037AH   XDATA    BYTE      ?_dmpGetQuaternion_int16?BYTE
      0000003DH   DATA     BYTE      ?_hal_w2_read?BYTE
      00000016H   DATA     BYTE      ?_hal_w2_write?BYTE
      0000000FH   DATA     BYTE      ?_i2c_mpu_readBit?BYTE
      00000022H   DATA     BYTE      ?_i2c_mpu_readBits?BYTE
      0000002EH   DATA     BYTE      ?_i2c_mpu_readBytes?BYTE
      00000022H   DATA     BYTE      ?_i2c_mpu_writeBit?BYTE
      00000022H   DATA     BYTE      ?_i2c_mpu_writeBits?BYTE
      0000002AH   DATA     BYTE      ?_i2c_mpu_writeBytes?BYTE
      00000024H   DATA     BYTE      ?_i2c_mpu_writeWords?BYTE
      02000350H   XDATA    BYTE      ?_readMemoryBlock?BYTE
      00000048H   DATA     BYTE      ?_send_packet_from_host_to_computer?BYTE
      00000043H   DATA     BYTE      ?_send_packet_to_computer?BYTE
      00000022H   DATA     BYTE      ?_send_packet_to_host?BYTE
      00000038H   DATA     BYTE      ?_SPI_Read_Buf?BYTE
      00000029H   DATA     BYTE      ?_SPI_Write_Buf?BYTE
      02000350H   XDATA    BYTE      ?_writeDMPConfigurationSet?BYTE
      02000360H   XDATA    BYTE      ?_writeMemoryBlock?BYTE
      02000350H   XDATA    BYTE      ?_writeProgMemoryBlock?BYTE
      01000793H   CODE     ---       ?C?CLDOPTR
      0100077AH   CODE     ---       ?C?CLDPTR
      00000000H   NUMBER   ---       ?C?CODESEG
      01000B33H   CODE     ---       ?C?COPY
      010007D2H   CODE     ---       ?C?CSTOPTR
      010007C0H   CODE     ---       ?C?CSTPTR
      010007F4H   CODE     ---       ?C?IILDX
      0100080AH   CODE     ---       ?C?ILDIX
      01000820H   CODE     ---       ?C?ILDPTR
      0100086AH   CODE     ---       ?C?ISTOPTR
      0100084BH   CODE     ---       ?C?ISTPTR
      01000A3FH   CODE     ---       ?C?MEMCMP
      01000897H   CODE     ---       ?C?PLDIIDATA
      010008A7H   CODE     ---       ?C?PLDXDATA
LX51 LINKER/LOCATER V4.66.62.0                                                        11/17/2016  16:14:32  PAGE 12


      010008B0H   CODE     ---       ?C?PSTXDATA
      00000000H   NUMBER   ---       ?C?XDATASEG
      01001805H   CODE     ---       ?C_START
      01000000H   CODE     ---       ?C_STARTUP
      02000372H   XDATA    ---       __mem_avail__
      01001FEEH   CODE     ---       _delay_ms
      01001FB5H   CODE     ---       _delay_us
      010011B8H   CODE     ---       _dmpGetPacket16bits
      010019BAH   CODE     ---       _dmpGetQuaternion_int16
      010010B4H   CODE     ---       _free
      01001E05H   CODE     ---       _getFIFOBytes
      010015E8H   CODE     ---       _getMotion6_packet
      010022F7H   CODE     ---       _hal_w2_all_irq_enable
      010022C0H   CODE     ---       _hal_w2_alter_clock
      01001EA7H   CODE     ---       _hal_w2_configure_master
      010022ECH   CODE     ---       _hal_w2_enable
      0100205FH   CODE     ---       _hal_w2_init_transfer
      010022D6H   CODE     ---       _hal_w2_irq_adr_match_enable
      010022CBH   CODE     ---       _hal_w2_irq_stop_cond_enable
      01001C80H   CODE     ---       _hal_w2_read
      010022B5H   CODE     ---       _hal_w2_respond_to_gen_adr
      01002203H   CODE     ---       _hal_w2_set_clk_freq
      010022E1H   CODE     ---       _hal_w2_set_op_mode
      010023E0H   CODE     ---       _hal_w2_set_slave_address
      01001D37H   CODE     ---       _hal_w2_write
      01001E83H   CODE     ---       _i2c_mpu_readBit
      01001AECH   CODE     ---       _i2c_mpu_readBits
      01002071H   CODE     ---       _i2c_mpu_readByte
      01001A8FH   CODE     ---       _i2c_mpu_readBytes
      01001BEDH   CODE     ---       _i2c_mpu_writeBit
      01001A2CH   CODE     ---       _i2c_mpu_writeBits
      010020B6H   CODE     ---       _i2c_mpu_writeByte
      01001CFDH   CODE     ---       _i2c_mpu_writeBytes
      01002028H   CODE     ---       _i2c_mpu_writeWord
      01001B44H   CODE     ---       _i2c_mpu_writeWords
      0100000EH   CODE     ---       _init_mempool
      01001722H   CODE     ---       _malloc
      01001F07H   CODE     ---       _putstring
      0100152DH   CODE     ---       _readMemoryBlock
      010018CFH   CODE     ---       _realloc
      01001DA4H   CODE     ---       _send_packet_from_host_to_computer
      01001D6FH   CODE     ---       _send_packet_to_computer
      01001B9AH   CODE     ---       _send_packet_to_host
      01002107H   CODE     ---       _setClockSource
      010021AFH   CODE     ---       _setDLPFMode
      0100238AH   CODE     ---       _setDMPConfig1
      01002393H   CODE     ---       _setDMPConfig2
      01002294H   CODE     ---       _setDMPEnabled
      010021A1H   CODE     ---       _setExternalFrameSync
      010022AAH   CODE     ---       _setFIFOEnabled
      01002123H   CODE     ---       _setFullScaleAccelRange
      01002115H   CODE     ---       _setFullScaleGyroRange
      0100229FH   CODE     ---       _setI2CMasterModeEnabled
      01002378H   CODE     ---       _setIntEnabled
      01001F5BH   CODE     ---       _setMemoryBank
      0100236FH   CODE     ---       _setMemoryStartAddress
      010023AEH   CODE     ---       _setMotionDetectionDuration
      0100239CH   CODE     ---       _setMotionDetectionThreshold
      0100232AH   CODE     ---       _setOTPBankValid
      01002381H   CODE     ---       _setRate
      01001F90H   CODE     ---       _setSlaveAddress
      01002273H   CODE     ---       _setSleepEnabled
      010023C0H   CODE     ---       _setXAccelOffset
      010023D8H   CODE     ---       _setXGyroOffset
      01002334H   CODE     ---       _setXGyroOffsetTC
LX51 LINKER/LOCATER V4.66.62.0                                                        11/17/2016  16:14:32  PAGE 13


      010023C8H   CODE     ---       _setYAccelOffset
      0100227EH   CODE     ---       _setYGyroOffset
      0100233EH   CODE     ---       _setYGyroOffsetTC
      010023D0H   CODE     ---       _setZAccelOffset
      010023B7H   CODE     ---       _setZeroMotionDetectionDuration
      010023A5H   CODE     ---       _setZeroMotionDetectionThreshold
      01002289H   CODE     ---       _setZGyroOffset
      01002348H   CODE     ---       _setZGyroOffsetTC
      0100221FH   CODE     ---       _SPI_Read
      01001E31H   CODE     ---       _SPI_Read_Buf
      01002302H   CODE     ---       _SPI_RW
      01002002H   CODE     ---       _SPI_RW_Reg
      01001EE8H   CODE     ---       _SPI_Write_Buf
      01001DD9H   CODE     ---       _TX_Mode_NOACK
      0100208CH   CODE     ---       _uart_putchar
      01000F25H   CODE     ---       _writeDMPConfigurationSet
      01000D81H   CODE     ---       _writeMemoryBlock
      01002320H   CODE     ---       _writeProgDMPConfigurationSet
      01001EC8H   CODE     ---       _writeProgMemoryBlock
*SFR* 000000D0H.6 DATA     BIT       AC
*SFR* 000000E0H   DATA     BYTE      ACC
*SFR* 000000D3H   DATA     BYTE      ADCCON1
*SFR* 000000D2H   DATA     BYTE      ADCCON2
*SFR* 000000D1H   DATA     BYTE      ADCCON3
*SFR* 000000D4H   DATA     BYTE      ADCDATH
*SFR* 000000D5H   DATA     BYTE      ADCDATL
*SFR* 000000D8H   DATA     BYTE      ADCON
      0100275AH   CONST    ---       ADDR_HOST
*SFR* 000000EFH   DATA     BYTE      ARCON
*SFR* 000000F0H   DATA     BYTE      B
*SFR* 000000D8H.7 DATA     BIT       BD
      020002A7H   XDATA    ---       buffer
*SFR* 000000C2H   DATA     WORD      CC1
*SFR* 000000C4H   DATA     WORD      CC2
*SFR* 000000C6H   DATA     WORD      CC3
*SFR* 000000C1H   DATA     BYTE      CCEN
*SFR* 000000C3H   DATA     BYTE      CCH1
*SFR* 000000C5H   DATA     BYTE      CCH2
*SFR* 000000C7H   DATA     BYTE      CCH3
*SFR* 000000C2H   DATA     BYTE      CCL1
*SFR* 000000C4H   DATA     BYTE      CCL2
*SFR* 000000C6H   DATA     BYTE      CCL3
*SFR* 000000DDH   DATA     BYTE      CCPDATIA
*SFR* 000000DEH   DATA     BYTE      CCPDATIB
*SFR* 000000DFH   DATA     BYTE      CCPDATO
*SFR* 000000A3H   DATA     BYTE      CLKCTRL
*SFR* 000000ADH   DATA     BYTE      CLKLFCTRL
*SFR* 000000DBH   DATA     BYTE      COMPCON
      010012B6H   CODE     ---       configura_dmp
*SFR* 000000CAH   DATA     WORD      CRC
*SFR* 000000CBH   DATA     BYTE      CRCH
*SFR* 000000CAH   DATA     BYTE      CRCL
*SFR* 000000D0H.7 DATA     BIT       CY
      00000050H   DATA     BYTE      data_ready
      0200028FH   XDATA    BYTE      devStatus
      01002EE8H   CONST    ---       dmpConfig
      01002366H   CODE     ---       dmpGetFIFOPacketSize
      01000056H   CODE     ---       dmpInitialize
      0100275FH   CONST    ---       dmpMemory
      020002A5H   XDATA    ---       dmpPacketBuffer
      0200028DH   XDATA    WORD      dmpPacketSize
      0000001FH   DATA     BYTE      dmpReady
      01002FA8H   CONST    ---       dmpUpdates
*SFR* 00000083H   DATA     BYTE      DPH
*SFR* 00000085H   DATA     BYTE      DPH1
LX51 LINKER/LOCATER V4.66.62.0                                                        11/17/2016  16:14:32  PAGE 14


*SFR* 00000082H   DATA     BYTE      DPL
*SFR* 00000084H   DATA     BYTE      DPL1
*SFR* 00000092H   DATA     BYTE      DPS
*SFR* 000000A8H.7 DATA     BIT       EA
*SFR* 000000A8H.4 DATA     BIT       ES0
*SFR* 000000A8H.1 DATA     BIT       ET0
*SFR* 000000A8H.3 DATA     BIT       ET1
*SFR* 000000A8H.5 DATA     BIT       ET2
*SFR* 000000A8H   DATA     BIT       EX0
*SFR* 000000A8H.2 DATA     BIT       EX1
*SFR* 000000B8H.7 DATA     BIT       EXEN2
*SFR* 000000C0H.7 DATA     BIT       EXF2
      01000006H   CODE     ---       ext0_irq
*SFR* 000000D0H.5 DATA     BIT       F0
*SFR* 000000FAH   DATA     BYTE      FCR
*SFR* 000000FBH   DATA     BYTE      FDCR
      02000000H   XDATA    ---       fifoBuffer
      0200028BH   XDATA    WORD      fifoCount
*SFR* 000000F9H   DATA     BYTE      FPCR
*SFR* 000000F8H   DATA     BYTE      FSR
      010021BDH   CODE     ---       getDMPConfig1
      010021CBH   CODE     ---       getDMPConfig2
      01002185H   CODE     ---       getFIFOCount
      0100203BH   CODE     ---       getFIFOEnabled
      01002193H   CODE     ---       getIntStatus
      010021F5H   CODE     ---       getMotionDetectionDuration
      010021D9H   CODE     ---       getMotionDetectionThreshold
      010020A5H   CODE     ---       getOTPBankValid
      01002131H   CODE     ---       getXAccelOffset
      0100215BH   CODE     ---       getXGyroOffset
      010020D7H   CODE     ---       getXGyroOffsetTC
      0100213FH   CODE     ---       getYAccelOffset
      01002169H   CODE     ---       getYGyroOffset
      010020E7H   CODE     ---       getYGyroOffsetTC
      0100214DH   CODE     ---       getZAccelOffset
      01002015H   CODE     ---       getZeroMotionDetectionDuration
      010021E7H   CODE     ---       getZeroMotionDetectionThreshold
      01002177H   CODE     ---       getZGyroOffset
      010020F7H   CODE     ---       getZGyroOffsetTC
      01001947H   CODE     ---       hal_w2_soft_reset
      01001E5CH   CODE     ---       hal_w2_wait_data_ready
      01002352H   CODE     ---       hal_w2_wait_data_ready_ISR
      01001CC2H   CODE     ---       I2C_IRQ
      0100235CH   CODE     ---       I2C_IRQ_handler
      01002244H   CODE     ---       i2c_mpu_reset
*SFR* 000000C8H.5 DATA     BIT       I2FR
*SFR* 000000C8H.6 DATA     BIT       I3FR
*SFR* 00000088H.1 DATA     BIT       IE0
*SFR* 00000088H.3 DATA     BIT       IE1
*SFR* 000000A8H   DATA     BYTE      IEN0
*SFR* 000000B8H   DATA     BYTE      IEN1
*SFR* 000000F8H.3 DATA     BIT       INFEN
      0100204DH   CODE     ---       iniciarIO
      0100222CH   CODE     ---       iniciarRF
*SFR* 000000A6H   DATA     BYTE      INTEXP
*SFR* 000000A9H   DATA     BYTE      IP0
*SFR* 000000B9H   DATA     BYTE      IP1
*SFR* 000000C0H   DATA     BYTE      IRCON
*SFR* 00000088H   DATA     BIT       IT0
*SFR* 00000088H.2 DATA     BIT       IT1
*SFR* 00000080H.3 DATA     BIT       LEDVM
      01001686H   CODE     ---       ler_dmp
      01001F23H   CODE     ---       luzes_iniciais
      0100146BH   CODE     ---       main
      02000081H   XDATA    ---       malloc_memory_pool
LX51 LINKER/LOCATER V4.66.62.0                                                        11/17/2016  16:14:32  PAGE 15


      00000020H.4 DATA     BIT       MAX_RT
*SFR* 000000F8H.7 DATA     BIT       MCDIS
*SFR* 000000E9H   DATA     BYTE      MD0
*SFR* 000000EAH   DATA     BYTE      MD1
*SFR* 000000EBH   DATA     BYTE      MD2
*SFR* 000000ECH   DATA     BYTE      MD3
*SFR* 000000EDH   DATA     BYTE      MD4
*SFR* 000000EEH   DATA     BYTE      MD5
*SFR* 000000A7H   DATA     BYTE      MEMCON
*SFR* 000000B8H.4 DATA     BIT       MISC
*SFR* 000000C0H.4 DATA     BIT       MISCF
*SFR* 000000C9H   DATA     BYTE      MPAGE
      01002268H   CODE     ---       mpu_8051_malloc_setup
      01001FDAH   CODE     ---       mpu_initialize
      01001FC4H   CODE     ---       mpu_testConnection
      0000001EH   DATA     BYTE      mpuInterrupt
      02000040H   XDATA    BYTE      mpuIntStatus
      00000021H.0 BIT      BIT       newPayload
*SFR* 000000AEH   DATA     BYTE      OPMCON
*SFR* 000000D0H.2 DATA     BIT       OV
*SFR* 000000D0H   DATA     BIT       P
*SFR* 00000080H   DATA     BYTE      P0
*SFR* 00000080H   DATA     BIT       P00
*SFR* 00000080H.1 DATA     BIT       P01
*SFR* 00000080H.2 DATA     BIT       P02
*SFR* 00000080H.3 DATA     BIT       P03
*SFR* 00000080H.4 DATA     BIT       P04
*SFR* 00000080H.5 DATA     BIT       P05
*SFR* 00000080H.6 DATA     BIT       P06
*SFR* 00000080H.7 DATA     BIT       P07
*SFR* 0000009EH   DATA     BYTE      P0CON
*SFR* 00000093H   DATA     BYTE      P0DIR
*SFR* 00000090H   DATA     BYTE      P1
*SFR* 00000090H   DATA     BIT       P10
*SFR* 00000090H.1 DATA     BIT       P11
*SFR* 00000090H.2 DATA     BIT       P12
*SFR* 00000090H.3 DATA     BIT       P13
*SFR* 00000090H.4 DATA     BIT       P14
*SFR* 00000090H.5 DATA     BIT       P15
*SFR* 00000090H.6 DATA     BIT       P16
*SFR* 00000090H.7 DATA     BIT       P17
*SFR* 0000009FH   DATA     BYTE      P1CON
*SFR* 00000094H   DATA     BYTE      P1DIR
*SFR* 000000A0H   DATA     BYTE      P2
*SFR* 000000A0H   DATA     BIT       P20
*SFR* 000000A0H.1 DATA     BIT       P21
*SFR* 000000A0H.2 DATA     BIT       P22
*SFR* 000000A0H.3 DATA     BIT       P23
*SFR* 000000A0H.4 DATA     BIT       P24
*SFR* 000000A0H.5 DATA     BIT       P25
*SFR* 000000A0H.6 DATA     BIT       P26
*SFR* 000000A0H.7 DATA     BIT       P27
*SFR* 00000097H   DATA     BYTE      P2CON
*SFR* 00000095H   DATA     BYTE      P2DIR
*SFR* 000000B0H   DATA     BYTE      P3
*SFR* 000000B0H   DATA     BIT       P30
*SFR* 000000B0H.1 DATA     BIT       P31
*SFR* 000000B0H.2 DATA     BIT       P32
*SFR* 000000B0H.3 DATA     BIT       P33
*SFR* 000000B0H.4 DATA     BIT       P34
*SFR* 000000B0H.5 DATA     BIT       P35
*SFR* 000000B0H.6 DATA     BIT       P36
*SFR* 000000B0H.7 DATA     BIT       P37
*SFR* 0000008FH   DATA     BYTE      P3CON
*SFR* 00000096H   DATA     BYTE      P3DIR
LX51 LINKER/LOCATER V4.66.62.0                                                        11/17/2016  16:14:32  PAGE 16


      02000291H   XDATA    ---       packet_16bits
      0200027FH   XDATA    ---       packet_motion6
      02000277H   XDATA    ---       packet_quat
      02000275H   XDATA    WORD      packetSize
      02000290H   XDATA    BYTE      payloadWidth
*SFR* 00000087H   DATA     BYTE      PCON
*SFR* 000000DCH   DATA     BYTE      POFCON
*SFR* 000000D0H   DATA     BYTE      PSW
*SFR* 000000B2H   DATA     BYTE      PWMCON
*SFR* 000000A1H   DATA     BYTE      PWMDC0
*SFR* 000000A2H   DATA     BYTE      PWMDC1
*SFR* 000000A4H   DATA     BYTE      PWRDWN
*SFR* 00000098H.2 DATA     BIT       RB80
*SFR* 000000F8H.1 DATA     BIT       RDEND
*SFR* 000000F8H.2 DATA     BIT       RDIS
*SFR* 000000F8H.4 DATA     BIT       RDYN
*SFR* 00000098H.4 DATA     BIT       REN0
      0100225CH   CODE     ---       resetDMP
      01002238H   CODE     ---       resetFIFO
      01002250H   CODE     ---       resetI2CMaster
*SFR* 000000B8H.1 DATA     BIT       RF
      01001C3BH   CODE     ---       rf_init
      0100184AH   CODE     ---       RF_IRQ
*SFR* 000000E8H   DATA     BIT       RFCE
*SFR* 000000E8H.2 DATA     BIT       RFCKEN
*SFR* 000000E8H   DATA     BYTE      RFCON
*SFR* 000000E8H.1 DATA     BIT       RFCSN
*SFR* 000000C0H.1 DATA     BIT       RFF
*SFR* 000000B8H   DATA     BIT       RFSPI
*SFR* 000000C0H   DATA     BIT       RFSPIF
*SFR* 00000098H   DATA     BIT       RI0
*SFR* 000000D6H   DATA     BYTE      RNGCTL
*SFR* 000000D7H   DATA     BYTE      RNGDAT
*SFR* 000000D0H.3 DATA     BIT       RS0
*SFR* 000000D0H.4 DATA     BIT       RS1
*SFR* 000000B1H   DATA     BYTE      RSTREAS
*SFR* 000000B4H   DATA     BYTE      RTC2CMP0
*SFR* 000000B5H   DATA     BYTE      RTC2CMP1
*SFR* 000000B3H   DATA     BYTE      RTC2CON
*SFR* 000000B6H   DATA     BYTE      RTC2CPT00
*SFR* 000000ABH   DATA     BYTE      RTC2CPT01
*SFR* 000000ACH   DATA     BYTE      RTC2CPT10
      02000041H   XDATA    ---       rx_buf
      00000020H.6 DATA     BIT       RX_DR
      01002094H   CODE     ---       RX_Mode
*SFR* 00000099H   DATA     BYTE      S0BUF
*SFR* 00000098H   DATA     BYTE      S0CON
*SFR* 000000BAH   DATA     BYTE      S0RELH
*SFR* 000000AAH   DATA     BYTE      S0RELL
*SFR* 00000080H.2 DATA     BIT       S1
*SFR* 00000090H.4 DATA     BIT       S2
      0100139DH   CODE     ---       setup
*SFR* 00000098H.7 DATA     BIT       SM0
*SFR* 00000098H.6 DATA     BIT       SM1
*SFR* 00000098H.5 DATA     BIT       SM20
*SFR* 00000081H   DATA     BYTE      SP
*SFR* 000000B8H.2 DATA     BIT       SPI
*SFR* 000000C0H.2 DATA     BIT       SPIF
*SFR* 000000FCH   DATA     BYTE      SPIMCON0
*SFR* 000000FDH   DATA     BYTE      SPIMCON1
*SFR* 000000FFH   DATA     BYTE      SPIMDAT
*SFR* 000000FEH   DATA     BYTE      SPIMSTAT
*SFR* 000000E4H   DATA     BYTE      SPIRCON0
*SFR* 000000E5H   DATA     BYTE      SPIRCON1
*SFR* 000000E7H   DATA     BYTE      SPIRDAT
LX51 LINKER/LOCATER V4.66.62.0                                                        11/17/2016  16:14:32  PAGE 17


*SFR* 000000E6H   DATA     BYTE      SPIRSTAT
*SFR* 000000BCH   DATA     BYTE      SPISCON0
*SFR* 000000BDH   DATA     BYTE      SPISCON1
*SFR* 000000BFH   DATA     BYTE      SPISDAT
*SFR* 000000B7H   DATA     BYTE      SPISRDSZ
*SFR* 000000BEH   DATA     BYTE      SPISSTAT
      00000020H   DATA     BYTE      sta
      0100230CH   CODE     ---       start_T0
      01002316H   CODE     ---       stop_T0
*SFR* 000000F8H.6 DATA     BIT       STP
*SFR* 000000CCH   DATA     WORD      T2
*SFR* 000000C8H.2 DATA     BIT       T2CM
*SFR* 000000C8H   DATA     BYTE      T2CON
*SFR* 000000C8H   DATA     BIT       T2I0
*SFR* 000000C8H.1 DATA     BIT       T2I1
*SFR* 000000C8H.7 DATA     BIT       T2PS
*SFR* 000000C8H.3 DATA     BIT       T2R0
*SFR* 000000C8H.4 DATA     BIT       T2R1
*SFR* 00000098H.3 DATA     BIT       TB80
*SFR* 00000088H   DATA     BYTE      TCON
*SFR* 00000088H.5 DATA     BIT       TF0
*SFR* 00000088H.7 DATA     BIT       TF1
*SFR* 000000C0H.6 DATA     BIT       TF2
*SFR* 0000008CH   DATA     BYTE      TH0
*SFR* 0000008DH   DATA     BYTE      TH1
*SFR* 000000CDH   DATA     BYTE      TH2
*SFR* 00000098H.1 DATA     BIT       TI0
      0000001CH   DATA     INT       timer_flag
*SFR* 0000008AH   DATA     BYTE      TL0
*SFR* 0000008BH   DATA     BYTE      TL1
*SFR* 000000CCH   DATA     BYTE      TL2
*SFR* 00000089H   DATA     BYTE      TMOD
      010020C7H   CODE     ---       TMR0_IRQ
*SFR* 00000088H.4 DATA     BIT       TR0
*SFR* 00000088H.6 DATA     BIT       TR1
      02000061H   XDATA    ---       tx_buf
      00000020H.5 DATA     BIT       TX_DS
      01001F76H   CODE     ---       uart_init
      00000051H   DATA     BYTE      w2_status
*SFR* 000000E2H   DATA     BYTE      W2CON0
*SFR* 000000E1H   DATA     BYTE      W2CON1
*SFR* 000000DAH   DATA     BYTE      W2DAT
*SFR* 000000D9H   DATA     BYTE      W2SADR
*SFR* 000000AFH   DATA     BYTE      WDSV
*SFR* 000000F8H.5 DATA     BIT       WEN
*SFR* 000000F8H   DATA     BIT       WPEN
*SFR* 000000A5H   DATA     BYTE      WUCON
*SFR* 000000C0H.5 DATA     BIT       WUF
*SFR* 000000B8H.5 DATA     BIT       WUIRQ
*SFR* 000000CFH   DATA     BYTE      WUOPC0
*SFR* 000000CEH   DATA     BYTE      WUOPC1
*SFR* 000000B8H.3 DATA     BIT       WUPIN
*SFR* 000000C0H.3 DATA     BIT       WUPINF



SYMBOL TABLE OF MODULE:  FProject (?C_STARTUP)

      VALUE       REP       CLASS    TYPE      SYMBOL NAME
      ====================================================
      ---         MODULE    ---      ---       ?C_STARTUP
      01000000H   PUBLIC    CODE     ---       ?C_STARTUP
      000000E0H   SYMBOL    DATA     ---       ACC
      000000F0H   SYMBOL    DATA     ---       B
      00000083H   SYMBOL    DATA     ---       DPH
LX51 LINKER/LOCATER V4.66.62.0                                                        11/17/2016  16:14:32  PAGE 18


      00000082H   SYMBOL    DATA     ---       DPL
      00000000H   SYMBOL    NUMBER   ---       IBPSTACK
      00000100H   SYMBOL    NUMBER   ---       IBPSTACKTOP
      00000080H   SYMBOL    NUMBER   ---       IDATALEN
      010017C1H   SYMBOL    CODE     ---       IDATALOOP
      00000000H   SYMBOL    NUMBER   ---       PBPSTACK
      00000100H   SYMBOL    NUMBER   ---       PBPSTACKTOP
      00000000H   SYMBOL    NUMBER   ---       PDATALEN
      00000000H   SYMBOL    NUMBER   ---       PDATASTART
      00000000H   SYMBOL    NUMBER   ---       PPAGE
      00000000H   SYMBOL    NUMBER   ---       PPAGEENABLE
      000000A0H   SYMBOL    DATA     ---       PPAGE_SFR
      00000081H   SYMBOL    DATA     ---       SP
      010017BEH   SYMBOL    CODE     ---       STARTUP1
      00000000H   SYMBOL    NUMBER   ---       XBPSTACK
      00000000H   SYMBOL    NUMBER   ---       XBPSTACKTOP
      00000000H   SYMBOL    NUMBER   ---       XDATALEN
      00000000H   SYMBOL    NUMBER   ---       XDATASTART
      01000000H   LINE      CODE     ---       #126
      010017BEH   LINE      CODE     ---       #133
      010017C0H   LINE      CODE     ---       #134
      010017C1H   LINE      CODE     ---       #135
      010017C2H   LINE      CODE     ---       #136
      010017C4H   LINE      CODE     ---       #185
      010017C7H   LINE      CODE     ---       #196

      ---         MODULE    ---      ---       MAIN
      020002A7H   PUBLIC    XDATA    ---       buffer
      020002A5H   PUBLIC    XDATA    ---       dmpPacketBuffer
      02000291H   PUBLIC    XDATA    ---       packet_16bits
      02000290H   PUBLIC    XDATA    BYTE      payloadWidth
      00000020H.4 PUBLIC    DATA     BIT       MAX_RT
      0200028FH   PUBLIC    XDATA    BYTE      devStatus
      0200028DH   PUBLIC    XDATA    WORD      dmpPacketSize
      0000001FH   PUBLIC    DATA     BYTE      dmpReady
      0200028BH   PUBLIC    XDATA    WORD      fifoCount
      0200027FH   PUBLIC    XDATA    ---       packet_motion6
      0000001EH   PUBLIC    DATA     BYTE      mpuInterrupt
      00000020H.5 PUBLIC    DATA     BIT       TX_DS
      00000020H.6 PUBLIC    DATA     BIT       RX_DR
      00000020H   PUBLIC    DATA     BYTE      sta
      0000001CH   PUBLIC    DATA     INT       timer_flag
      00000021H.0 PUBLIC    BIT      BIT       newPayload
      02000277H   PUBLIC    XDATA    ---       packet_quat
      02000275H   PUBLIC    XDATA    WORD      packetSize
      02000081H   PUBLIC    XDATA    ---       malloc_memory_pool
      02000061H   PUBLIC    XDATA    ---       tx_buf
      02000041H   PUBLIC    XDATA    ---       rx_buf
      02000040H   PUBLIC    XDATA    BYTE      mpuIntStatus
      02000000H   PUBLIC    XDATA    ---       fifoBuffer
      01002FA8H   PUBLIC    CONST    ---       dmpUpdates
      01002EE8H   PUBLIC    CONST    ---       dmpConfig
      0100275FH   PUBLIC    CONST    ---       dmpMemory
      0100275AH   PUBLIC    CONST    ---       ADDR_HOST
      01001CC2H   PUBLIC    CODE     ---       I2C_IRQ
      01001F23H   PUBLIC    CODE     ---       luzes_iniciais
      0100146BH   PUBLIC    CODE     ---       main
      01001686H   PUBLIC    CODE     ---       ler_dmp
      0100139DH   PUBLIC    CODE     ---       setup
      010012B6H   PUBLIC    CODE     ---       configura_dmp
      0100204DH   PUBLIC    CODE     ---       iniciarIO
      01000006H   PUBLIC    CODE     ---       ext0_irq
      020002B5H   PUBLIC    XDATA    BYTE      ?_dmpGetPacket16bits?BYTE
      010011B8H   PUBLIC    CODE     ---       _dmpGetPacket16bits
      0200037AH   PUBLIC    XDATA    BYTE      ?_dmpGetQuaternion_int16?BYTE
LX51 LINKER/LOCATER V4.66.62.0                                                        11/17/2016  16:14:32  PAGE 19


      010019BAH   PUBLIC    CODE     ---       _dmpGetQuaternion_int16
      01000056H   PUBLIC    CODE     ---       dmpInitialize
      0100225CH   PUBLIC    CODE     ---       resetDMP
      010022AAH   PUBLIC    CODE     ---       _setFIFOEnabled
      0100203BH   PUBLIC    CODE     ---       getFIFOEnabled
      010023B7H   PUBLIC    CODE     ---       _setZeroMotionDetectionDuration
      01002015H   PUBLIC    CODE     ---       getZeroMotionDetectionDuration
      010023AEH   PUBLIC    CODE     ---       _setMotionDetectionDuration
      010021F5H   PUBLIC    CODE     ---       getMotionDetectionDuration
      010023A5H   PUBLIC    CODE     ---       _setZeroMotionDetectionThreshold
      010021E7H   PUBLIC    CODE     ---       getZeroMotionDetectionThreshold
      0100239CH   PUBLIC    CODE     ---       _setMotionDetectionThreshold
      010021D9H   PUBLIC    CODE     ---       getMotionDetectionThreshold
      01002348H   PUBLIC    CODE     ---       _setZGyroOffsetTC
      010020F7H   PUBLIC    CODE     ---       getZGyroOffsetTC
      0100233EH   PUBLIC    CODE     ---       _setYGyroOffsetTC
      010020E7H   PUBLIC    CODE     ---       getYGyroOffsetTC
      01002334H   PUBLIC    CODE     ---       _setXGyroOffsetTC
      010020D7H   PUBLIC    CODE     ---       getXGyroOffsetTC
      0100232AH   PUBLIC    CODE     ---       _setOTPBankValid
      010020A5H   PUBLIC    CODE     ---       getOTPBankValid
      01002393H   PUBLIC    CODE     ---       _setDMPConfig2
      010021CBH   PUBLIC    CODE     ---       getDMPConfig2
      0100238AH   PUBLIC    CODE     ---       _setDMPConfig1
      010021BDH   PUBLIC    CODE     ---       getDMPConfig1
      010021AFH   PUBLIC    CODE     ---       _setDLPFMode
      010021A1H   PUBLIC    CODE     ---       _setExternalFrameSync
      01002381H   PUBLIC    CODE     ---       _setRate
      01002378H   PUBLIC    CODE     ---       _setIntEnabled
      01002250H   PUBLIC    CODE     ---       resetI2CMaster
      0100229FH   PUBLIC    CODE     ---       _setI2CMasterModeEnabled
      01001F90H   PUBLIC    CODE     ---       _setSlaveAddress
      01002244H   PUBLIC    CODE     ---       i2c_mpu_reset
      02000350H   PUBLIC    XDATA    BYTE      ?_writeProgMemoryBlock?BYTE
      01001EC8H   PUBLIC    CODE     ---       _writeProgMemoryBlock
      01002320H   PUBLIC    CODE     ---       _writeProgDMPConfigurationSet
      02000350H   PUBLIC    XDATA    BYTE      ?_readMemoryBlock?BYTE
      0100152DH   PUBLIC    CODE     ---       _readMemoryBlock
      02000350H   PUBLIC    XDATA    BYTE      ?_writeDMPConfigurationSet?BYTE
      01000F25H   PUBLIC    CODE     ---       _writeDMPConfigurationSet
      02000360H   PUBLIC    XDATA    BYTE      ?_writeMemoryBlock?BYTE
      01000D81H   PUBLIC    CODE     ---       _writeMemoryBlock
      0100236FH   PUBLIC    CODE     ---       _setMemoryStartAddress
      01001E05H   PUBLIC    CODE     ---       _getFIFOBytes
      01002366H   PUBLIC    CODE     ---       dmpGetFIFOPacketSize
      01002238H   PUBLIC    CODE     ---       resetFIFO
      01002294H   PUBLIC    CODE     ---       _setDMPEnabled
      01002193H   PUBLIC    CODE     ---       getIntStatus
      01002185H   PUBLIC    CODE     ---       getFIFOCount
      01001F5BH   PUBLIC    CODE     ---       _setMemoryBank
      01002177H   PUBLIC    CODE     ---       getZGyroOffset
      01002169H   PUBLIC    CODE     ---       getYGyroOffset
      0100215BH   PUBLIC    CODE     ---       getXGyroOffset
      0100214DH   PUBLIC    CODE     ---       getZAccelOffset
      0100213FH   PUBLIC    CODE     ---       getYAccelOffset
      01002131H   PUBLIC    CODE     ---       getXAccelOffset
      01002289H   PUBLIC    CODE     ---       _setZGyroOffset
      0100227EH   PUBLIC    CODE     ---       _setYGyroOffset
      010023D8H   PUBLIC    CODE     ---       _setXGyroOffset
      010023D0H   PUBLIC    CODE     ---       _setZAccelOffset
      010023C8H   PUBLIC    CODE     ---       _setYAccelOffset
      010023C0H   PUBLIC    CODE     ---       _setXAccelOffset
      010015E8H   PUBLIC    CODE     ---       _getMotion6_packet
      01001FC4H   PUBLIC    CODE     ---       mpu_testConnection
      01001FDAH   PUBLIC    CODE     ---       mpu_initialize
LX51 LINKER/LOCATER V4.66.62.0                                                        11/17/2016  16:14:32  PAGE 20


      01002273H   PUBLIC    CODE     ---       _setSleepEnabled
      01002123H   PUBLIC    CODE     ---       _setFullScaleAccelRange
      01002115H   PUBLIC    CODE     ---       _setFullScaleGyroRange
      01002107H   PUBLIC    CODE     ---       _setClockSource
      01002268H   PUBLIC    CODE     ---       mpu_8051_malloc_setup
      01002316H   PUBLIC    CODE     ---       stop_T0
      0100230CH   PUBLIC    CODE     ---       start_T0
      010020C7H   PUBLIC    CODE     ---       TMR0_IRQ
      00000048H   PUBLIC    DATA     BYTE      ?_send_packet_from_host_to_computer?BYTE
      01001DA4H   PUBLIC    CODE     ---       _send_packet_from_host_to_computer
      00000043H   PUBLIC    DATA     BYTE      ?_send_packet_to_computer?BYTE
      01001D6FH   PUBLIC    CODE     ---       _send_packet_to_computer
      00000022H   PUBLIC    DATA     BYTE      ?_send_packet_to_host?BYTE
      01001B9AH   PUBLIC    CODE     ---       _send_packet_to_host
      0100222CH   PUBLIC    CODE     ---       iniciarRF
      01001C3BH   PUBLIC    CODE     ---       rf_init
      0100184AH   PUBLIC    CODE     ---       RF_IRQ
      01001DD9H   PUBLIC    CODE     ---       _TX_Mode_NOACK
      01002094H   PUBLIC    CODE     ---       RX_Mode
      00000029H   PUBLIC    DATA     BYTE      ?_SPI_Write_Buf?BYTE
      01001EE8H   PUBLIC    CODE     ---       _SPI_Write_Buf
      00000038H   PUBLIC    DATA     BYTE      ?_SPI_Read_Buf?BYTE
      01001E31H   PUBLIC    CODE     ---       _SPI_Read_Buf
      0100221FH   PUBLIC    CODE     ---       _SPI_Read
      01002002H   PUBLIC    CODE     ---       _SPI_RW_Reg
      01002302H   PUBLIC    CODE     ---       _SPI_RW
      01001F07H   PUBLIC    CODE     ---       _putstring
      0100208CH   PUBLIC    CODE     ---       _uart_putchar
      01001F76H   PUBLIC    CODE     ---       uart_init
      00000098H.3 SFRSYM    DATA     BIT       TB80
      000000BEH   SFRSYM    DATA     BYTE      SPISSTAT
      000000C8H   SFRSYM    DATA     BIT       T2I0
      000000C3H   SFRSYM    DATA     BYTE      CCH1
      00000080H   SFRSYM    DATA     BYTE      P0
      000000C8H.1 SFRSYM    DATA     BIT       T2I1
      000000DFH   SFRSYM    DATA     BYTE      CCPDATO
      000000C5H   SFRSYM    DATA     BYTE      CCH2
      00000090H   SFRSYM    DATA     BYTE      P1
      000000C7H   SFRSYM    DATA     BYTE      CCH3
      000000A0H   SFRSYM    DATA     BYTE      P2
      00000098H.5 SFRSYM    DATA     BIT       SM20
      000000B0H   SFRSYM    DATA     BYTE      P3
      00000080H.2 SFRSYM    DATA     BIT       S1
      000000D0H.6 SFRSYM    DATA     BIT       AC
      000000C2H   SFRSYM    DATA     BYTE      CCL1
      00000090H.4 SFRSYM    DATA     BIT       S2
      000000C4H   SFRSYM    DATA     BYTE      CCL2
      000000D8H.7 SFRSYM    DATA     BIT       BD
      000000B8H   SFRSYM    DATA     BIT       RFSPI
      000000A8H.7 SFRSYM    DATA     BIT       EA
      000000CCH   SFRSYM    DATA     WORD      T2
      000000C6H   SFRSYM    DATA     BYTE      CCL3
      000000B7H   SFRSYM    DATA     BYTE      SPISRDSZ
      000000C8H.3 SFRSYM    DATA     BIT       T2R0
      000000C8H.4 SFRSYM    DATA     BIT       T2R1
      000000A8H   SFRSYM    DATA     BYTE      IEN0
      000000B8H   SFRSYM    DATA     BYTE      IEN1
      000000A5H   SFRSYM    DATA     BYTE      WUCON
      00000085H   SFRSYM    DATA     BYTE      DPH1
      000000DBH   SFRSYM    DATA     BYTE      COMPCON
      000000A3H   SFRSYM    DATA     BYTE      CLKCTRL
      00000084H   SFRSYM    DATA     BYTE      DPL1
      000000C8H.5 SFRSYM    DATA     BIT       I2FR
      000000B8H.3 SFRSYM    DATA     BIT       WUPIN
      000000C8H.6 SFRSYM    DATA     BIT       I3FR
LX51 LINKER/LOCATER V4.66.62.0                                                        11/17/2016  16:14:32  PAGE 21


      000000FFH   SFRSYM    DATA     BYTE      SPIMDAT
      000000C0H.7 SFRSYM    DATA     BIT       EXF2
      00000098H.4 SFRSYM    DATA     BIT       REN0
      000000C8H.2 SFRSYM    DATA     BIT       T2CM
      000000B8H.1 SFRSYM    DATA     BIT       RF
      000000B8H.5 SFRSYM    DATA     BIT       WUIRQ
      000000E7H   SFRSYM    DATA     BYTE      SPIRDAT
      000000C1H   SFRSYM    DATA     BYTE      CCEN
      000000E2H   SFRSYM    DATA     BYTE      W2CON0
      000000BFH   SFRSYM    DATA     BYTE      SPISDAT
      000000D0H.7 SFRSYM    DATA     BIT       CY
      000000E1H   SFRSYM    DATA     BYTE      W2CON1
      000000FBH   SFRSYM    DATA     BYTE      FDCR
      000000E8H   SFRSYM    DATA     BIT       RFCE
      000000CBH   SFRSYM    DATA     BYTE      CRCH
      00000081H   SFRSYM    DATA     BYTE      SP
      000000D0H.2 SFRSYM    DATA     BIT       OV
      000000CAH   SFRSYM    DATA     BYTE      CRCL
      000000ADH   SFRSYM    DATA     BYTE      CLKLFCTRL
      000000B1H   SFRSYM    DATA     BYTE      RSTREAS
      000000C8H.7 SFRSYM    DATA     BIT       T2PS
      000000F9H   SFRSYM    DATA     BYTE      FPCR
      000000B8H.4 SFRSYM    DATA     BIT       MISC
      000000A1H   SFRSYM    DATA     BYTE      PWMDC0
      000000B4H   SFRSYM    DATA     BYTE      RTC2CMP0
      000000A2H   SFRSYM    DATA     BYTE      PWMDC1
      000000B5H   SFRSYM    DATA     BYTE      RTC2CMP1
      00000080H   SFRSYM    DATA     BIT       P00
      000000BAH   SFRSYM    DATA     BYTE      S0RELH
      00000090H   SFRSYM    DATA     BIT       P10
      00000080H.1 SFRSYM    DATA     BIT       P01
      00000087H   SFRSYM    DATA     BYTE      PCON
      000000A0H   SFRSYM    DATA     BIT       P20
      00000090H.1 SFRSYM    DATA     BIT       P11
      00000080H.2 SFRSYM    DATA     BIT       P02
      000000B0H   SFRSYM    DATA     BIT       P30
      000000A0H.1 SFRSYM    DATA     BIT       P21
      00000090H.2 SFRSYM    DATA     BIT       P12
      00000080H.3 SFRSYM    DATA     BIT       P03
      000000C0H.2 SFRSYM    DATA     BIT       SPIF
      000000F8H.2 SFRSYM    DATA     BIT       RDIS
      000000B0H.1 SFRSYM    DATA     BIT       P31
      000000A0H.2 SFRSYM    DATA     BIT       P22
      00000090H.3 SFRSYM    DATA     BIT       P13
      00000080H.4 SFRSYM    DATA     BIT       P04
      000000AAH   SFRSYM    DATA     BYTE      S0RELL
      000000B0H.2 SFRSYM    DATA     BIT       P32
      000000A0H.3 SFRSYM    DATA     BIT       P23
      00000090H.4 SFRSYM    DATA     BIT       P14
      00000080H.5 SFRSYM    DATA     BIT       P05
      000000D9H   SFRSYM    DATA     BYTE      W2SADR
      00000089H   SFRSYM    DATA     BYTE      TMOD
      00000088H   SFRSYM    DATA     BYTE      TCON
      000000B0H.3 SFRSYM    DATA     BIT       P33
      000000A0H.4 SFRSYM    DATA     BIT       P24
      00000090H.5 SFRSYM    DATA     BIT       P15
      00000080H.6 SFRSYM    DATA     BIT       P06
      000000B0H.4 SFRSYM    DATA     BIT       P34
      000000A0H.5 SFRSYM    DATA     BIT       P25
      00000090H.6 SFRSYM    DATA     BIT       P16
      00000080H.7 SFRSYM    DATA     BIT       P07
      000000C2H   SFRSYM    DATA     WORD      CC1
      000000B0H.5 SFRSYM    DATA     BIT       P35
      000000A0H.6 SFRSYM    DATA     BIT       P26
      00000090H.7 SFRSYM    DATA     BIT       P17
LX51 LINKER/LOCATER V4.66.62.0                                                        11/17/2016  16:14:32  PAGE 22


      000000C4H   SFRSYM    DATA     WORD      CC2
      000000B0H.6 SFRSYM    DATA     BIT       P36
      000000A0H.7 SFRSYM    DATA     BIT       P27
      000000C6H   SFRSYM    DATA     WORD      CC3
      000000B0H.7 SFRSYM    DATA     BIT       P37
      000000E8H.2 SFRSYM    DATA     BIT       RFCKEN
      000000F8H   SFRSYM    DATA     BIT       WPEN
      000000DDH   SFRSYM    DATA     BYTE      CCPDATIA
      000000DEH   SFRSYM    DATA     BYTE      CCPDATIB
      00000088H.1 SFRSYM    DATA     BIT       IE0
      000000F8H.4 SFRSYM    DATA     BIT       RDYN
      00000088H.3 SFRSYM    DATA     BIT       IE1
      000000CFH   SFRSYM    DATA     BYTE      WUOPC0
      000000F0H   SFRSYM    DATA     BYTE      B
      000000E9H   SFRSYM    DATA     BYTE      MD0
      000000CEH   SFRSYM    DATA     BYTE      WUOPC1
      000000A7H   SFRSYM    DATA     BYTE      MEMCON
      000000EAH   SFRSYM    DATA     BYTE      MD1
      000000D7H   SFRSYM    DATA     BYTE      RNGDAT
      000000EBH   SFRSYM    DATA     BYTE      MD2
      000000ECH   SFRSYM    DATA     BYTE      MD3
      000000EDH   SFRSYM    DATA     BYTE      MD4
      000000AFH   SFRSYM    DATA     BYTE      WDSV
      000000EEH   SFRSYM    DATA     BYTE      MD5
      000000E0H   SFRSYM    DATA     BYTE      ACC
      000000DCH   SFRSYM    DATA     BYTE      POFCON
      000000A8H.4 SFRSYM    DATA     BIT       ES0
      000000A8H.1 SFRSYM    DATA     BIT       ET0
      000000A9H   SFRSYM    DATA     BYTE      IP0
      000000A8H.3 SFRSYM    DATA     BIT       ET1
      00000088H.5 SFRSYM    DATA     BIT       TF0
      000000B9H   SFRSYM    DATA     BYTE      IP1
      000000A8H.5 SFRSYM    DATA     BIT       ET2
      00000098H   SFRSYM    DATA     BIT       RI0
      00000088H.7 SFRSYM    DATA     BIT       TF1
      000000C0H   SFRSYM    DATA     BIT       RFSPIF
      000000C0H.6 SFRSYM    DATA     BIT       TF2
      000000FCH   SFRSYM    DATA     BYTE      SPIMCON0
      000000D6H   SFRSYM    DATA     BYTE      RNGCTL
      0000008CH   SFRSYM    DATA     BYTE      TH0
      000000A8H   SFRSYM    DATA     BIT       EX0
      00000098H.1 SFRSYM    DATA     BIT       TI0
      00000088H   SFRSYM    DATA     BIT       IT0
      000000FDH   SFRSYM    DATA     BYTE      SPIMCON1
      0000008DH   SFRSYM    DATA     BYTE      TH1
      000000A8H.2 SFRSYM    DATA     BIT       EX1
      00000088H.2 SFRSYM    DATA     BIT       IT1
      000000CDH   SFRSYM    DATA     BYTE      TH2
      000000AEH   SFRSYM    DATA     BYTE      OPMCON
      000000D0H   SFRSYM    DATA     BIT       P
      00000098H.7 SFRSYM    DATA     BIT       SM0
      0000008AH   SFRSYM    DATA     BYTE      TL0
      00000098H.6 SFRSYM    DATA     BIT       SM1
      000000E4H   SFRSYM    DATA     BYTE      SPIRCON0
      0000008BH   SFRSYM    DATA     BYTE      TL1
      000000E5H   SFRSYM    DATA     BYTE      SPIRCON1
      000000CCH   SFRSYM    DATA     BYTE      TL2
      000000BCH   SFRSYM    DATA     BYTE      SPISCON0
      000000BDH   SFRSYM    DATA     BYTE      SPISCON1
      000000D0H.3 SFRSYM    DATA     BIT       RS0
      00000088H.4 SFRSYM    DATA     BIT       TR0
      000000D0H.4 SFRSYM    DATA     BIT       RS1
      000000B2H   SFRSYM    DATA     BYTE      PWMCON
      00000088H.6 SFRSYM    DATA     BIT       TR1
      000000CAH   SFRSYM    DATA     WORD      CRC
LX51 LINKER/LOCATER V4.66.62.0                                                        11/17/2016  16:14:32  PAGE 23


      000000A6H   SFRSYM    DATA     BYTE      INTEXP
      000000C0H.3 SFRSYM    DATA     BIT       WUPINF
      000000FAH   SFRSYM    DATA     BYTE      FCR
      000000D3H   SFRSYM    DATA     BYTE      ADCCON1
      000000D2H   SFRSYM    DATA     BYTE      ADCCON2
      00000083H   SFRSYM    DATA     BYTE      DPH
      000000D1H   SFRSYM    DATA     BYTE      ADCCON3
      000000C0H.1 SFRSYM    DATA     BIT       RFF
      00000093H   SFRSYM    DATA     BYTE      P0DIR
      00000082H   SFRSYM    DATA     BYTE      DPL
      0000009EH   SFRSYM    DATA     BYTE      P0CON
      00000099H   SFRSYM    DATA     BYTE      S0BUF
      00000094H   SFRSYM    DATA     BYTE      P1DIR
      0000009FH   SFRSYM    DATA     BYTE      P1CON
      00000095H   SFRSYM    DATA     BYTE      P2DIR
      000000B8H.7 SFRSYM    DATA     BIT       EXEN2
      000000DAH   SFRSYM    DATA     BYTE      W2DAT
      00000097H   SFRSYM    DATA     BYTE      P2CON
      00000096H   SFRSYM    DATA     BYTE      P3DIR
      000000A4H   SFRSYM    DATA     BYTE      PWRDWN
      00000098H   SFRSYM    DATA     BYTE      S0CON
      0000008FH   SFRSYM    DATA     BYTE      P3CON
      000000B6H   SFRSYM    DATA     BYTE      RTC2CPT00
      000000D8H   SFRSYM    DATA     BYTE      ADCON
      000000ACH   SFRSYM    DATA     BYTE      RTC2CPT10
      000000ABH   SFRSYM    DATA     BYTE      RTC2CPT01
      000000C8H   SFRSYM    DATA     BYTE      T2CON
      00000092H   SFRSYM    DATA     BYTE      DPS
      000000F8H.5 SFRSYM    DATA     BIT       WEN
      000000F8H   SFRSYM    DATA     BYTE      FSR
      000000D4H   SFRSYM    DATA     BYTE      ADCDATH
      000000C9H   SFRSYM    DATA     BYTE      MPAGE
      000000B8H.2 SFRSYM    DATA     BIT       SPI
      000000F8H.1 SFRSYM    DATA     BIT       RDEND
      000000D5H   SFRSYM    DATA     BYTE      ADCDATL
      000000F8H.3 SFRSYM    DATA     BIT       INFEN
      000000F8H.7 SFRSYM    DATA     BIT       MCDIS
      000000C0H.5 SFRSYM    DATA     BIT       WUF
      000000C0H.4 SFRSYM    DATA     BIT       MISCF
      000000EFH   SFRSYM    DATA     BYTE      ARCON
      000000D0H.5 SFRSYM    DATA     BIT       F0
      000000F8H.6 SFRSYM    DATA     BIT       STP
      000000FEH   SFRSYM    DATA     BYTE      SPIMSTAT
      00000080H.3 SFRSYM    DATA     BIT       LEDVM
      000000E8H   SFRSYM    DATA     BYTE      RFCON
      000000D0H   SFRSYM    DATA     BYTE      PSW
      00000098H.2 SFRSYM    DATA     BIT       RB80
      000000C0H   SFRSYM    DATA     BYTE      IRCON
      000000E8H.1 SFRSYM    DATA     BIT       RFCSN
      000000E6H   SFRSYM    DATA     BYTE      SPIRSTAT
      000000B3H   SFRSYM    DATA     BYTE      RTC2CON

      01000B59H   BLOCK     CODE     ---       LVL=0
      ---         BLOCKEND  ---      ---       LVL=0

      01001F76H   BLOCK     CODE     ---       LVL=0
      01001F76H   LINE      CODE     ---       #8
      01001F76H   LINE      CODE     ---       #9
      01001F78H   LINE      CODE     ---       #10
      01001F7AH   LINE      CODE     ---       #11
      01001F7CH   LINE      CODE     ---       #12
      01001F7EH   LINE      CODE     ---       #13
      01001F81H   LINE      CODE     ---       #14
      01001F84H   LINE      CODE     ---       #16
      01001F87H   LINE      CODE     ---       #17
LX51 LINKER/LOCATER V4.66.62.0                                                        11/17/2016  16:14:32  PAGE 24


      01001F8AH   LINE      CODE     ---       #18
      01001F8CH   LINE      CODE     ---       #19
      01001F8FH   LINE      CODE     ---       #20
      ---         BLOCKEND  ---      ---       LVL=0

      01002083H   BLOCK     CODE     VOID      LVL=0
      ---         BLOCKEND  ---      ---       LVL=0

      0100208CH   BLOCK     CODE     ---       LVL=0
      00000007H   SYMBOL    DATA     BYTE      x
      0100208CH   LINE      CODE     ---       #22
      0100208CH   LINE      CODE     ---       #23
      0100208FH   LINE      CODE     ---       #24
      01002091H   LINE      CODE     ---       #25
      01002093H   LINE      CODE     ---       #26
      ---         BLOCKEND  ---      ---       LVL=0

      01001F07H   BLOCK     CODE     ---       LVL=0
      0000004DH   SYMBOL    DATA     ---       s
      01001F07H   LINE      CODE     ---       #29
      01001F0DH   LINE      CODE     ---       #30
      01001F18H   LINE      CODE     ---       #31
      01001F22H   LINE      CODE     ---       #32
      ---         BLOCKEND  ---      ---       LVL=0

      01002302H   BLOCK     CODE     ---       LVL=0
      00000007H   SYMBOL    DATA     BYTE      value
      01002302H   LINE      CODE     ---       #32
      01002302H   LINE      CODE     ---       #33
      01002302H   LINE      CODE     ---       #34
      01002304H   LINE      CODE     ---       #36
      01002309H   LINE      CODE     ---       #38
      0100230BH   LINE      CODE     ---       #39
      ---         BLOCKEND  ---      ---       LVL=0

      01002002H   BLOCK     CODE     ---       LVL=0
      00000007H   SYMBOL    DATA     BYTE      reg
      00000006H   SYMBOL    DATA     BYTE      value
      01002004H   BLOCK     CODE     NEAR LAB  LVL=1
      00000005H   SYMBOL    DATA     BYTE      status
      ---         BLOCKEND  ---      ---       LVL=1
      01002002H   LINE      CODE     ---       #41
      01002004H   LINE      CODE     ---       #42
      01002004H   LINE      CODE     ---       #45
      01002006H   LINE      CODE     ---       #46
      0100200BH   LINE      CODE     ---       #47
      01002010H   LINE      CODE     ---       #48
      01002012H   LINE      CODE     ---       #50
      01002014H   LINE      CODE     ---       #51
      ---         BLOCKEND  ---      ---       LVL=0

      0100221FH   BLOCK     CODE     ---       LVL=0
      00000007H   SYMBOL    DATA     BYTE      reg
      0100221FH   BLOCK     CODE     NEAR LAB  LVL=1
      00000007H   SYMBOL    DATA     BYTE      reg_val
      ---         BLOCKEND  ---      ---       LVL=1
      0100221FH   LINE      CODE     ---       #53
      0100221FH   LINE      CODE     ---       #54
      0100221FH   LINE      CODE     ---       #57
      01002221H   LINE      CODE     ---       #58
      01002224H   LINE      CODE     ---       #59
      01002229H   LINE      CODE     ---       #60
      0100222BH   LINE      CODE     ---       #62
      0100222BH   LINE      CODE     ---       #63
      ---         BLOCKEND  ---      ---       LVL=0
LX51 LINKER/LOCATER V4.66.62.0                                                        11/17/2016  16:14:32  PAGE 25



      01001E31H   BLOCK     CODE     ---       LVL=0
      00000007H   SYMBOL    DATA     BYTE      reg
      00000039H   SYMBOL    DATA     ---       pBuf
      0000003CH   SYMBOL    DATA     BYTE      bytes
      01001E37H   BLOCK     CODE     NEAR LAB  LVL=1
      00000006H   SYMBOL    DATA     BYTE      status
      00000005H   SYMBOL    DATA     BYTE      byte_ctr
      ---         BLOCKEND  ---      ---       LVL=1
      01001E31H   LINE      CODE     ---       #65
      01001E37H   LINE      CODE     ---       #66
      01001E37H   LINE      CODE     ---       #69
      01001E37H   LINE      CODE     ---       #70
      01001E37H   LINE      CODE     ---       #72
      01001E40H   LINE      CODE     ---       #73
      01001E57H   LINE      CODE     ---       #75
      01001E59H   LINE      CODE     ---       #77
      01001E5BH   LINE      CODE     ---       #78
      ---         BLOCKEND  ---      ---       LVL=0

      01001EE8H   BLOCK     CODE     ---       LVL=0
      00000007H   SYMBOL    DATA     BYTE      reg
      0000002AH   SYMBOL    DATA     ---       pBuf
      0000002DH   SYMBOL    DATA     BYTE      bytes
      01001EEEH   BLOCK     CODE     NEAR LAB  LVL=1
      00000006H   SYMBOL    DATA     BYTE      status
      00000005H   SYMBOL    DATA     BYTE      byte_ctr
      ---         BLOCKEND  ---      ---       LVL=1
      01001EE8H   LINE      CODE     ---       #80
      01001EEEH   LINE      CODE     ---       #81
      01001EEEH   LINE      CODE     ---       #84
      01001EEEH   LINE      CODE     ---       #85
      01001EEEH   LINE      CODE     ---       #86
      01001EF7H   LINE      CODE     ---       #87
      01001F02H   LINE      CODE     ---       #88
      01001F04H   LINE      CODE     ---       #89
      01001F06H   LINE      CODE     ---       #90
      ---         BLOCKEND  ---      ---       LVL=0

      01002094H   BLOCK     CODE     ---       LVL=0
      01002094H   LINE      CODE     ---       #93
      01002094H   LINE      CODE     ---       #94
      01002094H   LINE      CODE     ---       #95
      01002097H   LINE      CODE     ---       #96
      01002099H   LINE      CODE     ---       #97
      0100209BH   LINE      CODE     ---       #98
      010020A2H   LINE      CODE     ---       #99
      010020A4H   LINE      CODE     ---       #100
      ---         BLOCKEND  ---      ---       LVL=0

      01001DD9H   BLOCK     CODE     ---       LVL=0
      00000027H   SYMBOL    DATA     INT       payloadLength
      01001DD9H   LINE      CODE     ---       #102
      01001DDDH   LINE      CODE     ---       #103
      01001DDDH   LINE      CODE     ---       #104
      01001DDFH   LINE      CODE     ---       #105
      01001DE6H   LINE      CODE     ---       #106
      01001DEEH   LINE      CODE     ---       #107
      01001DFCH   LINE      CODE     ---       #109
      01001DFEH   LINE      CODE     ---       #110
      01001E04H   LINE      CODE     ---       #111
      ---         BLOCKEND  ---      ---       LVL=0

      0100184AH   BLOCK     CODE     ---       LVL=0
      0100184AH   LINE      CODE     ---       #114
LX51 LINKER/LOCATER V4.66.62.0                                                        11/17/2016  16:14:32  PAGE 26


      01001863H   LINE      CODE     ---       #116
      0100186AH   LINE      CODE     ---       #117
      0100186DH   LINE      CODE     ---       #118
      0100186DH   LINE      CODE     ---       #119
      0100187BH   LINE      CODE     ---       #120
      01001882H   LINE      CODE     ---       #121
      01001884H   LINE      CODE     ---       #122
      0100188EH   LINE      CODE     ---       #123
      01001893H   LINE      CODE     ---       #124
      01001893H   LINE      CODE     ---       #125
      01001895H   LINE      CODE     ---       #126
      0100189BH   LINE      CODE     ---       #127
      0100189DH   LINE      CODE     ---       #128
      0100189DH   LINE      CODE     ---       #129
      0100189DH   LINE      CODE     ---       #130
      010018A0H   LINE      CODE     ---       #131
      010018A7H   LINE      CODE     ---       #132
      010018AAH   LINE      CODE     ---       #133
      010018B1H   LINE      CODE     ---       #134
      010018B8H   LINE      CODE     ---       #135
      ---         BLOCKEND  ---      ---       LVL=0

      01001C3BH   BLOCK     CODE     ---       LVL=0
      01001C3BH   LINE      CODE     ---       #138
      01001C3BH   LINE      CODE     ---       #139
      01001C3BH   LINE      CODE     ---       #140
      01001C3DH   LINE      CODE     ---       #141
      01001C3FH   LINE      CODE     ---       #143
      01001C47H   LINE      CODE     ---       #144
      01001C4FH   LINE      CODE     ---       #145
      01001C56H   LINE      CODE     ---       #147
      01001C5DH   LINE      CODE     ---       #148
      01001C64H   LINE      CODE     ---       #149
      01001C6BH   LINE      CODE     ---       #150
      01001C72H   LINE      CODE     ---       #152
      01001C79H   LINE      CODE     ---       #153
      ---         BLOCKEND  ---      ---       LVL=0

      0100222CH   BLOCK     CODE     ---       LVL=0
      0100222CH   LINE      CODE     ---       #157
      0100222CH   LINE      CODE     ---       #159
      0100222EH   LINE      CODE     ---       #160
      01002230H   LINE      CODE     ---       #161
      01002232H   LINE      CODE     ---       #162
      01002235H   LINE      CODE     ---       #163
      ---         BLOCKEND  ---      ---       LVL=0

      01001B9AH   BLOCK     CODE     ---       LVL=0
      00000007H   SYMBOL    DATA     BYTE      packet_type
      00000023H   SYMBOL    DATA     ---       data_to_send
      00000026H   SYMBOL    DATA     BYTE      data_len
      01001BA0H   BLOCK     CODE     NEAR LAB  LVL=1
      00000006H   SYMBOL    DATA     WORD      i
      ---         BLOCKEND  ---      ---       LVL=1
      01001B9AH   LINE      CODE     ---       #34
      01001BA0H   LINE      CODE     ---       #36
      01001BA5H   LINE      CODE     ---       #37
      01001BA9H   LINE      CODE     ---       #38
      01001BB8H   LINE      CODE     ---       #39
      01001BD8H   LINE      CODE     ---       #40
      01001BDFH   LINE      CODE     ---       #41
      01001BEAH   LINE      CODE     ---       #42
      ---         BLOCKEND  ---      ---       LVL=0

      01001D6FH   BLOCK     CODE     ---       LVL=0
LX51 LINKER/LOCATER V4.66.62.0                                                        11/17/2016  16:14:32  PAGE 27


      00000006H   SYMBOL    DATA     BYTE      packet_type
      00000044H   SYMBOL    DATA     ---       data_to_send
      00000047H   SYMBOL    DATA     BYTE      data_len
      01001D75H   BLOCK     CODE     NEAR LAB  LVL=1
      00000004H   SYMBOL    DATA     WORD      i
      ---         BLOCKEND  ---      ---       LVL=1
      01001D6FH   LINE      CODE     ---       #47
      01001D75H   LINE      CODE     ---       #49
      01001D75H   LINE      CODE     ---       #50
      01001D78H   LINE      CODE     ---       #51
      01001D7DH   LINE      CODE     ---       #52
      01001D90H   LINE      CODE     ---       #53
      01001D96H   LINE      CODE     ---       #54
      01001D9FH   LINE      CODE     ---       #55
      ---         BLOCKEND  ---      ---       LVL=0

      01001DA4H   BLOCK     CODE     ---       LVL=0
      00000006H   SYMBOL    DATA     BYTE      packet_type
      00000049H   SYMBOL    DATA     ---       data_to_send
      0000004CH   SYMBOL    DATA     BYTE      data_len
      01001DAAH   BLOCK     CODE     NEAR LAB  LVL=1
      00000004H   SYMBOL    DATA     WORD      i
      ---         BLOCKEND  ---      ---       LVL=1
      01001DA4H   LINE      CODE     ---       #59
      01001DAAH   LINE      CODE     ---       #61
      01001DAAH   LINE      CODE     ---       #62
      01001DADH   LINE      CODE     ---       #63
      01001DB4H   LINE      CODE     ---       #64
      01001DB9H   LINE      CODE     ---       #65
      01001DC5H   LINE      CODE     ---       #66
      01001DCBH   LINE      CODE     ---       #67
      01001DD4H   LINE      CODE     ---       #68
      ---         BLOCKEND  ---      ---       LVL=0

      010020C7H   BLOCK     CODE     ---       LVL=0
      010020C7H   LINE      CODE     ---       #25
      010020C9H   LINE      CODE     ---       #27
      010020C9H   LINE      CODE     ---       #28
      010020C9H   LINE      CODE     ---       #29
      010020D1H   LINE      CODE     ---       #30
      010020D1H   LINE      CODE     ---       #31
      010020D4H   LINE      CODE     ---       #32
      010020D4H   LINE      CODE     ---       #33
      ---         BLOCKEND  ---      ---       LVL=0

      0100230CH   BLOCK     CODE     ---       LVL=0
      0100230CH   LINE      CODE     ---       #35
      0100230CH   LINE      CODE     ---       #36
      0100230CH   LINE      CODE     ---       #37
      0100230CH   LINE      CODE     ---       #38
      0100230CH   LINE      CODE     ---       #39
      0100230FH   LINE      CODE     ---       #40
      01002311H   LINE      CODE     ---       #41
      01002313H   LINE      CODE     ---       #42
      01002315H   LINE      CODE     ---       #43
      ---         BLOCKEND  ---      ---       LVL=0

      01002316H   BLOCK     CODE     ---       LVL=0
      01002316H   LINE      CODE     ---       #45
      01002316H   LINE      CODE     ---       #46
      01002316H   LINE      CODE     ---       #47
      01002316H   LINE      CODE     ---       #48
      01002316H   LINE      CODE     ---       #49
      01002319H   LINE      CODE     ---       #50
      0100231BH   LINE      CODE     ---       #51
LX51 LINKER/LOCATER V4.66.62.0                                                        11/17/2016  16:14:32  PAGE 28


      0100231DH   LINE      CODE     ---       #52
      0100231FH   LINE      CODE     ---       #53
      ---         BLOCKEND  ---      ---       LVL=0

      01002268H   BLOCK     CODE     ---       LVL=0
      01002268H   LINE      CODE     ---       #20
      01002268H   LINE      CODE     ---       #21
      ---         BLOCKEND  ---      ---       LVL=0

      01002107H   BLOCK     CODE     ---       LVL=0
      00000007H   SYMBOL    DATA     BYTE      source
      01002107H   LINE      CODE     ---       #23
      01002107H   LINE      CODE     ---       #24
      ---         BLOCKEND  ---      ---       LVL=0

      01002115H   BLOCK     CODE     ---       LVL=0
      00000007H   SYMBOL    DATA     BYTE      range
      01002115H   LINE      CODE     ---       #26
      01002115H   LINE      CODE     ---       #27
      ---         BLOCKEND  ---      ---       LVL=0

      01002123H   BLOCK     CODE     ---       LVL=0
      00000007H   SYMBOL    DATA     BYTE      range
      01002123H   LINE      CODE     ---       #29
      01002123H   LINE      CODE     ---       #30
      ---         BLOCKEND  ---      ---       LVL=0

      01002273H   BLOCK     CODE     ---       LVL=0
      00000007H   SYMBOL    DATA     BYTE      enabled
      01002273H   LINE      CODE     ---       #32
      01002273H   LINE      CODE     ---       #33
      ---         BLOCKEND  ---      ---       LVL=0

      01001FDAH   BLOCK     CODE     ---       LVL=0
      01001FDAH   LINE      CODE     ---       #35
      01001FDAH   LINE      CODE     ---       #36
      01001FDFH   LINE      CODE     ---       #37
      01001FE4H   LINE      CODE     ---       #38
      01001FE9H   LINE      CODE     ---       #39
      ---         BLOCKEND  ---      ---       LVL=0

      01001FC4H   BLOCK     CODE     ---       LVL=0
      01001FC4H   LINE      CODE     ---       #41
      01001FC4H   LINE      CODE     ---       #42
      01001FCEH   LINE      CODE     ---       #43
      01001FD9H   LINE      CODE     ---       #44
      ---         BLOCKEND  ---      ---       LVL=0

      010015E8H   BLOCK     CODE     ---       LVL=0
      020002B5H   SYMBOL    XDATA    ---       packet6
      010015E8H   LINE      CODE     ---       #45
      010015F0H   LINE      CODE     ---       #46
      01001602H   LINE      CODE     ---       #47
      01001615H   LINE      CODE     ---       #48
      0100161CH   LINE      CODE     ---       #49
      01001624H   LINE      CODE     ---       #50
      0100162DH   LINE      CODE     ---       #51
      01001638H   LINE      CODE     ---       #52
      01001643H   LINE      CODE     ---       #53
      0100164EH   LINE      CODE     ---       #54
      01001659H   LINE      CODE     ---       #55
      01001664H   LINE      CODE     ---       #56
      0100166FH   LINE      CODE     ---       #57
      0100167AH   LINE      CODE     ---       #58
      01001685H   LINE      CODE     ---       #59
LX51 LINKER/LOCATER V4.66.62.0                                                        11/17/2016  16:14:32  PAGE 29


      ---         BLOCKEND  ---      ---       LVL=0

      010023C0H   BLOCK     CODE     ---       LVL=0
      00000006H   SYMBOL    DATA     INT       offset
      010023C0H   LINE      CODE     ---       #60
      010023C0H   LINE      CODE     ---       #61
      ---         BLOCKEND  ---      ---       LVL=0

      010023C8H   BLOCK     CODE     ---       LVL=0
      00000006H   SYMBOL    DATA     INT       offset
      010023C8H   LINE      CODE     ---       #63
      010023C8H   LINE      CODE     ---       #64
      ---         BLOCKEND  ---      ---       LVL=0

      010023D0H   BLOCK     CODE     ---       LVL=0
      00000006H   SYMBOL    DATA     INT       offset
      010023D0H   LINE      CODE     ---       #66
      010023D0H   LINE      CODE     ---       #67
      ---         BLOCKEND  ---      ---       LVL=0

      010023D8H   BLOCK     CODE     ---       LVL=0
      00000006H   SYMBOL    DATA     INT       offset
      010023D8H   LINE      CODE     ---       #69
      010023D8H   LINE      CODE     ---       #70
      ---         BLOCKEND  ---      ---       LVL=0

      0100227EH   BLOCK     CODE     ---       LVL=0
      00000006H   SYMBOL    DATA     INT       offset
      0100227EH   LINE      CODE     ---       #72
      0100227EH   LINE      CODE     ---       #73
      ---         BLOCKEND  ---      ---       LVL=0

      01002289H   BLOCK     CODE     ---       LVL=0
      00000006H   SYMBOL    DATA     INT       offset
      01002289H   LINE      CODE     ---       #75
      01002289H   LINE      CODE     ---       #76
      ---         BLOCKEND  ---      ---       LVL=0

      01002131H   BLOCK     CODE     ---       LVL=0
      01002131H   LINE      CODE     ---       #79
      01002131H   LINE      CODE     ---       #80
      0100213BH   LINE      CODE     ---       #81
      0100213EH   LINE      CODE     ---       #82
      ---         BLOCKEND  ---      ---       LVL=0

      0100213FH   BLOCK     CODE     ---       LVL=0
      0100213FH   LINE      CODE     ---       #83
      0100213FH   LINE      CODE     ---       #84
      01002149H   LINE      CODE     ---       #85
      0100214CH   LINE      CODE     ---       #86
      ---         BLOCKEND  ---      ---       LVL=0

      0100214DH   BLOCK     CODE     ---       LVL=0
      0100214DH   LINE      CODE     ---       #87
      0100214DH   LINE      CODE     ---       #88
      01002157H   LINE      CODE     ---       #89
      0100215AH   LINE      CODE     ---       #90
      ---         BLOCKEND  ---      ---       LVL=0

      0100215BH   BLOCK     CODE     ---       LVL=0
      0100215BH   LINE      CODE     ---       #91
      0100215BH   LINE      CODE     ---       #92
      01002165H   LINE      CODE     ---       #93
      01002168H   LINE      CODE     ---       #94
      ---         BLOCKEND  ---      ---       LVL=0
LX51 LINKER/LOCATER V4.66.62.0                                                        11/17/2016  16:14:32  PAGE 30



      01002169H   BLOCK     CODE     ---       LVL=0
      01002169H   LINE      CODE     ---       #95
      01002169H   LINE      CODE     ---       #96
      01002173H   LINE      CODE     ---       #97
      01002176H   LINE      CODE     ---       #98
      ---         BLOCKEND  ---      ---       LVL=0

      01002177H   BLOCK     CODE     ---       LVL=0
      01002177H   LINE      CODE     ---       #99
      01002177H   LINE      CODE     ---       #100
      01002181H   LINE      CODE     ---       #101
      01002184H   LINE      CODE     ---       #102
      ---         BLOCKEND  ---      ---       LVL=0

      01001F5BH   BLOCK     CODE     ---       LVL=0
      00000007H   SYMBOL    DATA     BYTE      bank
      00000005H   SYMBOL    DATA     BYTE      prefetchEnabled
      00000003H   SYMBOL    DATA     BYTE      userBank
      01001F5BH   LINE      CODE     ---       #104
      01001F5BH   LINE      CODE     ---       #105
      01001F5FH   LINE      CODE     ---       #106
      01001F66H   LINE      CODE     ---       #107
      01001F6DH   LINE      CODE     ---       #108
      ---         BLOCKEND  ---      ---       LVL=0

      01002185H   BLOCK     CODE     ---       LVL=0
      01002185H   LINE      CODE     ---       #111
      01002185H   LINE      CODE     ---       #112
      0100218FH   LINE      CODE     ---       #113
      01002192H   LINE      CODE     ---       #114
      ---         BLOCKEND  ---      ---       LVL=0

      01002193H   BLOCK     CODE     ---       LVL=0
      01002193H   LINE      CODE     ---       #116
      01002193H   LINE      CODE     ---       #117
      0100219BH   LINE      CODE     ---       #118
      010021A0H   LINE      CODE     ---       #119
      ---         BLOCKEND  ---      ---       LVL=0

      01002294H   BLOCK     CODE     ---       LVL=0
      00000007H   SYMBOL    DATA     BYTE      enabled
      01002294H   LINE      CODE     ---       #121
      01002294H   LINE      CODE     ---       #122
      ---         BLOCKEND  ---      ---       LVL=0

      01002238H   BLOCK     CODE     ---       LVL=0
      01002238H   LINE      CODE     ---       #125
      01002238H   LINE      CODE     ---       #126
      ---         BLOCKEND  ---      ---       LVL=0

      01002366H   BLOCK     CODE     ---       LVL=0
      01002366H   LINE      CODE     ---       #129
      01002366H   LINE      CODE     ---       #130
      0100236EH   LINE      CODE     ---       #131
      ---         BLOCKEND  ---      ---       LVL=0

      01001E05H   BLOCK     CODE     ---       LVL=0
      02000350H   SYMBOL    XDATA    ---       data_ptr
      00000005H   SYMBOL    DATA     BYTE      data_len
      01001E05H   LINE      CODE     ---       #133
      01001E0BH   LINE      CODE     ---       #134
      01001E11H   LINE      CODE     ---       #135
      01001E26H   LINE      CODE     ---       #136
      01001E26H   LINE      CODE     ---       #137
LX51 LINKER/LOCATER V4.66.62.0                                                        11/17/2016  16:14:32  PAGE 31


      01001E30H   LINE      CODE     ---       #138
      01001E30H   LINE      CODE     ---       #139
      ---         BLOCKEND  ---      ---       LVL=0

      0100236FH   BLOCK     CODE     ---       LVL=0
      00000007H   SYMBOL    DATA     BYTE      address
      0100236FH   LINE      CODE     ---       #140
      0100236FH   LINE      CODE     ---       #141
      ---         BLOCKEND  ---      ---       LVL=0

      01000D81H   BLOCK     CODE     ---       LVL=0
      02000360H   SYMBOL    XDATA    ---       data_ptr
      02000363H   SYMBOL    XDATA    WORD      dataSize
      02000365H   SYMBOL    XDATA    BYTE      bank
      02000366H   SYMBOL    XDATA    BYTE      address
      02000367H   SYMBOL    XDATA    BYTE      verify
      02000368H   SYMBOL    XDATA    BYTE      useProgMem
      01000D8FH   BLOCK     CODE     NEAR LAB  LVL=1
      02000369H   SYMBOL    XDATA    BYTE      chunkSize_wmb
      0200036AH   SYMBOL    XDATA    ---       verifyBuffer_wmb
      0200036DH   SYMBOL    XDATA    ---       progBuffer_wmb
      02000370H   SYMBOL    XDATA    WORD      i_wmb
      00000007H   SYMBOL    DATA     BYTE      j_wmb
      ---         BLOCKEND  ---      ---       LVL=1
      01000D81H   LINE      CODE     ---       #145
      01000D8FH   LINE      CODE     ---       #149
      01000D95H   LINE      CODE     ---       #152
      01000D9FH   LINE      CODE     ---       #153
      01000DA7H   LINE      CODE     ---       #154
      01000DBAH   LINE      CODE     ---       #155
      01000DCFH   LINE      CODE     ---       #156
      01000DE8H   LINE      CODE     ---       #158
      01000DEBH   LINE      CODE     ---       #161
      01000E01H   LINE      CODE     ---       #164
      01000E15H   LINE      CODE     ---       #166
      01000E1BH   LINE      CODE     ---       #168
      01000E47H   LINE      CODE     ---       #169
      01000E47H   LINE      CODE     ---       #171
      01000E54H   LINE      CODE     ---       #172
      01000E54H   LINE      CODE     ---       #174
      01000E63H   LINE      CODE     ---       #177
      01000E74H   LINE      CODE     ---       #178
      01000E74H   LINE      CODE     ---       #179
      01000E77H   LINE      CODE     ---       #180
      01000E83H   LINE      CODE     ---       #181
      01000E9FH   LINE      CODE     ---       #182
      01000EA5H   LINE      CODE     ---       #183
      01000EB4H   LINE      CODE     ---       #184
      01000EB7H   LINE      CODE     ---       #185
      01000EB7H   LINE      CODE     ---       #186
      01000EB7H   LINE      CODE     ---       #189
      01000EC6H   LINE      CODE     ---       #192
      01000ECCH   LINE      CODE     ---       #195
      01000EE1H   LINE      CODE     ---       #196
      01000EEDH   LINE      CODE     ---       #197
      01000EEDH   LINE      CODE     ---       #198
      01000EF0H   LINE      CODE     ---       #199
      01000EF0H   LINE      CODE     ---       #200
      01000EF3H   LINE      CODE     ---       #201
      01000EFFH   LINE      CODE     ---       #202
      01000F0EH   LINE      CODE     ---       #203
      01000F10H   LINE      CODE     ---       #204
      ---         BLOCKEND  ---      ---       LVL=0

      01000F25H   BLOCK     CODE     ---       LVL=0
LX51 LINKER/LOCATER V4.66.62.0                                                        11/17/2016  16:14:32  PAGE 32


      02000350H   SYMBOL    XDATA    ---       data_ptr
      02000353H   SYMBOL    XDATA    WORD      dataSize
      02000355H   SYMBOL    XDATA    BYTE      useProgMem
      01000F33H   BLOCK     CODE     NEAR LAB  LVL=1
      02000356H   SYMBOL    XDATA    ---       progBuffer_wdcs
      02000359H   SYMBOL    XDATA    BYTE      success_wdcs
      0200035AH   SYMBOL    XDATA    BYTE      special_wdcs
      0200035BH   SYMBOL    XDATA    WORD      i_wdcs
      00000006H   SYMBOL    DATA     WORD      j_wdcs
      0200035DH   SYMBOL    XDATA    BYTE      bank_wdcs
      0200035EH   SYMBOL    XDATA    BYTE      offset_wdcs
      0200035FH   SYMBOL    XDATA    BYTE      length_wdcs
      ---         BLOCKEND  ---      ---       LVL=1
      01000F25H   LINE      CODE     ---       #209
      01000F33H   LINE      CODE     ---       #210
      01000F39H   LINE      CODE     ---       #214
      01000F3FH   LINE      CODE     ---       #215
      01000F49H   LINE      CODE     ---       #216
      01000F49H   LINE      CODE     ---       #221
      01000F65H   LINE      CODE     ---       #222
      01000F6FH   LINE      CODE     ---       #223
      01000F78H   LINE      CODE     ---       #224
      01000F81H   LINE      CODE     ---       #225
      01000F87H   LINE      CODE     ---       #226
      01000F89H   LINE      CODE     ---       #227
      01000F93H   LINE      CODE     ---       #228
      01000F9DH   LINE      CODE     ---       #229
      01000FA7H   LINE      CODE     ---       #230
      01000FA7H   LINE      CODE     ---       #233
      01000FB4H   LINE      CODE     ---       #235
      01000FB7H   LINE      CODE     ---       #236
      01000FCFH   LINE      CODE     ---       #237
      01001003H   LINE      CODE     ---       #238
      01001003H   LINE      CODE     ---       #239
      01001010H   LINE      CODE     ---       #240
      01001010H   LINE      CODE     ---       #241
      0100103CH   LINE      CODE     ---       #242
      0100104AH   LINE      CODE     ---       #243
      0100104CH   LINE      CODE     ---       #249
      01001055H   LINE      CODE     ---       #250
      01001062H   LINE      CODE     ---       #251
      01001064H   LINE      CODE     ---       #252
      0100106EH   LINE      CODE     ---       #253
      0100106EH   LINE      CODE     ---       #257
      01001075H   LINE      CODE     ---       #263
      0100107EH   LINE      CODE     ---       #265
      01001084H   LINE      CODE     ---       #266
      01001086H   LINE      CODE     ---       #268
      0100108BH   LINE      CODE     ---       #269
      0100108BH   LINE      CODE     ---       #270
      0100108BH   LINE      CODE     ---       #272
      01001094H   LINE      CODE     ---       #273
      010010A1H   LINE      CODE     ---       #274
      010010A4H   LINE      CODE     ---       #275
      010010A4H   LINE      CODE     ---       #276
      010010A4H   LINE      CODE     ---       #277
      010010B1H   LINE      CODE     ---       #278
      010010B3H   LINE      CODE     ---       #279
      ---         BLOCKEND  ---      ---       LVL=0

      0100152DH   BLOCK     CODE     ---       LVL=0
      02000350H   SYMBOL    XDATA    ---       data_ptr
      02000353H   SYMBOL    XDATA    WORD      dataSize
      02000355H   SYMBOL    XDATA    BYTE      bank
      02000356H   SYMBOL    XDATA    BYTE      address
LX51 LINKER/LOCATER V4.66.62.0                                                        11/17/2016  16:14:32  PAGE 33


      0100153BH   BLOCK     CODE     NEAR LAB  LVL=1
      02000357H   SYMBOL    XDATA    BYTE      chunkSize_rmb
      02000358H   SYMBOL    XDATA    WORD      i_rmb
      ---         BLOCKEND  ---      ---       LVL=1
      0100152DH   LINE      CODE     ---       #283
      0100153BH   LINE      CODE     ---       #286
      0100153CH   LINE      CODE     ---       #287
      0100153FH   LINE      CODE     ---       #288
      01001558H   LINE      CODE     ---       #290
      0100155BH   LINE      CODE     ---       #293
      0100156FH   LINE      CODE     ---       #296
      01001581H   LINE      CODE     ---       #299
      0100159CH   LINE      CODE     ---       #302
      010015A9H   LINE      CODE     ---       #305
      010015AFH   LINE      CODE     ---       #308
      010015C1H   LINE      CODE     ---       #309
      010015CDH   LINE      CODE     ---       #310
      010015D0H   LINE      CODE     ---       #311
      010015D3H   LINE      CODE     ---       #312
      010015D3H   LINE      CODE     ---       #313
      010015D6H   LINE      CODE     ---       #314
      ---         BLOCKEND  ---      ---       LVL=0

      01002320H   BLOCK     CODE     ---       LVL=0
      00000001H   SYMBOL    DATA     ---       data_ptr
      00000004H   SYMBOL    DATA     WORD      dataSize
      01002320H   LINE      CODE     ---       #317
      01002320H   LINE      CODE     ---       #318
      01002329H   LINE      CODE     ---       #319
      ---         BLOCKEND  ---      ---       LVL=0

      01001EC8H   BLOCK     CODE     ---       LVL=0
      00000001H   SYMBOL    DATA     ---       data_ptr
      00000004H   SYMBOL    DATA     WORD      dataSize
      02000355H   SYMBOL    XDATA    BYTE      bank
      02000356H   SYMBOL    XDATA    BYTE      address
      02000357H   SYMBOL    XDATA    BYTE      verify
      01001EC8H   LINE      CODE     ---       #320
      01001EC8H   LINE      CODE     ---       #321
      01001EE7H   LINE      CODE     ---       #322
      ---         BLOCKEND  ---      ---       LVL=0

      01002244H   BLOCK     CODE     ---       LVL=0
      01002244H   LINE      CODE     ---       #323
      01002244H   LINE      CODE     ---       #324
      ---         BLOCKEND  ---      ---       LVL=0

      01001F90H   BLOCK     CODE     ---       LVL=0
      00000007H   SYMBOL    DATA     BYTE      num
      00000006H   SYMBOL    DATA     BYTE      address
      01001F90H   LINE      CODE     ---       #326
      01001F92H   LINE      CODE     ---       #327
      01001F98H   LINE      CODE     ---       #328
      01001FA9H   LINE      CODE     ---       #329
      ---         BLOCKEND  ---      ---       LVL=0

      0100229FH   BLOCK     CODE     ---       LVL=0
      00000007H   SYMBOL    DATA     BYTE      enabled
      0100229FH   LINE      CODE     ---       #330
      0100229FH   LINE      CODE     ---       #331
      ---         BLOCKEND  ---      ---       LVL=0

      01002250H   BLOCK     CODE     ---       LVL=0
      01002250H   LINE      CODE     ---       #333
      01002250H   LINE      CODE     ---       #334
LX51 LINKER/LOCATER V4.66.62.0                                                        11/17/2016  16:14:32  PAGE 34


      ---         BLOCKEND  ---      ---       LVL=0

      01002378H   BLOCK     CODE     ---       LVL=0
      00000007H   SYMBOL    DATA     BYTE      enabled
      01002378H   LINE      CODE     ---       #336
      01002378H   LINE      CODE     ---       #337
      ---         BLOCKEND  ---      ---       LVL=0

      01002381H   BLOCK     CODE     ---       LVL=0
      00000007H   SYMBOL    DATA     BYTE      rate
      01002381H   LINE      CODE     ---       #339
      01002381H   LINE      CODE     ---       #340
      ---         BLOCKEND  ---      ---       LVL=0

      010021A1H   BLOCK     CODE     ---       LVL=0
      00000007H   SYMBOL    DATA     BYTE      sync_ext
      010021A1H   LINE      CODE     ---       #342
      010021A1H   LINE      CODE     ---       #343
      ---         BLOCKEND  ---      ---       LVL=0

      010021AFH   BLOCK     CODE     ---       LVL=0
      00000007H   SYMBOL    DATA     BYTE      mode
      010021AFH   LINE      CODE     ---       #345
      010021AFH   LINE      CODE     ---       #346
      ---         BLOCKEND  ---      ---       LVL=0

      010021BDH   BLOCK     CODE     ---       LVL=0
      010021BDH   LINE      CODE     ---       #350
      010021BDH   LINE      CODE     ---       #351
      010021C5H   LINE      CODE     ---       #352
      010021CAH   LINE      CODE     ---       #353
      ---         BLOCKEND  ---      ---       LVL=0

      0100238AH   BLOCK     CODE     ---       LVL=0
      00000007H   SYMBOL    DATA     BYTE      config
      0100238AH   LINE      CODE     ---       #354
      0100238AH   LINE      CODE     ---       #355
      ---         BLOCKEND  ---      ---       LVL=0

      010021CBH   BLOCK     CODE     ---       LVL=0
      010021CBH   LINE      CODE     ---       #360
      010021CBH   LINE      CODE     ---       #361
      010021D3H   LINE      CODE     ---       #362
      010021D8H   LINE      CODE     ---       #363
      ---         BLOCKEND  ---      ---       LVL=0

      01002393H   BLOCK     CODE     ---       LVL=0
      00000007H   SYMBOL    DATA     BYTE      config
      01002393H   LINE      CODE     ---       #364
      01002393H   LINE      CODE     ---       #365
      ---         BLOCKEND  ---      ---       LVL=0

      010020A5H   BLOCK     CODE     ---       LVL=0
      010020A5H   LINE      CODE     ---       #367
      010020A5H   LINE      CODE     ---       #368
      010020B0H   LINE      CODE     ---       #369
      010020B5H   LINE      CODE     ---       #370
      ---         BLOCKEND  ---      ---       LVL=0

      0100232AH   BLOCK     CODE     ---       LVL=0
      00000007H   SYMBOL    DATA     BYTE      enabled
      0100232AH   LINE      CODE     ---       #371
      0100232AH   LINE      CODE     ---       #372
      ---         BLOCKEND  ---      ---       LVL=0

LX51 LINKER/LOCATER V4.66.62.0                                                        11/17/2016  16:14:32  PAGE 35


      010020D7H   BLOCK     CODE     ---       LVL=0
      010020D7H   LINE      CODE     ---       #374
      010020D7H   LINE      CODE     ---       #375
      010020E1H   LINE      CODE     ---       #376
      010020E6H   LINE      CODE     ---       #377
      ---         BLOCKEND  ---      ---       LVL=0

      01002334H   BLOCK     CODE     ---       LVL=0
      00000007H   SYMBOL    DATA     CHAR      offset
      01002334H   LINE      CODE     ---       #378
      01002334H   LINE      CODE     ---       #379
      ---         BLOCKEND  ---      ---       LVL=0

      010020E7H   BLOCK     CODE     ---       LVL=0
      010020E7H   LINE      CODE     ---       #384
      010020E7H   LINE      CODE     ---       #385
      010020F1H   LINE      CODE     ---       #386
      010020F6H   LINE      CODE     ---       #387
      ---         BLOCKEND  ---      ---       LVL=0

      0100233EH   BLOCK     CODE     ---       LVL=0
      00000007H   SYMBOL    DATA     CHAR      offset
      0100233EH   LINE      CODE     ---       #388
      0100233EH   LINE      CODE     ---       #389
      ---         BLOCKEND  ---      ---       LVL=0

      010020F7H   BLOCK     CODE     ---       LVL=0
      010020F7H   LINE      CODE     ---       #394
      010020F7H   LINE      CODE     ---       #395
      01002101H   LINE      CODE     ---       #396
      01002106H   LINE      CODE     ---       #397
      ---         BLOCKEND  ---      ---       LVL=0

      01002348H   BLOCK     CODE     ---       LVL=0
      00000007H   SYMBOL    DATA     CHAR      offset
      01002348H   LINE      CODE     ---       #398
      01002348H   LINE      CODE     ---       #399
      ---         BLOCKEND  ---      ---       LVL=0

      010021D9H   BLOCK     CODE     ---       LVL=0
      010021D9H   LINE      CODE     ---       #402
      010021D9H   LINE      CODE     ---       #403
      010021E1H   LINE      CODE     ---       #404
      010021E6H   LINE      CODE     ---       #405
      ---         BLOCKEND  ---      ---       LVL=0

      0100239CH   BLOCK     CODE     ---       LVL=0
      00000007H   SYMBOL    DATA     BYTE      threshold
      0100239CH   LINE      CODE     ---       #406
      0100239CH   LINE      CODE     ---       #407
      ---         BLOCKEND  ---      ---       LVL=0

      010021E7H   BLOCK     CODE     ---       LVL=0
      010021E7H   LINE      CODE     ---       #409
      010021E7H   LINE      CODE     ---       #410
      010021EFH   LINE      CODE     ---       #411
      010021F4H   LINE      CODE     ---       #412
      ---         BLOCKEND  ---      ---       LVL=0

      010023A5H   BLOCK     CODE     ---       LVL=0
      00000007H   SYMBOL    DATA     BYTE      threshold
      010023A5H   LINE      CODE     ---       #414
      010023A5H   LINE      CODE     ---       #415
      ---         BLOCKEND  ---      ---       LVL=0

LX51 LINKER/LOCATER V4.66.62.0                                                        11/17/2016  16:14:32  PAGE 36


      010021F5H   BLOCK     CODE     ---       LVL=0
      010021F5H   LINE      CODE     ---       #417
      010021F5H   LINE      CODE     ---       #418
      010021FDH   LINE      CODE     ---       #419
      01002202H   LINE      CODE     ---       #420
      ---         BLOCKEND  ---      ---       LVL=0

      010023AEH   BLOCK     CODE     ---       LVL=0
      00000007H   SYMBOL    DATA     BYTE      duration
      010023AEH   LINE      CODE     ---       #422
      010023AEH   LINE      CODE     ---       #423
      ---         BLOCKEND  ---      ---       LVL=0

      01002015H   BLOCK     CODE     ---       LVL=0
      01002015H   LINE      CODE     ---       #426
      01002015H   LINE      CODE     ---       #427
      01002022H   LINE      CODE     ---       #428
      01002027H   LINE      CODE     ---       #429
      ---         BLOCKEND  ---      ---       LVL=0

      010023B7H   BLOCK     CODE     ---       LVL=0
      00000007H   SYMBOL    DATA     BYTE      duration
      010023B7H   LINE      CODE     ---       #431
      010023B7H   LINE      CODE     ---       #432
      ---         BLOCKEND  ---      ---       LVL=0

      0100203BH   BLOCK     CODE     ---       LVL=0
      0100203BH   LINE      CODE     ---       #434
      0100203BH   LINE      CODE     ---       #435
      01002047H   LINE      CODE     ---       #436
      0100204CH   LINE      CODE     ---       #437
      ---         BLOCKEND  ---      ---       LVL=0

      010022AAH   BLOCK     CODE     ---       LVL=0
      00000007H   SYMBOL    DATA     BYTE      enabled
      010022AAH   LINE      CODE     ---       #439
      010022AAH   LINE      CODE     ---       #440
      ---         BLOCKEND  ---      ---       LVL=0

      0100225CH   BLOCK     CODE     ---       LVL=0
      0100225CH   LINE      CODE     ---       #442
      0100225CH   LINE      CODE     ---       #443
      ---         BLOCKEND  ---      ---       LVL=0

      01000056H   BLOCK     CODE     ---       LVL=0
      01000056H   BLOCK     CODE     NEAR LAB  LVL=1
      020002B5H   SYMBOL    XDATA    BYTE      xgOffsetTC
      020002B6H   SYMBOL    XDATA    BYTE      ygOffsetTC
      020002B7H   SYMBOL    XDATA    BYTE      zgOffsetTC
      020002B8H   SYMBOL    XDATA    ---       dmpUpdate
      020002C8H   SYMBOL    XDATA    BYTE      j
      020002C9H   SYMBOL    XDATA    WORD      pos
      020002CBH   SYMBOL    XDATA    WORD      fifoCount
      020002CDH   SYMBOL    XDATA    ---       fifoBuffer
      0200034DH   SYMBOL    XDATA    BYTE      b
      0200034EH   SYMBOL    XDATA    BYTE      data_to_write
      0200034FH   SYMBOL    XDATA    BYTE      mask
      ---         BLOCKEND  ---      ---       LVL=1
      01000056H   LINE      CODE     ---       #447
      01000056H   LINE      CODE     ---       #450
      0100005DH   LINE      CODE     ---       #459
      01000064H   LINE      CODE     ---       #460
      01000067H   LINE      CODE     ---       #461
      0100006EH   LINE      CODE     ---       #471
      01000075H   LINE      CODE     ---       #472
LX51 LINKER/LOCATER V4.66.62.0                                                        11/17/2016  16:14:32  PAGE 37


      0100007AH   LINE      CODE     ---       #475
      01000081H   LINE      CODE     ---       #476
      0100008AH   LINE      CODE     ---       #478
      01000096H   LINE      CODE     ---       #479
      0100009BH   LINE      CODE     ---       #484
      010000A2H   LINE      CODE     ---       #485
      010000A9H   LINE      CODE     ---       #494
      010000B0H   LINE      CODE     ---       #495
      010000B8H   LINE      CODE     ---       #496
      010000C0H   LINE      CODE     ---       #497
      010000C8H   LINE      CODE     ---       #507
      010000D4H   LINE      CODE     ---       #508
      010000DBH   LINE      CODE     ---       #510
      010000E2H   LINE      CODE     ---       #511
      010000E7H   LINE      CODE     ---       #513
      010000EEH   LINE      CODE     ---       #515
      010000F1H   LINE      CODE     ---       #516
      010000F8H   LINE      CODE     ---       #523
      010000FFH   LINE      CODE     ---       #524
      0100011CH   LINE      CODE     ---       #526
      01000123H   LINE      CODE     ---       #531
      0100012AH   LINE      CODE     ---       #532
      0100013DH   LINE      CODE     ---       #534
      01000149H   LINE      CODE     ---       #536
      01000155H   LINE      CODE     ---       #537
      0100015AH   LINE      CODE     ---       #540
      01000161H   LINE      CODE     ---       #541
      01000166H   LINE      CODE     ---       #544
      01000172H   LINE      CODE     ---       #545
      01000177H   LINE      CODE     ---       #548
      01000183H   LINE      CODE     ---       #553
      01000189H   LINE      CODE     ---       #554
      01000195H   LINE      CODE     ---       #555
      0100019CH   LINE      CODE     ---       #556
      010001A3H   LINE      CODE     ---       #557
      010001A6H   LINE      CODE     ---       #558
      010001A8H   LINE      CODE     ---       #559
      010001AEH   LINE      CODE     ---       #560
      010001AEH   LINE      CODE     ---       #562
      010001B1H   LINE      CODE     ---       #563
      010001B7H   LINE      CODE     ---       #564
      010001C1H   LINE      CODE     ---       #565
      010001C5H   LINE      CODE     ---       #566
      010001D1H   LINE      CODE     ---       #567
      010001D3H   LINE      CODE     ---       #568
      010001D6H   LINE      CODE     ---       #570
      010001DDH   LINE      CODE     ---       #571
      010001E0H   LINE      CODE     ---       #572
      010001E2H   LINE      CODE     ---       #573
      010001E8H   LINE      CODE     ---       #574
      010001E8H   LINE      CODE     ---       #578
      010001EFH   LINE      CODE     ---       #580
      010001F6H   LINE      CODE     ---       #581
      010001FBH   LINE      CODE     ---       #584
      01000202H   LINE      CODE     ---       #585
      01000207H   LINE      CODE     ---       #588
      0100020EH   LINE      CODE     ---       #589
      01000213H   LINE      CODE     ---       #590
      01000218H   LINE      CODE     ---       #593
      0100021FH   LINE      CODE     ---       #594
      01000224H   LINE      CODE     ---       #597
      01000230H   LINE      CODE     ---       #601
      01000237H   LINE      CODE     ---       #602
      01000249H   LINE      CODE     ---       #603
      0100024CH   LINE      CODE     ---       #604
LX51 LINKER/LOCATER V4.66.62.0                                                        11/17/2016  16:14:32  PAGE 38


      0100024EH   LINE      CODE     ---       #605
      01000254H   LINE      CODE     ---       #606
      01000254H   LINE      CODE     ---       #608
      01000257H   LINE      CODE     ---       #609
      0100025AH   LINE      CODE     ---       #610
      01000261H   LINE      CODE     ---       #611
      01000265H   LINE      CODE     ---       #612
      01000271H   LINE      CODE     ---       #613
      01000275H   LINE      CODE     ---       #614
      01000278H   LINE      CODE     ---       #616
      01000289H   LINE      CODE     ---       #617
      0100028CH   LINE      CODE     ---       #618
      0100028EH   LINE      CODE     ---       #619
      01000294H   LINE      CODE     ---       #620
      01000294H   LINE      CODE     ---       #624
      0100029BH   LINE      CODE     ---       #625
      010002A2H   LINE      CODE     ---       #626
      010002A5H   LINE      CODE     ---       #627
      010002A7H   LINE      CODE     ---       #628
      010002ADH   LINE      CODE     ---       #629
      010002ADH   LINE      CODE     ---       #631
      010002B0H   LINE      CODE     ---       #632
      010002B3H   LINE      CODE     ---       #633
      010002B6H   LINE      CODE     ---       #634
      010002B6H   LINE      CODE     ---       #635
      010002B6H   LINE      CODE     ---       #636
      010002B6H   LINE      CODE     ---       #637
      010002B9H   LINE      CODE     ---       #639
      010002C0H   LINE      CODE     ---       #640
      010002C3H   LINE      CODE     ---       #641
      010002C5H   LINE      CODE     ---       #642
      010002CBH   LINE      CODE     ---       #643
      010002CBH   LINE      CODE     ---       #647
      010002D2H   LINE      CODE     ---       #648
      010002E4H   LINE      CODE     ---       #649
      010002E7H   LINE      CODE     ---       #650
      010002E9H   LINE      CODE     ---       #651
      010002EFH   LINE      CODE     ---       #652
      010002EFH   LINE      CODE     ---       #654
      010002F2H   LINE      CODE     ---       #655
      010002F5H   LINE      CODE     ---       #656
      010002F8H   LINE      CODE     ---       #657
      010002F8H   LINE      CODE     ---       #658
      010002F8H   LINE      CODE     ---       #659
      010002F8H   LINE      CODE     ---       #660
      010002FBH   LINE      CODE     ---       #662
      0100030CH   LINE      CODE     ---       #663
      0100030FH   LINE      CODE     ---       #664
      01000311H   LINE      CODE     ---       #665
      01000317H   LINE      CODE     ---       #666
      01000317H   LINE      CODE     ---       #675
      0100031EH   LINE      CODE     ---       #676
      01000332H   LINE      CODE     ---       #679
      01000335H   LINE      CODE     ---       #682
      0100033CH   LINE      CODE     ---       #683
      01000350H   LINE      CODE     ---       #685
      01000353H   LINE      CODE     ---       #688
      01000356H   LINE      CODE     ---       #691
      01000359H   LINE      CODE     ---       #696
      0100035CH   LINE      CODE     ---       #699
      01000361H   LINE      CODE     ---       #702
      01000366H   LINE      CODE     ---       #705
      0100036BH   LINE      CODE     ---       #708
      01000370H   LINE      CODE     ---       #711
      01000373H   LINE      CODE     ---       #714
LX51 LINKER/LOCATER V4.66.62.0                                                        11/17/2016  16:14:32  PAGE 39


      01000378H   LINE      CODE     ---       #717
      0100037DH   LINE      CODE     ---       #720
      01000380H   LINE      CODE     ---       #723
      01000387H   LINE      CODE     ---       #724
      0100039BH   LINE      CODE     ---       #725
      0100039EH   LINE      CODE     ---       #728
      010003A5H   LINE      CODE     ---       #729
      010003B9H   LINE      CODE     ---       #730
      010003BCH   LINE      CODE     ---       #733
      010003C3H   LINE      CODE     ---       #734
      010003D7H   LINE      CODE     ---       #735
      010003DAH   LINE      CODE     ---       #738
      010003DDH   LINE      CODE     ---       #739
      010003E9H   LINE      CODE     ---       #740
      010003EBH   LINE      CODE     ---       #741
      010003F0H   LINE      CODE     ---       #742
      010003F3H   LINE      CODE     ---       #743
      01000408H   LINE      CODE     ---       #744
      0100040AH   LINE      CODE     ---       #749
      0100040DH   LINE      CODE     ---       #757
      01000414H   LINE      CODE     ---       #758
      01000428H   LINE      CODE     ---       #759
      01000448H   LINE      CODE     ---       #762
      0100044BH   LINE      CODE     ---       #763
      01000450H   LINE      CODE     ---       #764
      0100045BH   LINE      CODE     ---       #765
      0100045DH   LINE      CODE     ---       #771
      0100046CH   LINE      CODE     ---       #779
      0100047AH   LINE      CODE     ---       #780
      0100048EH   LINE      CODE     ---       #781
      01000491H   LINE      CODE     ---       #786
      01000496H   LINE      CODE     ---       #789
      0100049FH   LINE      CODE     ---       #795
      010004A2H   LINE      CODE     ---       #796
      010004A5H   LINE      CODE     ---       #797
      010004A7H   LINE      CODE     ---       #799
      010004AEH   LINE      CODE     ---       #800
      010004B1H   LINE      CODE     ---       #801
      010004B1H   LINE      CODE     ---       #802
      010004B1H   LINE      CODE     ---       #804
      010004B8H   LINE      CODE     ---       #805
      010004BBH   LINE      CODE     ---       #806
      010004BBH   LINE      CODE     ---       #807
      010004C2H   LINE      CODE     ---       #808
      010004C4H   LINE      CODE     ---       #809
      ---         BLOCKEND  ---      ---       LVL=0

      010019BAH   BLOCK     CODE     ---       LVL=0
      0200037AH   SYMBOL    XDATA    ---       data_ptr
      0200037DH   SYMBOL    XDATA    ---       packet
      010019BAH   LINE      CODE     ---       #810
      010019C0H   LINE      CODE     ---       #812
      010019D5H   LINE      CODE     ---       #813
      010019ECH   LINE      CODE     ---       #814
      010019FEH   LINE      CODE     ---       #815
      01001A10H   LINE      CODE     ---       #816
      01001A29H   LINE      CODE     ---       #817
      01001A2BH   LINE      CODE     ---       #818
      ---         BLOCKEND  ---      ---       LVL=0

      010011B8H   BLOCK     CODE     ---       LVL=0
      020002B5H   SYMBOL    XDATA    ---       data_ptr
      020002B8H   SYMBOL    XDATA    ---       packet
      010011B8H   LINE      CODE     ---       #819
      010011BEH   LINE      CODE     ---       #822
LX51 LINKER/LOCATER V4.66.62.0                                                        11/17/2016  16:14:32  PAGE 40


      010011D7H   LINE      CODE     ---       #823
      010011EFH   LINE      CODE     ---       #824
      01001207H   LINE      CODE     ---       #825
      0100121FH   LINE      CODE     ---       #827
      01001237H   LINE      CODE     ---       #828
      0100124FH   LINE      CODE     ---       #829
      01001267H   LINE      CODE     ---       #831
      0100127FH   LINE      CODE     ---       #832
      01001297H   LINE      CODE     ---       #833
      010012B3H   LINE      CODE     ---       #834
      010012B5H   LINE      CODE     ---       #835
      ---         BLOCKEND  ---      ---       LVL=0

      01000006H   BLOCK     CODE     ---       LVL=0
      01000006H   LINE      CODE     ---       #53
      01000006H   LINE      CODE     ---       #55
      01000009H   LINE      CODE     ---       #56
      ---         BLOCKEND  ---      ---       LVL=0

      0100204DH   BLOCK     CODE     ---       LVL=0
      0100204DH   LINE      CODE     ---       #62
      0100204DH   LINE      CODE     ---       #64
      01002050H   LINE      CODE     ---       #65
      01002053H   LINE      CODE     ---       #66
      01002056H   LINE      CODE     ---       #67
      01002059H   LINE      CODE     ---       #69
      0100205CH   LINE      CODE     ---       #70
      0100205EH   LINE      CODE     ---       #71
      ---         BLOCKEND  ---      ---       LVL=0

      010012B6H   BLOCK     CODE     ---       LVL=0
      010012B6H   LINE      CODE     ---       #72
      010012B6H   LINE      CODE     ---       #73
      010012BDH   LINE      CODE     ---       #74
      010012C9H   LINE      CODE     ---       #75
      010012D1H   LINE      CODE     ---       #76
      010012D8H   LINE      CODE     ---       #77
      010012EDH   LINE      CODE     ---       #78
      01001302H   LINE      CODE     ---       #79
      0100130AH   LINE      CODE     ---       #80
      01001314H   LINE      CODE     ---       #81
      01001319H   LINE      CODE     ---       #82
      01001327H   LINE      CODE     ---       #83
      0100132FH   LINE      CODE     ---       #84
      0100133DH   LINE      CODE     ---       #85
      01001340H   LINE      CODE     ---       #86
      01001347H   LINE      CODE     ---       #87
      01001352H   LINE      CODE     ---       #88
      0100135DH   LINE      CODE     ---       #90
      0100135FH   LINE      CODE     ---       #91
      01001372H   LINE      CODE     ---       #92
      01001372H   LINE      CODE     ---       #93
      ---         BLOCKEND  ---      ---       LVL=0

      0100139DH   BLOCK     CODE     ---       LVL=0
      0100139DH   LINE      CODE     ---       #94
      0100139DH   LINE      CODE     ---       #95
      010013A0H   LINE      CODE     ---       #96
      010013A2H   LINE      CODE     ---       #97
      010013A5H   LINE      CODE     ---       #98
      010013A7H   LINE      CODE     ---       #99
      010013AAH   LINE      CODE     ---       #100
      010013AFH   LINE      CODE     ---       #101
      010013B4H   LINE      CODE     ---       #102
      010013C0H   LINE      CODE     ---       #103
LX51 LINKER/LOCATER V4.66.62.0                                                        11/17/2016  16:14:32  PAGE 41


      010013C3H   LINE      CODE     ---       #104
      010013C6H   LINE      CODE     ---       #105
      010013D2H   LINE      CODE     ---       #106
      010013DAH   LINE      CODE     ---       #107
      010013E1H   LINE      CODE     ---       #108
      010013E3H   LINE      CODE     ---       #109
      010013F0H   LINE      CODE     ---       #110
      010013F0H   LINE      CODE     ---       #111
      010013FFH   LINE      CODE     ---       #112
      01001414H   LINE      CODE     ---       #113
      01001429H   LINE      CODE     ---       #114
      01001438H   LINE      CODE     ---       #115
      0100143BH   LINE      CODE     ---       #116
      0100144AH   LINE      CODE     ---       #118
      ---         BLOCKEND  ---      ---       LVL=0

      01001686H   BLOCK     CODE     ---       LVL=0
      01001686H   LINE      CODE     ---       #121
      01001686H   LINE      CODE     ---       #125
      01001694H   LINE      CODE     ---       #126
      01001697H   LINE      CODE     ---       #127
      01001699H   LINE      CODE     ---       #130
      0100169CH   LINE      CODE     ---       #131
      010016A4H   LINE      CODE     ---       #134
      010016A7H   LINE      CODE     ---       #140
      010016BAH   LINE      CODE     ---       #143
      010016BDH   LINE      CODE     ---       #146
      010016C4H   LINE      CODE     ---       #149
      010016DBH   LINE      CODE     ---       #152
      010016EAH   LINE      CODE     ---       #156
      010016FDH   LINE      CODE     ---       #157
      0100170BH   LINE      CODE     ---       #160
      01001715H   LINE      CODE     ---       #161
      01001715H   LINE      CODE     ---       #162
      ---         BLOCKEND  ---      ---       LVL=0

      0100146BH   BLOCK     CODE     ---       LVL=0
      0100146BH   LINE      CODE     ---       #164
      0100146BH   LINE      CODE     ---       #165
      0100146EH   LINE      CODE     ---       #166
      0100146EH   LINE      CODE     ---       #167
      01001471H   LINE      CODE     ---       #168
      01001478H   LINE      CODE     ---       #169
      0100147FH   LINE      CODE     ---       #170
      0100148DH   LINE      CODE     ---       #171
      01001490H   LINE      CODE     ---       #172
      01001493H   LINE      CODE     ---       #173
      01001496H   LINE      CODE     ---       #174
      01001496H   LINE      CODE     ---       #175
      01001499H   LINE      CODE     ---       #176
      010014A0H   LINE      CODE     ---       #177
      010014A3H   LINE      CODE     ---       #178
      010014A5H   LINE      CODE     ---       #179
      010014ACH   LINE      CODE     ---       #180
      010014AFH   LINE      CODE     ---       #181
      010014B6H   LINE      CODE     ---       #182
      010014B6H   LINE      CODE     ---       #183
      010014B9H   LINE      CODE     ---       #185
      010014C1H   LINE      CODE     ---       #186
      010014CAH   LINE      CODE     ---       #187
      010014CAH   LINE      CODE     ---       #188
      010014D6H   LINE      CODE     ---       #189
      010014D9H   LINE      CODE     ---       #190
      010014DBH   LINE      CODE     ---       #191
      010014DBH   LINE      CODE     ---       #192
LX51 LINKER/LOCATER V4.66.62.0                                                        11/17/2016  16:14:32  PAGE 42


      010014DEH   LINE      CODE     ---       #193
      010014EAH   LINE      CODE     ---       #194
      010014ECH   LINE      CODE     ---       #195
      010014ECH   LINE      CODE     ---       #196
      010014ECH   LINE      CODE     ---       #197
      010014ECH   LINE      CODE     ---       #198
      010014EFH   LINE      CODE     ---       #199
      010014F1H   LINE      CODE     ---       #200
      010014F1H   LINE      CODE     ---       #202
      01001501H   LINE      CODE     ---       #203
      01001504H   LINE      CODE     ---       #204
      0100150AH   LINE      CODE     ---       #205
      0100150AH   LINE      CODE     ---       #206
      0100150DH   LINE      CODE     ---       #207
      ---         BLOCKEND  ---      ---       LVL=0

      01001F23H   BLOCK     CODE     ---       LVL=0
      01001F23H   LINE      CODE     ---       #208
      01001F23H   LINE      CODE     ---       #209
      01001F23H   LINE      CODE     ---       #210
      01001F23H   LINE      CODE     ---       #211
      01001F23H   LINE      CODE     ---       #212
      01001F26H   LINE      CODE     ---       #213
      01001F26H   LINE      CODE     ---       #214
      01001F26H   LINE      CODE     ---       #215
      01001F26H   LINE      CODE     ---       #216
      01001F29H   LINE      CODE     ---       #217
      01001F2BH   LINE      CODE     ---       #218
      ---         BLOCKEND  ---      ---       LVL=0

      01001CC2H   BLOCK     CODE     ---       LVL=0
      01001CC2H   LINE      CODE     ---       #221
      01001CDFH   LINE      CODE     ---       #222
      01001CE2H   LINE      CODE     ---       #223
      ---         BLOCKEND  ---      ---       LVL=0

      ---         MODULE    ---      ---       HAL_W2_ISR
      00000051H   PUBLIC    DATA     BYTE      w2_status
      00000050H   PUBLIC    DATA     BYTE      data_ready
      00000024H   PUBLIC    DATA     BYTE      ?_i2c_mpu_writeWords?BYTE
      01001B44H   PUBLIC    CODE     ---       _i2c_mpu_writeWords
      01002028H   PUBLIC    CODE     ---       _i2c_mpu_writeWord
      00000022H   PUBLIC    DATA     BYTE      ?_i2c_mpu_readBits?BYTE
      01001AECH   PUBLIC    CODE     ---       _i2c_mpu_readBits
      0000000FH   PUBLIC    DATA     BYTE      ?_i2c_mpu_readBit?BYTE
      01001E83H   PUBLIC    CODE     ---       _i2c_mpu_readBit
      00000022H   PUBLIC    DATA     BYTE      ?_i2c_mpu_writeBits?BYTE
      01001A2CH   PUBLIC    CODE     ---       _i2c_mpu_writeBits
      00000022H   PUBLIC    DATA     BYTE      ?_i2c_mpu_writeBit?BYTE
      01001BEDH   PUBLIC    CODE     ---       _i2c_mpu_writeBit
      0000002EH   PUBLIC    DATA     BYTE      ?_i2c_mpu_readBytes?BYTE
      01001A8FH   PUBLIC    CODE     ---       _i2c_mpu_readBytes
      01002071H   PUBLIC    CODE     ---       _i2c_mpu_readByte
      0000002AH   PUBLIC    DATA     BYTE      ?_i2c_mpu_writeBytes?BYTE
      01001CFDH   PUBLIC    CODE     ---       _i2c_mpu_writeBytes
      010020B6H   PUBLIC    CODE     ---       _i2c_mpu_writeByte
      01001947H   PUBLIC    CODE     ---       hal_w2_soft_reset
      0000003DH   PUBLIC    DATA     BYTE      ?_hal_w2_read?BYTE
      01001C80H   PUBLIC    CODE     ---       _hal_w2_read
      00000016H   PUBLIC    DATA     BYTE      ?_hal_w2_write?BYTE
      01001D37H   PUBLIC    CODE     ---       _hal_w2_write
      0100205FH   PUBLIC    CODE     ---       _hal_w2_init_transfer
      01001E5CH   PUBLIC    CODE     ---       hal_w2_wait_data_ready
      01001EA7H   PUBLIC    CODE     ---       _hal_w2_configure_master
      010022F7H   PUBLIC    CODE     ---       _hal_w2_all_irq_enable
LX51 LINKER/LOCATER V4.66.62.0                                                        11/17/2016  16:14:32  PAGE 43


      010022ECH   PUBLIC    CODE     ---       _hal_w2_enable
      010022E1H   PUBLIC    CODE     ---       _hal_w2_set_op_mode
      01002203H   PUBLIC    CODE     ---       _hal_w2_set_clk_freq
      010023E0H   PUBLIC    CODE     ---       _hal_w2_set_slave_address
      010022D6H   PUBLIC    CODE     ---       _hal_w2_irq_adr_match_enable
      010022CBH   PUBLIC    CODE     ---       _hal_w2_irq_stop_cond_enable
      010022C0H   PUBLIC    CODE     ---       _hal_w2_alter_clock
      010022B5H   PUBLIC    CODE     ---       _hal_w2_respond_to_gen_adr
      0100235CH   PUBLIC    CODE     ---       I2C_IRQ_handler
      01002352H   PUBLIC    CODE     ---       hal_w2_wait_data_ready_ISR
      00000098H.3 SFRSYM    DATA     BIT       TB80
      000000BEH   SFRSYM    DATA     BYTE      SPISSTAT
      000000C8H   SFRSYM    DATA     BIT       T2I0
      000000C3H   SFRSYM    DATA     BYTE      CCH1
      00000080H   SFRSYM    DATA     BYTE      P0
      000000C8H.1 SFRSYM    DATA     BIT       T2I1
      000000DFH   SFRSYM    DATA     BYTE      CCPDATO
      000000C5H   SFRSYM    DATA     BYTE      CCH2
      00000090H   SFRSYM    DATA     BYTE      P1
      000000C7H   SFRSYM    DATA     BYTE      CCH3
      000000A0H   SFRSYM    DATA     BYTE      P2
      00000098H.5 SFRSYM    DATA     BIT       SM20
      000000B0H   SFRSYM    DATA     BYTE      P3
      000000D0H.6 SFRSYM    DATA     BIT       AC
      000000C2H   SFRSYM    DATA     BYTE      CCL1
      000000C4H   SFRSYM    DATA     BYTE      CCL2
      000000D8H.7 SFRSYM    DATA     BIT       BD
      000000B8H   SFRSYM    DATA     BIT       RFSPI
      000000A8H.7 SFRSYM    DATA     BIT       EA
      000000CCH   SFRSYM    DATA     WORD      T2
      000000C6H   SFRSYM    DATA     BYTE      CCL3
      000000B7H   SFRSYM    DATA     BYTE      SPISRDSZ
      000000C8H.3 SFRSYM    DATA     BIT       T2R0
      000000C8H.4 SFRSYM    DATA     BIT       T2R1
      000000A8H   SFRSYM    DATA     BYTE      IEN0
      000000B8H   SFRSYM    DATA     BYTE      IEN1
      000000A5H   SFRSYM    DATA     BYTE      WUCON
      00000085H   SFRSYM    DATA     BYTE      DPH1
      000000DBH   SFRSYM    DATA     BYTE      COMPCON
      000000A3H   SFRSYM    DATA     BYTE      CLKCTRL
      00000084H   SFRSYM    DATA     BYTE      DPL1
      000000C8H.5 SFRSYM    DATA     BIT       I2FR
      000000B8H.3 SFRSYM    DATA     BIT       WUPIN
      000000C8H.6 SFRSYM    DATA     BIT       I3FR
      000000FFH   SFRSYM    DATA     BYTE      SPIMDAT
      000000C0H.7 SFRSYM    DATA     BIT       EXF2
      00000098H.4 SFRSYM    DATA     BIT       REN0
      000000C8H.2 SFRSYM    DATA     BIT       T2CM
      000000B8H.1 SFRSYM    DATA     BIT       RF
      000000B8H.5 SFRSYM    DATA     BIT       WUIRQ
      000000E7H   SFRSYM    DATA     BYTE      SPIRDAT
      000000C1H   SFRSYM    DATA     BYTE      CCEN
      000000E2H   SFRSYM    DATA     BYTE      W2CON0
      000000BFH   SFRSYM    DATA     BYTE      SPISDAT
      000000D0H.7 SFRSYM    DATA     BIT       CY
      000000E1H   SFRSYM    DATA     BYTE      W2CON1
      000000FBH   SFRSYM    DATA     BYTE      FDCR
      000000E8H   SFRSYM    DATA     BIT       RFCE
      000000CBH   SFRSYM    DATA     BYTE      CRCH
      00000081H   SFRSYM    DATA     BYTE      SP
      000000D0H.2 SFRSYM    DATA     BIT       OV
      000000CAH   SFRSYM    DATA     BYTE      CRCL
      000000ADH   SFRSYM    DATA     BYTE      CLKLFCTRL
      000000B1H   SFRSYM    DATA     BYTE      RSTREAS
      000000C8H.7 SFRSYM    DATA     BIT       T2PS
LX51 LINKER/LOCATER V4.66.62.0                                                        11/17/2016  16:14:32  PAGE 44


      000000F9H   SFRSYM    DATA     BYTE      FPCR
      000000B8H.4 SFRSYM    DATA     BIT       MISC
      000000A1H   SFRSYM    DATA     BYTE      PWMDC0
      000000B4H   SFRSYM    DATA     BYTE      RTC2CMP0
      000000A2H   SFRSYM    DATA     BYTE      PWMDC1
      000000B5H   SFRSYM    DATA     BYTE      RTC2CMP1
      00000080H   SFRSYM    DATA     BIT       P00
      000000BAH   SFRSYM    DATA     BYTE      S0RELH
      00000090H   SFRSYM    DATA     BIT       P10
      00000080H.1 SFRSYM    DATA     BIT       P01
      00000087H   SFRSYM    DATA     BYTE      PCON
      000000A0H   SFRSYM    DATA     BIT       P20
      00000090H.1 SFRSYM    DATA     BIT       P11
      00000080H.2 SFRSYM    DATA     BIT       P02
      000000B0H   SFRSYM    DATA     BIT       P30
      000000A0H.1 SFRSYM    DATA     BIT       P21
      00000090H.2 SFRSYM    DATA     BIT       P12
      00000080H.3 SFRSYM    DATA     BIT       P03
      000000C0H.2 SFRSYM    DATA     BIT       SPIF
      000000F8H.2 SFRSYM    DATA     BIT       RDIS
      000000B0H.1 SFRSYM    DATA     BIT       P31
      000000A0H.2 SFRSYM    DATA     BIT       P22
      00000090H.3 SFRSYM    DATA     BIT       P13
      00000080H.4 SFRSYM    DATA     BIT       P04
      000000AAH   SFRSYM    DATA     BYTE      S0RELL
      000000B0H.2 SFRSYM    DATA     BIT       P32
      000000A0H.3 SFRSYM    DATA     BIT       P23
      00000090H.4 SFRSYM    DATA     BIT       P14
      00000080H.5 SFRSYM    DATA     BIT       P05
      000000D9H   SFRSYM    DATA     BYTE      W2SADR
      00000089H   SFRSYM    DATA     BYTE      TMOD
      00000088H   SFRSYM    DATA     BYTE      TCON
      000000B0H.3 SFRSYM    DATA     BIT       P33
      000000A0H.4 SFRSYM    DATA     BIT       P24
      00000090H.5 SFRSYM    DATA     BIT       P15
      00000080H.6 SFRSYM    DATA     BIT       P06
      000000B0H.4 SFRSYM    DATA     BIT       P34
      000000A0H.5 SFRSYM    DATA     BIT       P25
      00000090H.6 SFRSYM    DATA     BIT       P16
      00000080H.7 SFRSYM    DATA     BIT       P07
      000000C2H   SFRSYM    DATA     WORD      CC1
      000000B0H.5 SFRSYM    DATA     BIT       P35
      000000A0H.6 SFRSYM    DATA     BIT       P26
      00000090H.7 SFRSYM    DATA     BIT       P17
      000000C4H   SFRSYM    DATA     WORD      CC2
      000000B0H.6 SFRSYM    DATA     BIT       P36
      000000A0H.7 SFRSYM    DATA     BIT       P27
      000000C6H   SFRSYM    DATA     WORD      CC3
      000000B0H.7 SFRSYM    DATA     BIT       P37
      000000E8H.2 SFRSYM    DATA     BIT       RFCKEN
      000000F8H   SFRSYM    DATA     BIT       WPEN
      000000DDH   SFRSYM    DATA     BYTE      CCPDATIA
      000000DEH   SFRSYM    DATA     BYTE      CCPDATIB
      00000088H.1 SFRSYM    DATA     BIT       IE0
      000000F8H.4 SFRSYM    DATA     BIT       RDYN
      00000088H.3 SFRSYM    DATA     BIT       IE1
      000000CFH   SFRSYM    DATA     BYTE      WUOPC0
      000000F0H   SFRSYM    DATA     BYTE      B
      000000E9H   SFRSYM    DATA     BYTE      MD0
      000000CEH   SFRSYM    DATA     BYTE      WUOPC1
      000000A7H   SFRSYM    DATA     BYTE      MEMCON
      000000EAH   SFRSYM    DATA     BYTE      MD1
      000000D7H   SFRSYM    DATA     BYTE      RNGDAT
      000000EBH   SFRSYM    DATA     BYTE      MD2
      000000ECH   SFRSYM    DATA     BYTE      MD3
LX51 LINKER/LOCATER V4.66.62.0                                                        11/17/2016  16:14:32  PAGE 45


      000000EDH   SFRSYM    DATA     BYTE      MD4
      000000AFH   SFRSYM    DATA     BYTE      WDSV
      000000EEH   SFRSYM    DATA     BYTE      MD5
      000000E0H   SFRSYM    DATA     BYTE      ACC
      000000DCH   SFRSYM    DATA     BYTE      POFCON
      000000A8H.4 SFRSYM    DATA     BIT       ES0
      000000A8H.1 SFRSYM    DATA     BIT       ET0
      000000A9H   SFRSYM    DATA     BYTE      IP0
      000000A8H.3 SFRSYM    DATA     BIT       ET1
      00000088H.5 SFRSYM    DATA     BIT       TF0
      000000B9H   SFRSYM    DATA     BYTE      IP1
      000000A8H.5 SFRSYM    DATA     BIT       ET2
      00000098H   SFRSYM    DATA     BIT       RI0
      00000088H.7 SFRSYM    DATA     BIT       TF1
      000000C0H   SFRSYM    DATA     BIT       RFSPIF
      000000C0H.6 SFRSYM    DATA     BIT       TF2
      000000FCH   SFRSYM    DATA     BYTE      SPIMCON0
      000000D6H   SFRSYM    DATA     BYTE      RNGCTL
      0000008CH   SFRSYM    DATA     BYTE      TH0
      000000A8H   SFRSYM    DATA     BIT       EX0
      00000098H.1 SFRSYM    DATA     BIT       TI0
      00000088H   SFRSYM    DATA     BIT       IT0
      000000FDH   SFRSYM    DATA     BYTE      SPIMCON1
      0000008DH   SFRSYM    DATA     BYTE      TH1
      000000A8H.2 SFRSYM    DATA     BIT       EX1
      00000088H.2 SFRSYM    DATA     BIT       IT1
      000000CDH   SFRSYM    DATA     BYTE      TH2
      000000AEH   SFRSYM    DATA     BYTE      OPMCON
      000000D0H   SFRSYM    DATA     BIT       P
      00000098H.7 SFRSYM    DATA     BIT       SM0
      0000008AH   SFRSYM    DATA     BYTE      TL0
      00000098H.6 SFRSYM    DATA     BIT       SM1
      000000E4H   SFRSYM    DATA     BYTE      SPIRCON0
      0000008BH   SFRSYM    DATA     BYTE      TL1
      000000E5H   SFRSYM    DATA     BYTE      SPIRCON1
      000000CCH   SFRSYM    DATA     BYTE      TL2
      000000BCH   SFRSYM    DATA     BYTE      SPISCON0
      000000BDH   SFRSYM    DATA     BYTE      SPISCON1
      000000D0H.3 SFRSYM    DATA     BIT       RS0
      00000088H.4 SFRSYM    DATA     BIT       TR0
      000000D0H.4 SFRSYM    DATA     BIT       RS1
      000000B2H   SFRSYM    DATA     BYTE      PWMCON
      00000088H.6 SFRSYM    DATA     BIT       TR1
      000000CAH   SFRSYM    DATA     WORD      CRC
      000000A6H   SFRSYM    DATA     BYTE      INTEXP
      000000C0H.3 SFRSYM    DATA     BIT       WUPINF
      000000FAH   SFRSYM    DATA     BYTE      FCR
      000000D3H   SFRSYM    DATA     BYTE      ADCCON1
      000000D2H   SFRSYM    DATA     BYTE      ADCCON2
      00000083H   SFRSYM    DATA     BYTE      DPH
      000000D1H   SFRSYM    DATA     BYTE      ADCCON3
      000000C0H.1 SFRSYM    DATA     BIT       RFF
      00000093H   SFRSYM    DATA     BYTE      P0DIR
      00000082H   SFRSYM    DATA     BYTE      DPL
      0000009EH   SFRSYM    DATA     BYTE      P0CON
      00000099H   SFRSYM    DATA     BYTE      S0BUF
      00000094H   SFRSYM    DATA     BYTE      P1DIR
      0000009FH   SFRSYM    DATA     BYTE      P1CON
      00000095H   SFRSYM    DATA     BYTE      P2DIR
      000000B8H.7 SFRSYM    DATA     BIT       EXEN2
      000000DAH   SFRSYM    DATA     BYTE      W2DAT
      00000097H   SFRSYM    DATA     BYTE      P2CON
      00000096H   SFRSYM    DATA     BYTE      P3DIR
      000000A4H   SFRSYM    DATA     BYTE      PWRDWN
      00000098H   SFRSYM    DATA     BYTE      S0CON
LX51 LINKER/LOCATER V4.66.62.0                                                        11/17/2016  16:14:32  PAGE 46


      0000008FH   SFRSYM    DATA     BYTE      P3CON
      000000B6H   SFRSYM    DATA     BYTE      RTC2CPT00
      000000D8H   SFRSYM    DATA     BYTE      ADCON
      000000ACH   SFRSYM    DATA     BYTE      RTC2CPT10
      000000ABH   SFRSYM    DATA     BYTE      RTC2CPT01
      000000C8H   SFRSYM    DATA     BYTE      T2CON
      00000092H   SFRSYM    DATA     BYTE      DPS
      000000F8H.5 SFRSYM    DATA     BIT       WEN
      000000F8H   SFRSYM    DATA     BYTE      FSR
      000000D4H   SFRSYM    DATA     BYTE      ADCDATH
      000000C9H   SFRSYM    DATA     BYTE      MPAGE
      000000B8H.2 SFRSYM    DATA     BIT       SPI
      000000F8H.1 SFRSYM    DATA     BIT       RDEND
      000000D5H   SFRSYM    DATA     BYTE      ADCDATL
      000000F8H.3 SFRSYM    DATA     BIT       INFEN
      000000F8H.7 SFRSYM    DATA     BIT       MCDIS
      000000C0H.5 SFRSYM    DATA     BIT       WUF
      000000C0H.4 SFRSYM    DATA     BIT       MISCF
      000000EFH   SFRSYM    DATA     BYTE      ARCON
      000000D0H.5 SFRSYM    DATA     BIT       F0
      000000F8H.6 SFRSYM    DATA     BIT       STP
      000000FEH   SFRSYM    DATA     BYTE      SPIMSTAT
      000000E8H   SFRSYM    DATA     BYTE      RFCON
      000000D0H   SFRSYM    DATA     BYTE      PSW
      00000098H.2 SFRSYM    DATA     BIT       RB80
      000000C0H   SFRSYM    DATA     BYTE      IRCON
      000000E8H.1 SFRSYM    DATA     BIT       RFCSN
      000000E6H   SFRSYM    DATA     BYTE      SPIRSTAT
      000000B3H   SFRSYM    DATA     BYTE      RTC2CON

      01002211H   BLOCK     CODE     ---       LVL=0
      ---         BLOCKEND  ---      ---       LVL=0

      01002352H   BLOCK     CODE     ---       LVL=0
      01002352H   LINE      CODE     ---       #39
      01002352H   LINE      CODE     ---       #40
      01002352H   LINE      CODE     ---       #41
      01002355H   LINE      CODE     ---       #42
      01002359H   LINE      CODE     ---       #43
      0100235BH   LINE      CODE     ---       #44
      ---         BLOCKEND  ---      ---       LVL=0

      0100235CH   BLOCK     CODE     ---       LVL=0
      0100235CH   LINE      CODE     ---       #45
      0100235CH   LINE      CODE     ---       #46
      0100235CH   LINE      CODE     ---       #48
      0100235FH   LINE      CODE     ---       #49
      01002365H   LINE      CODE     ---       #51
      ---         BLOCKEND  ---      ---       LVL=0

      010022B5H   BLOCK     CODE     ---       LVL=0
      00000007H   SYMBOL    DATA     BYTE      resp_gen
      010022B5H   LINE      CODE     ---       #52
      010022B5H   LINE      CODE     ---       #53
      010022B5H   LINE      CODE     ---       #54
      010022B8H   LINE      CODE     ---       #55
      010022B8H   LINE      CODE     ---       #56
      010022BBH   LINE      CODE     ---       #57
      010022BCH   LINE      CODE     ---       #59
      010022BCH   LINE      CODE     ---       #60
      010022BFH   LINE      CODE     ---       #61
      010022BFH   LINE      CODE     ---       #62
      ---         BLOCKEND  ---      ---       LVL=0

      010022C0H   BLOCK     CODE     ---       LVL=0
LX51 LINKER/LOCATER V4.66.62.0                                                        11/17/2016  16:14:32  PAGE 47


      00000007H   SYMBOL    DATA     BYTE      alt_clk
      010022C0H   LINE      CODE     ---       #64
      010022C0H   LINE      CODE     ---       #65
      010022C0H   LINE      CODE     ---       #66
      010022C3H   LINE      CODE     ---       #67
      010022C3H   LINE      CODE     ---       #68
      010022C6H   LINE      CODE     ---       #69
      010022C7H   LINE      CODE     ---       #71
      010022C7H   LINE      CODE     ---       #72
      010022CAH   LINE      CODE     ---       #73
      010022CAH   LINE      CODE     ---       #74
      ---         BLOCKEND  ---      ---       LVL=0

      010022CBH   BLOCK     CODE     ---       LVL=0
      00000007H   SYMBOL    DATA     BYTE      stop_cond
      010022CBH   LINE      CODE     ---       #76
      010022CBH   LINE      CODE     ---       #77
      010022CBH   LINE      CODE     ---       #78
      010022CEH   LINE      CODE     ---       #79
      010022CEH   LINE      CODE     ---       #80
      010022D1H   LINE      CODE     ---       #81
      010022D2H   LINE      CODE     ---       #83
      010022D2H   LINE      CODE     ---       #84
      010022D5H   LINE      CODE     ---       #85
      010022D5H   LINE      CODE     ---       #86
      ---         BLOCKEND  ---      ---       LVL=0

      010022D6H   BLOCK     CODE     ---       LVL=0
      00000007H   SYMBOL    DATA     BYTE      addr_match
      010022D6H   LINE      CODE     ---       #88
      010022D6H   LINE      CODE     ---       #89
      010022D6H   LINE      CODE     ---       #90
      010022D9H   LINE      CODE     ---       #91
      010022D9H   LINE      CODE     ---       #92
      010022DCH   LINE      CODE     ---       #93
      010022DDH   LINE      CODE     ---       #95
      010022DDH   LINE      CODE     ---       #96
      010022E0H   LINE      CODE     ---       #97
      010022E0H   LINE      CODE     ---       #98
      ---         BLOCKEND  ---      ---       LVL=0

      010023E0H   BLOCK     CODE     ---       LVL=0
      00000007H   SYMBOL    DATA     BYTE      address
      010023E0H   LINE      CODE     ---       #100
      010023E0H   LINE      CODE     ---       #101
      010023E0H   LINE      CODE     ---       #102
      010023E5H   LINE      CODE     ---       #103
      ---         BLOCKEND  ---      ---       LVL=0

      01002203H   BLOCK     CODE     ---       LVL=0
      00000007H   SYMBOL    DATA     BYTE      freq
      01002203H   LINE      CODE     ---       #107
      01002203H   LINE      CODE     ---       #108
      01002203H   LINE      CODE     ---       #109
      01002210H   LINE      CODE     ---       #110
      ---         BLOCKEND  ---      ---       LVL=0

      010022E1H   BLOCK     CODE     ---       LVL=0
      00000007H   SYMBOL    DATA     BYTE      mode
      010022E1H   LINE      CODE     ---       #112
      010022E1H   LINE      CODE     ---       #113
      010022E1H   LINE      CODE     ---       #114
      010022E4H   LINE      CODE     ---       #115
      010022E4H   LINE      CODE     ---       #116
      010022E7H   LINE      CODE     ---       #117
LX51 LINKER/LOCATER V4.66.62.0                                                        11/17/2016  16:14:32  PAGE 48


      010022E8H   LINE      CODE     ---       #119
      010022E8H   LINE      CODE     ---       #120
      010022EBH   LINE      CODE     ---       #121
      010022EBH   LINE      CODE     ---       #122
      ---         BLOCKEND  ---      ---       LVL=0

      010022ECH   BLOCK     CODE     ---       LVL=0
      00000007H   SYMBOL    DATA     BYTE      en
      010022ECH   LINE      CODE     ---       #124
      010022ECH   LINE      CODE     ---       #125
      010022ECH   LINE      CODE     ---       #126
      010022EFH   LINE      CODE     ---       #127
      010022EFH   LINE      CODE     ---       #128
      010022F2H   LINE      CODE     ---       #129
      010022F3H   LINE      CODE     ---       #131
      010022F3H   LINE      CODE     ---       #132
      010022F6H   LINE      CODE     ---       #133
      010022F6H   LINE      CODE     ---       #134
      ---         BLOCKEND  ---      ---       LVL=0

      010022F7H   BLOCK     CODE     ---       LVL=0
      00000007H   SYMBOL    DATA     BYTE      irq
      010022F7H   LINE      CODE     ---       #136
      010022F7H   LINE      CODE     ---       #137
      010022F7H   LINE      CODE     ---       #140
      010022FAH   LINE      CODE     ---       #141
      010022FAH   LINE      CODE     ---       #142
      010022FDH   LINE      CODE     ---       #143
      010022FEH   LINE      CODE     ---       #145
      010022FEH   LINE      CODE     ---       #146
      01002301H   LINE      CODE     ---       #147
      01002301H   LINE      CODE     ---       #148
      ---         BLOCKEND  ---      ---       LVL=0

      01001EA7H   BLOCK     CODE     ---       LVL=0
      00000006H   SYMBOL    DATA     BYTE      mode
      01001EA7H   LINE      CODE     ---       #150
      01001EA9H   LINE      CODE     ---       #151
      01001EA9H   LINE      CODE     ---       #152
      01001EAEH   LINE      CODE     ---       #153
      01001EB3H   LINE      CODE     ---       #154
      01001EB8H   LINE      CODE     ---       #156
      01001EBBH   LINE      CODE     ---       #157
      01001EBEH   LINE      CODE     ---       #158
      01001EC1H   LINE      CODE     ---       #160
      01001EC5H   LINE      CODE     ---       #161
      01001EC7H   LINE      CODE     ---       #162
      ---         BLOCKEND  ---      ---       LVL=0

      01001E5CH   BLOCK     CODE     ---       LVL=0
      01001E5CH   BLOCK     CODE     NEAR LAB  LVL=1
      00000008H   SYMBOL    DATA     DWORD     timeout_counter
      0000000CH   SYMBOL    DATA     BYTE      w2_status
      0000000DH   SYMBOL    DATA     BYTE      data_ready
      0000000EH   SYMBOL    DATA     BYTE      nack_received
      ---         BLOCKEND  ---      ---       LVL=1
      01001E5CH   LINE      CODE     ---       #164
      01001E5CH   LINE      CODE     ---       #165
      01001E5CH   LINE      CODE     ---       #166
      01001E66H   LINE      CODE     ---       #172
      01001E66H   LINE      CODE     ---       #173
      01001E69H   LINE      CODE     ---       #174
      01001E6FH   LINE      CODE     ---       #175
      01001E75H   LINE      CODE     ---       #176
      01001E7CH   LINE      CODE     ---       #177
LX51 LINKER/LOCATER V4.66.62.0                                                        11/17/2016  16:14:32  PAGE 49


      01001E80H   LINE      CODE     ---       #180
      01001E82H   LINE      CODE     ---       #181
      ---         BLOCKEND  ---      ---       LVL=0

      0100205FH   BLOCK     CODE     ---       LVL=0
      00000007H   SYMBOL    DATA     BYTE      address
      00000005H   SYMBOL    DATA     BYTE      direction
      0100205FH   BLOCK     CODE     NEAR LAB  LVL=1
      00000007H   SYMBOL    DATA     BYTE      w2_status
      ---         BLOCKEND  ---      ---       LVL=1
      0100205FH   LINE      CODE     ---       #183
      0100205FH   LINE      CODE     ---       #184
      0100205FH   LINE      CODE     ---       #187
      01002062H   LINE      CODE     ---       #188
      01002066H   LINE      CODE     ---       #190
      01002066H   LINE      CODE     ---       #192
      0100206EH   LINE      CODE     ---       #193
      0100206EH   LINE      CODE     ---       #194
      01002070H   LINE      CODE     ---       #195
      01002070H   LINE      CODE     ---       #197
      01002070H   LINE      CODE     ---       #198
      01002070H   LINE      CODE     ---       #199
      01002070H   LINE      CODE     ---       #200
      ---         BLOCKEND  ---      ---       LVL=0

      01001D37H   BLOCK     CODE     ---       LVL=0
      00000007H   SYMBOL    DATA     BYTE      address
      00000017H   SYMBOL    DATA     ---       data_ptr
      0000001AH   SYMBOL    DATA     BYTE      data_len
      01001D3DH   BLOCK     CODE     NEAR LAB  LVL=1
      00000006H   SYMBOL    DATA     BYTE      ack_received
      01001D51H   BLOCK     CODE     NEAR LAB  LVL=2
      0000001BH   SYMBOL    DATA     BYTE      w2_status
      ---         BLOCKEND  ---      ---       LVL=2
      ---         BLOCKEND  ---      ---       LVL=1
      01001D37H   LINE      CODE     ---       #202
      01001D3DH   LINE      CODE     ---       #203
      01001D3DH   LINE      CODE     ---       #205
      01001D44H   LINE      CODE     ---       #207
      01001D51H   LINE      CODE     ---       #208
      01001D51H   LINE      CODE     ---       #210
      01001D5BH   LINE      CODE     ---       #211
      01001D60H   LINE      CODE     ---       #212
      01001D65H   LINE      CODE     ---       #213
      01001D65H   LINE      CODE     ---       #214
      01001D67H   LINE      CODE     ---       #215
      01001D67H   LINE      CODE     ---       #216
      01001D69H   LINE      CODE     ---       #218
      01001D6CH   LINE      CODE     ---       #220
      01001D6EH   LINE      CODE     ---       #221
      ---         BLOCKEND  ---      ---       LVL=0

      01001C80H   BLOCK     CODE     ---       LVL=0
      00000007H   SYMBOL    DATA     BYTE      address
      0000003EH   SYMBOL    DATA     ---       data_ptr
      00000041H   SYMBOL    DATA     BYTE      data_len
      01001C86H   BLOCK     CODE     NEAR LAB  LVL=1
      00000007H   SYMBOL    DATA     BYTE      w2_status
      00000042H   SYMBOL    DATA     BYTE      ack_received
      ---         BLOCKEND  ---      ---       LVL=1
      01001C80H   LINE      CODE     ---       #223
      01001C86H   LINE      CODE     ---       #224
      01001C86H   LINE      CODE     ---       #228
      01001C8DH   LINE      CODE     ---       #230
      01001C91H   LINE      CODE     ---       #231
LX51 LINKER/LOCATER V4.66.62.0                                                        11/17/2016  16:14:32  PAGE 50


      01001C91H   LINE      CODE     ---       #233
      01001C94H   LINE      CODE     ---       #234
      01001C94H   LINE      CODE     ---       #237
      01001C9FH   LINE      CODE     ---       #238
      01001C9FH   LINE      CODE     ---       #239
      01001CA3H   LINE      CODE     ---       #240
      01001CA3H   LINE      CODE     ---       #241
      01001CA6H   LINE      CODE     ---       #242
      01001CA6H   LINE      CODE     ---       #244
      01001CA9H   LINE      CODE     ---       #246
      01001CB3H   LINE      CODE     ---       #247
      01001CBDH   LINE      CODE     ---       #248
      01001CBFH   LINE      CODE     ---       #250
      01001CC1H   LINE      CODE     ---       #251
      ---         BLOCKEND  ---      ---       LVL=0

      01001947H   BLOCK     CODE     ---       LVL=0
      01001947H   BLOCK     CODE     NEAR LAB  LVL=1
      00000036H   SYMBOL    DATA     BYTE      pulsecount
      00000037H   SYMBOL    DATA     BYTE      w2_freq
      ---         BLOCKEND  ---      ---       LVL=1
      01001947H   LINE      CODE     ---       #253
      01001947H   LINE      CODE     ---       #254
      01001947H   LINE      CODE     ---       #259
      0100194DH   LINE      CODE     ---       #261
      01001950H   LINE      CODE     ---       #262
      01001958H   LINE      CODE     ---       #266
      0100195BH   LINE      CODE     ---       #267
      0100195EH   LINE      CODE     ---       #270
      01001961H   LINE      CODE     ---       #275
      01001967H   LINE      CODE     ---       #278
      01001967H   LINE      CODE     ---       #280
      01001967H   LINE      CODE     ---       #284
      0100196AH   LINE      CODE     ---       #285
      0100196DH   LINE      CODE     ---       #286
      0100196DH   LINE      CODE     ---       #288
      01001973H   LINE      CODE     ---       #289
      01001973H   LINE      CODE     ---       #291
      01001973H   LINE      CODE     ---       #292
      01001976H   LINE      CODE     ---       #293
      0100197FH   LINE      CODE     ---       #296
      0100197FH   LINE      CODE     ---       #298
      01001986H   LINE      CODE     ---       #301
      01001986H   LINE      CODE     ---       #303
      0100198DH   LINE      CODE     ---       #306
      01001990H   LINE      CODE     ---       #309
      01001993H   LINE      CODE     ---       #310
      01001999H   LINE      CODE     ---       #312
      ---         BLOCKEND  ---      ---       LVL=0

      010020B6H   BLOCK     CODE     ---       LVL=0
      00000007H   SYMBOL    DATA     BYTE      devAddr
      00000005H   SYMBOL    DATA     BYTE      regAddr
      00000029H   SYMBOL    DATA     BYTE      data_to_write
      010020B6H   LINE      CODE     ---       #317
      010020B8H   LINE      CODE     ---       #318
      010020C6H   LINE      CODE     ---       #319
      ---         BLOCKEND  ---      ---       LVL=0

      01001CFDH   BLOCK     CODE     ---       LVL=0
      00000007H   SYMBOL    DATA     BYTE      devAddr
      00000004H   SYMBOL    DATA     BYTE      regAddr
      00000006H   SYMBOL    DATA     BYTE      data_len
      0000002DH   SYMBOL    DATA     ---       data_ptr
      01001D01H   BLOCK     CODE     NEAR LAB  LVL=1
LX51 LINKER/LOCATER V4.66.62.0                                                        11/17/2016  16:14:32  PAGE 51


      00000007H   SYMBOL    DATA     BYTE      w2_status
      00000005H   SYMBOL    DATA     BYTE      ack_received
      ---         BLOCKEND  ---      ---       LVL=1
      01001CFDH   LINE      CODE     ---       #321
      01001D01H   LINE      CODE     ---       #326
      01001D08H   LINE      CODE     ---       #327
      01001D0AH   LINE      CODE     ---       #328
      01001D0DH   LINE      CODE     ---       #329
      01001D11H   LINE      CODE     ---       #330
      01001D11H   LINE      CODE     ---       #331
      01001D13H   LINE      CODE     ---       #332
      01001D13H   LINE      CODE     ---       #334
      01001D1FH   LINE      CODE     ---       #335
      01001D1FH   LINE      CODE     ---       #336
      01001D27H   LINE      CODE     ---       #337
      01001D27H   LINE      CODE     ---       #338
      01001D2DH   LINE      CODE     ---       #339
      01001D2DH   LINE      CODE     ---       #340
      01001D2FH   LINE      CODE     ---       #341
      01001D2FH   LINE      CODE     ---       #342
      01001D31H   LINE      CODE     ---       #343
      01001D34H   LINE      CODE     ---       #345
      01001D36H   LINE      CODE     ---       #346
      ---         BLOCKEND  ---      ---       LVL=0

      01002071H   BLOCK     CODE     ---       LVL=0
      00000007H   SYMBOL    DATA     BYTE      devAddr
      00000005H   SYMBOL    DATA     BYTE      regAddr
      0000002BH   SYMBOL    DATA     ---       data_ptr
      01002071H   LINE      CODE     ---       #348
      01002077H   LINE      CODE     ---       #349
      01002082H   LINE      CODE     ---       #350
      ---         BLOCKEND  ---      ---       LVL=0

      01001A8FH   BLOCK     CODE     ---       LVL=0
      00000006H   SYMBOL    DATA     BYTE      devAddr
      00000004H   SYMBOL    DATA     BYTE      regAddr
      00000030H   SYMBOL    DATA     BYTE      data_len
      00000031H   SYMBOL    DATA     ---       data_ptr
      01001A95H   BLOCK     CODE     NEAR LAB  LVL=1
      00000034H   SYMBOL    DATA     BYTE      w2_status
      00000035H   SYMBOL    DATA     BYTE      ack_received
      ---         BLOCKEND  ---      ---       LVL=1
      01001A8FH   LINE      CODE     ---       #352
      01001A95H   LINE      CODE     ---       #357
      01001A9CH   LINE      CODE     ---       #358
      01001A9EH   LINE      CODE     ---       #359
      01001AA3H   LINE      CODE     ---       #360
      01001AA8H   LINE      CODE     ---       #361
      01001AA8H   LINE      CODE     ---       #362
      01001AABH   LINE      CODE     ---       #363
      01001AABH   LINE      CODE     ---       #367
      01001AB4H   LINE      CODE     ---       #369
      01001AB8H   LINE      CODE     ---       #370
      01001AB8H   LINE      CODE     ---       #372
      01001ABBH   LINE      CODE     ---       #374
      01001ABBH   LINE      CODE     ---       #376
      01001AC6H   LINE      CODE     ---       #377
      01001AC6H   LINE      CODE     ---       #378
      01001ACAH   LINE      CODE     ---       #379
      01001ACAH   LINE      CODE     ---       #380
      01001ACDH   LINE      CODE     ---       #381
      01001ACDH   LINE      CODE     ---       #383
      01001AD2H   LINE      CODE     ---       #385
      01001ADCH   LINE      CODE     ---       #386
LX51 LINKER/LOCATER V4.66.62.0                                                        11/17/2016  16:14:32  PAGE 52


      01001AE7H   LINE      CODE     ---       #387
      01001AE9H   LINE      CODE     ---       #389
      01001AEBH   LINE      CODE     ---       #390
      ---         BLOCKEND  ---      ---       LVL=0

      01001BEDH   BLOCK     CODE     ---       LVL=0
      00000022H   SYMBOL    DATA     BYTE      devAddr
      00000023H   SYMBOL    DATA     BYTE      regAddr
      00000024H   SYMBOL    DATA     BYTE      bitNum
      00000025H   SYMBOL    DATA     BYTE      data_to_write
      01001BF3H   BLOCK     CODE     NEAR LAB  LVL=1
      00000026H   SYMBOL    DATA     BYTE      b
      ---         BLOCKEND  ---      ---       LVL=1
      01001BEDH   LINE      CODE     ---       #393
      01001BF3H   LINE      CODE     ---       #395
      01001BFCH   LINE      CODE     ---       #396
      01001C31H   LINE      CODE     ---       #397
      01001C3AH   LINE      CODE     ---       #398
      ---         BLOCKEND  ---      ---       LVL=0

      01001A2CH   BLOCK     CODE     ---       LVL=0
      00000022H   SYMBOL    DATA     BYTE      devAddr
      00000023H   SYMBOL    DATA     BYTE      regAddr
      00000024H   SYMBOL    DATA     BYTE      bitStart
      00000025H   SYMBOL    DATA     BYTE      data_length
      00000026H   SYMBOL    DATA     BYTE      data_to_write
      01001A32H   BLOCK     CODE     NEAR LAB  LVL=1
      00000027H   SYMBOL    DATA     BYTE      b
      01001A3EH   BLOCK     CODE     NEAR LAB  LVL=2
      00000028H   SYMBOL    DATA     BYTE      mask
      ---         BLOCKEND  ---      ---       LVL=2
      ---         BLOCKEND  ---      ---       LVL=1
      01001A2CH   LINE      CODE     ---       #399
      01001A32H   LINE      CODE     ---       #408
      01001A3EH   LINE      CODE     ---       #409
      01001A6BH   LINE      CODE     ---       #410
      01001A78H   LINE      CODE     ---       #411
      01001A7CH   LINE      CODE     ---       #412
      01001A7FH   LINE      CODE     ---       #413
      01001A83H   LINE      CODE     ---       #414
      01001A8CH   LINE      CODE     ---       #415
      01001A8CH   LINE      CODE     ---       #416
      01001A8EH   LINE      CODE     ---       #417
      01001A8EH   LINE      CODE     ---       #418
      ---         BLOCKEND  ---      ---       LVL=0

      01001E83H   BLOCK     CODE     ---       LVL=0
      00000007H   SYMBOL    DATA     BYTE      devAddr
      00000005H   SYMBOL    DATA     BYTE      regAddr
      00000011H   SYMBOL    DATA     BYTE      bitNum
      00000012H   SYMBOL    DATA     ---       data_ptr
      01001E85H   BLOCK     CODE     NEAR LAB  LVL=1
      00000015H   SYMBOL    DATA     BYTE      b
      00000007H   SYMBOL    DATA     BYTE      count
      ---         BLOCKEND  ---      ---       LVL=1
      01001E83H   LINE      CODE     ---       #419
      01001E85H   LINE      CODE     ---       #421
      01001E8EH   LINE      CODE     ---       #422
      01001EA6H   LINE      CODE     ---       #423
      01001EA6H   LINE      CODE     ---       #424
      ---         BLOCKEND  ---      ---       LVL=0

      01001AECH   BLOCK     CODE     ---       LVL=0
      00000007H   SYMBOL    DATA     BYTE      devAddr
      00000005H   SYMBOL    DATA     BYTE      regAddr
LX51 LINKER/LOCATER V4.66.62.0                                                        11/17/2016  16:14:32  PAGE 53


      00000024H   SYMBOL    DATA     BYTE      bitStart
      00000025H   SYMBOL    DATA     BYTE      data_length
      00000026H   SYMBOL    DATA     ---       data_ptr
      01001AEEH   BLOCK     CODE     NEAR LAB  LVL=1
      00000005H   SYMBOL    DATA     BYTE      count
      00000029H   SYMBOL    DATA     BYTE      b
      01001AFCH   BLOCK     CODE     NEAR LAB  LVL=2
      0000002AH   SYMBOL    DATA     BYTE      mask
      ---         BLOCKEND  ---      ---       LVL=2
      ---         BLOCKEND  ---      ---       LVL=1
      01001AECH   LINE      CODE     ---       #425
      01001AEEH   LINE      CODE     ---       #432
      01001AFCH   LINE      CODE     ---       #433
      01001B29H   LINE      CODE     ---       #434
      01001B2BH   LINE      CODE     ---       #435
      01001B38H   LINE      CODE     ---       #436
      01001B41H   LINE      CODE     ---       #437
      01001B41H   LINE      CODE     ---       #438
      01001B43H   LINE      CODE     ---       #439
      ---         BLOCKEND  ---      ---       LVL=0

      01002028H   BLOCK     CODE     ---       LVL=0
      00000007H   SYMBOL    DATA     BYTE      devAddr
      00000005H   SYMBOL    DATA     BYTE      regAddr
      00000022H   SYMBOL    DATA     WORD      data_to_write
      01002028H   LINE      CODE     ---       #442
      0100202CH   LINE      CODE     ---       #443
      0100203AH   LINE      CODE     ---       #444
      ---         BLOCKEND  ---      ---       LVL=0

      01001B44H   BLOCK     CODE     ---       LVL=0
      00000007H   SYMBOL    DATA     BYTE      devAddr
      00000006H   SYMBOL    DATA     BYTE      regAddr
      00000004H   SYMBOL    DATA     BYTE      data_length
      00000027H   SYMBOL    DATA     ---       data_ptr
      01001B48H   BLOCK     CODE     NEAR LAB  LVL=1
      00000007H   SYMBOL    DATA     BYTE      w2_status
      00000005H   SYMBOL    DATA     BYTE      ack_received
      ---         BLOCKEND  ---      ---       LVL=1
      01001B44H   LINE      CODE     ---       #445
      01001B48H   LINE      CODE     ---       #456
      01001B4FH   LINE      CODE     ---       #457
      01001B51H   LINE      CODE     ---       #458
      01001B54H   LINE      CODE     ---       #459
      01001B58H   LINE      CODE     ---       #460
      01001B58H   LINE      CODE     ---       #461
      01001B5AH   LINE      CODE     ---       #462
      01001B5AH   LINE      CODE     ---       #464
      01001B68H   LINE      CODE     ---       #465
      01001B68H   LINE      CODE     ---       #466
      01001B73H   LINE      CODE     ---       #467
      01001B73H   LINE      CODE     ---       #468
      01001B79H   LINE      CODE     ---       #469
      01001B79H   LINE      CODE     ---       #470
      01001B7BH   LINE      CODE     ---       #471
      01001B7BH   LINE      CODE     ---       #472
      01001B7EH   LINE      CODE     ---       #473
      01001B8AH   LINE      CODE     ---       #474
      01001B8AH   LINE      CODE     ---       #475
      01001B90H   LINE      CODE     ---       #476
      01001B90H   LINE      CODE     ---       #477
      01001B92H   LINE      CODE     ---       #478
      01001B92H   LINE      CODE     ---       #479
      01001B94H   LINE      CODE     ---       #480
      01001B94H   LINE      CODE     ---       #481
LX51 LINKER/LOCATER V4.66.62.0                                                        11/17/2016  16:14:32  PAGE 54


      01001B94H   LINE      CODE     ---       #482
      01001B94H   LINE      CODE     ---       #483
      01001B97H   LINE      CODE     ---       #485
      01001B99H   LINE      CODE     ---       #486
      ---         BLOCKEND  ---      ---       LVL=0

      ---         MODULE    ---      ---       HAL_DELAY
      01001FEEH   PUBLIC    CODE     ---       _delay_ms
      01001FB5H   PUBLIC    CODE     ---       _delay_us

      01001FAAH   BLOCK     CODE     ---       LVL=0
      ---         BLOCKEND  ---      ---       LVL=0

      01001FB5H   BLOCK     CODE     ---       LVL=0
      00000006H   SYMBOL    DATA     WORD      us
      01001FB5H   LINE      CODE     ---       #37
      01001FB5H   LINE      CODE     ---       #38
      01001FB5H   LINE      CODE     ---       #40
      01001FB5H   LINE      CODE     ---       #41
      01001FB6H   LINE      CODE     ---       #42
      01001FB7H   LINE      CODE     ---       #43
      01001FB8H   LINE      CODE     ---       #44
      01001FB9H   LINE      CODE     ---       #45
      01001FBAH   LINE      CODE     ---       #46
      01001FC3H   LINE      CODE     ---       #47
      ---         BLOCKEND  ---      ---       LVL=0

      01001FEEH   BLOCK     CODE     ---       LVL=0
      00000004H   SYMBOL    DATA     WORD      ms
      01001FEEH   LINE      CODE     ---       #49
      01001FF2H   LINE      CODE     ---       #50
      01001FF2H   LINE      CODE     ---       #52
      01001FF2H   LINE      CODE     ---       #53
      01001FF2H   LINE      CODE     ---       #54
      01001FF5H   LINE      CODE     ---       #55
      01001FF5H   LINE      CODE     ---       #56
      01001FF8H   LINE      CODE     ---       #57
      01002001H   LINE      CODE     ---       #58
      ---         BLOCKEND  ---      ---       LVL=0

      ---         MODULE    ---      ---       ?C_INIT
      01001805H   PUBLIC    CODE     ---       ?C_START

      ---         MODULE    ---      ---       ?C?CLDPTR
      0100077AH   PUBLIC    CODE     ---       ?C?CLDPTR

      ---         MODULE    ---      ---       ?C?CLDOPTR
      01000793H   PUBLIC    CODE     ---       ?C?CLDOPTR

      ---         MODULE    ---      ---       ?C?CSTPTR
      010007C0H   PUBLIC    CODE     ---       ?C?CSTPTR

      ---         MODULE    ---      ---       ?C?CSTOPTR
      010007D2H   PUBLIC    CODE     ---       ?C?CSTOPTR

      ---         MODULE    ---      ---       ?C?IILDX
      010007F4H   PUBLIC    CODE     ---       ?C?IILDX

      ---         MODULE    ---      ---       ?C?ILDIX
      0100080AH   PUBLIC    CODE     ---       ?C?ILDIX

      ---         MODULE    ---      ---       ?C?ILDPTR
      01000820H   PUBLIC    CODE     ---       ?C?ILDPTR

      ---         MODULE    ---      ---       ?C?ISTPTR
LX51 LINKER/LOCATER V4.66.62.0                                                        11/17/2016  16:14:32  PAGE 55


      0100084BH   PUBLIC    CODE     ---       ?C?ISTPTR

      ---         MODULE    ---      ---       ?C?ISTOPTR
      0100086AH   PUBLIC    CODE     ---       ?C?ISTOPTR

      ---         MODULE    ---      ---       ?C?PLDIIDATA
      01000897H   PUBLIC    CODE     ---       ?C?PLDIIDATA

      ---         MODULE    ---      ---       ?C?PLDXDATA
      010008A7H   PUBLIC    CODE     ---       ?C?PLDXDATA

      ---         MODULE    ---      ---       ?C?PSTXDATA
      010008B0H   PUBLIC    CODE     ---       ?C?PSTXDATA

      ---         MODULE    ---      ---       ?C?MEMCMP
      01000A3FH   PUBLIC    CODE     ---       ?C?MEMCMP

      ---         MODULE    ---      ---       MALLOC
      01001722H   PUBLIC    CODE     ---       _MALLOC

      ---         MODULE    ---      ---       INIT_MEM
      02000372H   PUBLIC    XDATA    ---       __MEM_AVAIL__
      0100000EH   PUBLIC    CODE     ---       _INIT_MEMPOOL

      ---         MODULE    ---      ---       REALLOC
      010018CFH   PUBLIC    CODE     ---       _REALLOC

      ---         MODULE    ---      ---       FREE
      010010B4H   PUBLIC    CODE     ---       _FREE

      ---         MODULE    ---      ---       ?C?COPY
      01000B33H   PUBLIC    CODE     ---       ?C?COPY



*** WARNING L57: UNCALLED FUNCTION, IGNORED FOR OVERLAY PROCESS
    NAME:    UART_INIT/MAIN

*** WARNING L57: UNCALLED FUNCTION, IGNORED FOR OVERLAY PROCESS
    NAME:    _PUTSTRING/MAIN

*** WARNING L57: UNCALLED FUNCTION, IGNORED FOR OVERLAY PROCESS
    NAME:    _SEND_PACKET_TO_COMPUTER/MAIN

*** WARNING L57: UNCALLED FUNCTION, IGNORED FOR OVERLAY PROCESS
    NAME:    _SEND_PACKET_FROM_HOST_TO_COMPUTER/MAIN

*** WARNING L57: UNCALLED FUNCTION, IGNORED FOR OVERLAY PROCESS
    NAME:    GETXACCELOFFSET/MAIN

*** WARNING L57: UNCALLED FUNCTION, IGNORED FOR OVERLAY PROCESS
    NAME:    GETYACCELOFFSET/MAIN

*** WARNING L57: UNCALLED FUNCTION, IGNORED FOR OVERLAY PROCESS
    NAME:    GETZACCELOFFSET/MAIN

*** WARNING L57: UNCALLED FUNCTION, IGNORED FOR OVERLAY PROCESS
    NAME:    GETXGYROOFFSET/MAIN

*** WARNING L57: UNCALLED FUNCTION, IGNORED FOR OVERLAY PROCESS
    NAME:    GETYGYROOFFSET/MAIN

*** WARNING L57: UNCALLED FUNCTION, IGNORED FOR OVERLAY PROCESS
    NAME:    GETZGYROOFFSET/MAIN

LX51 LINKER/LOCATER V4.66.62.0                                                        11/17/2016  16:14:32  PAGE 56


*** WARNING L57: UNCALLED FUNCTION, IGNORED FOR OVERLAY PROCESS
    NAME:    _SETEXTERNALFRAMESYNC/MAIN

*** WARNING L57: UNCALLED FUNCTION, IGNORED FOR OVERLAY PROCESS
    NAME:    GETDMPCONFIG1/MAIN

*** WARNING L57: UNCALLED FUNCTION, IGNORED FOR OVERLAY PROCESS
    NAME:    GETDMPCONFIG2/MAIN

*** WARNING L57: UNCALLED FUNCTION, IGNORED FOR OVERLAY PROCESS
    NAME:    GETOTPBANKVALID/MAIN

*** WARNING L57: UNCALLED FUNCTION, IGNORED FOR OVERLAY PROCESS
    NAME:    _SETXGYROOFFSETTC/MAIN

*** WARNING L57: UNCALLED FUNCTION, IGNORED FOR OVERLAY PROCESS
    NAME:    _SETYGYROOFFSETTC/MAIN

*** WARNING L57: UNCALLED FUNCTION, IGNORED FOR OVERLAY PROCESS
    NAME:    _SETZGYROOFFSETTC/MAIN

*** WARNING L57: UNCALLED FUNCTION, IGNORED FOR OVERLAY PROCESS
    NAME:    GETMOTIONDETECTIONTHRESHOLD/MAIN

*** WARNING L57: UNCALLED FUNCTION, IGNORED FOR OVERLAY PROCESS
    NAME:    GETZEROMOTIONDETECTIONTHRESHOLD/MAIN

*** WARNING L57: UNCALLED FUNCTION, IGNORED FOR OVERLAY PROCESS
    NAME:    GETMOTIONDETECTIONDURATION/MAIN

*** WARNING L57: UNCALLED FUNCTION, IGNORED FOR OVERLAY PROCESS
    NAME:    GETZEROMOTIONDETECTIONDURATION/MAIN

*** WARNING L57: UNCALLED FUNCTION, IGNORED FOR OVERLAY PROCESS
    NAME:    GETFIFOENABLED/MAIN

*** WARNING L57: UNCALLED FUNCTION, IGNORED FOR OVERLAY PROCESS
    NAME:    _DMPGETQUATERNION_INT16/MAIN

*** WARNING L57: UNCALLED FUNCTION, IGNORED FOR OVERLAY PROCESS
    NAME:    _HAL_W2_RESPOND_TO_GEN_ADR/HAL_W2_ISR

*** WARNING L57: UNCALLED FUNCTION, IGNORED FOR OVERLAY PROCESS
    NAME:    _HAL_W2_ALTER_CLOCK/HAL_W2_ISR

*** WARNING L57: UNCALLED FUNCTION, IGNORED FOR OVERLAY PROCESS
    NAME:    _HAL_W2_IRQ_STOP_COND_ENABLE/HAL_W2_ISR

*** WARNING L57: UNCALLED FUNCTION, IGNORED FOR OVERLAY PROCESS
    NAME:    _HAL_W2_IRQ_ADR_MATCH_ENABLE/HAL_W2_ISR

*** WARNING L57: UNCALLED FUNCTION, IGNORED FOR OVERLAY PROCESS
    NAME:    _HAL_W2_SET_SLAVE_ADDRESS/HAL_W2_ISR

*** WARNING L57: UNCALLED FUNCTION, IGNORED FOR OVERLAY PROCESS
    NAME:    HAL_W2_WAIT_DATA_READY/HAL_W2_ISR

*** WARNING L57: UNCALLED FUNCTION, IGNORED FOR OVERLAY PROCESS
    NAME:    _HAL_W2_WRITE/HAL_W2_ISR

*** WARNING L57: UNCALLED FUNCTION, IGNORED FOR OVERLAY PROCESS
    NAME:    _HAL_W2_READ/HAL_W2_ISR

Program Size: data=82.1 xdata=896 const=3057 code=9183
LX51 RUN COMPLETE.  31 WARNING(S),  0 ERROR(S)
