LX51 LINKER/LOCATER V4.66.62.0                                                          11/15/2016  19:57:29  PAGE 1


LX51 LINKER/LOCATER V4.66.62.0, INVOKED BY:
C:\KEIL_V5\C51\BIN\LX51.EXE STARTUP.obj, main.obj, .\hal_w2_isr.obj, .\hal_delay.obj TO FProject DISABLEWARNING (16)


CPU MODE:     8051 MODE
MEMORY MODEL: SMALL


INPUT MODULES INCLUDED:
  STARTUP.obj (?C_STARTUP)
         COMMENT TYPE 1: A51 / ASM51 Assembler
  main.obj (MAIN)
         COMMENT TYPE 0: C51 V9.55
  .\hal_w2_isr.obj (HAL_W2_ISR)
         COMMENT TYPE 0: C51 V9.55
  .\hal_delay.obj (HAL_DELAY)
         COMMENT TYPE 0: C51 V9.55
  C:\KEIL_V5\C51\LIB\C51S.LIB (?C_INIT)
         COMMENT TYPE 1: A51 / ASM51 Assembler
  C:\KEIL_V5\C51\LIB\C51S.LIB (?C?CLDPTR)
         COMMENT TYPE 1: A51 / ASM51 Assembler
  C:\KEIL_V5\C51\LIB\C51S.LIB (?C?CLDOPTR)
         COMMENT TYPE 1: A51 / ASM51 Assembler
  C:\KEIL_V5\C51\LIB\C51S.LIB (?C?CSTPTR)
         COMMENT TYPE 1: A51 / ASM51 Assembler
  C:\KEIL_V5\C51\LIB\C51S.LIB (?C?CSTOPTR)
         COMMENT TYPE 1: A51 / ASM51 Assembler
  C:\KEIL_V5\C51\LIB\C51S.LIB (?C?ILDPTR)
         COMMENT TYPE 1: A51 / ASM51 Assembler
  C:\KEIL_V5\C51\LIB\C51S.LIB (?C?PLDIIDATA)
         COMMENT TYPE 1: A51 / ASM51 Assembler
  C:\KEIL_V5\C51\LIB\C51S.LIB (?C?MEMCMP)
         COMMENT TYPE 1: A51 / ASM51 Assembler
  C:\KEIL_V5\C51\LIB\C51S.LIB (INIT_MEM)
         COMMENT TYPE 1: C51 Compiler


ACTIVE MEMORY CLASSES OF MODULE:  FProject (?C_STARTUP)

BASE        START       END         USED      MEMORY CLASS
==========================================================
C:000000H   C:000000H   C:00FFFFH   000F08H   CODE
I:000000H   I:000000H   I:0000FFH   000001H   IDATA
I:000000H   I:000000H   I:00007FH   00005EH   DATA
C:000000H   C:000000H   C:00FFFFH   0008DDH   CONST
X:000000H   X:000000H   X:00FFFFH   00027CH   XDATA
I:000020H.0 I:000020H.0 I:00002FH.7 000000H.1 BIT


MEMORY MAP OF MODULE:  FProject (?C_STARTUP)


START     STOP      LENGTH    ALIGN  RELOC    MEMORY CLASS   SEGMENT NAME
=========================================================================

* * * * * * * * * * *   D A T A   M E M O R Y   * * * * * * * * * * * * *
000000H   000007H   000008H   ---    AT..     DATA           "REG BANK 0"
000008H   000015H   00000EH   BYTE   UNIT     DATA           ?DT?MAIN
000016H   00001CH   000007H   BYTE   UNIT     DATA           ?DT?HAL_W2_WAIT_DATA_READY?HAL_W2_ISR
00001DH   00001FH   000003H   BYTE   UNIT     DATA           ?DT?_GETFIFOBYTES?MAIN
000020H   000020H   000001H   BYTE   BITADDR  DATA           ?BA?MAIN
000021H.0 000021H.0 000000H.1 BIT    UNIT     BIT            ?BI?MAIN
000021H.1 000021H   000000H.7 ---    ---      **GAP**
000022H   00003CH   00001BH   BYTE   UNIT     DATA           _DATA_GROUP_
00003DH   000043H   000007H   BYTE   UNIT     DATA           ?DT?_I2C_MPU_READBIT?HAL_W2_ISR
000044H   000049H   000006H   BYTE   UNIT     DATA           ?DT?_HAL_W2_WRITE?HAL_W2_ISR
LX51 LINKER/LOCATER V4.66.62.0                                                        11/15/2016  19:57:29  PAGE 2


00004AH   00004FH   000006H   BYTE   UNIT     DATA           ?DT?_HAL_W2_READ?HAL_W2_ISR
000050H   000054H   000005H   BYTE   UNIT     DATA           ?DT?_SEND_PACKET_TO_COMPUTER?MAIN
000055H   000059H   000005H   BYTE   UNIT     DATA           ?DT?_SEND_PACKET_FROM_HOST_TO_COMPUTER?MAIN
00005AH   00005CH   000003H   BYTE   UNIT     DATA           ?DT?_PUTSTRING?MAIN
00005DH   00005EH   000002H   BYTE   UNIT     DATA           ?DT?HAL_W2_ISR
00005FH   00005FH   000001H   BYTE   UNIT     IDATA          ?STACK

* * * * * * * * * * *   C O D E   M E M O R Y   * * * * * * * * * * * * *
000000H   000002H   000003H   ---    OFFS..   CODE           ?CO??C_STARTUP?0
000003H   00000AH   000008H   BYTE   UNIT     CODE           ?PR?_SETXACCELOFFSET?MAIN
00000BH   00000DH   000003H   BYTE   OFFS..   CODE           ?MAIN?0000B
00000EH   000049H   00003CH   BYTE   UNIT     CODE           ?PR?_INIT_MEMPOOL?INIT_MEM
00004AH   00004AH   000001H   ---    ---      **GAP**
00004BH   00004DH   000003H   BYTE   OFFS..   CODE           ?MAIN?0004B
00004EH   000052H   000005H   ---    ---      **GAP**
000053H   000055H   000003H   BYTE   OFFS..   CODE           ?MAIN?00053
000056H   0002B4H   00025FH   BYTE   UNIT     CODE           ?C?LIB_CODE
0002B5H   0003F3H   00013FH   BYTE   UNIT     CODE           ?PR?MAIN?MAIN
0003F4H   00048CH   000099H   BYTE   UNIT     CODE           ?PR?_GETMOTION6_PACKET?MAIN
00048DH   000518H   00008CH   BYTE   UNIT     CODE           ?C_C51STARTUP
000519H   0005A1H   000089H   BYTE   UNIT     CODE           ?PR?SETUP?MAIN
0005A2H   000627H   000086H   BYTE   UNIT     CODE           ?PR?RF_IRQ?MAIN
000628H   00069AH   000073H   BYTE   UNIT     CODE           ?PR?HAL_W2_SOFT_RESET?HAL_W2_ISR
00069BH   0006FDH   000063H   BYTE   UNIT     CODE           ?PR?_I2C_MPU_WRITEBITS?HAL_W2_ISR
0006FEH   00075AH   00005DH   BYTE   UNIT     CODE           ?PR?_I2C_MPU_READBYTES?HAL_W2_ISR
00075BH   0007B6H   00005CH   BYTE   UNIT     CODE           ?PR?MAIN
0007B7H   00080EH   000058H   BYTE   UNIT     CODE           ?PR?_I2C_MPU_READBITS?HAL_W2_ISR
00080FH   000864H   000056H   BYTE   UNIT     CODE           ?PR?_SEND_PACKET_TO_HOST?MAIN
000865H   0008BAH   000056H   BYTE   UNIT     CODE           ?PR?_I2C_MPU_WRITEWORDS?HAL_W2_ISR
0008BBH   000908H   00004EH   BYTE   UNIT     CODE           ?PR?_I2C_MPU_WRITEBIT?HAL_W2_ISR
000909H   000951H   000049H   BYTE   UNIT     CODE           ?C_INITSEG
000952H   000996H   000045H   BYTE   UNIT     CODE           ?PR?RF_INIT?MAIN
000997H   0009D8H   000042H   BYTE   UNIT     CODE           ?PR?_HAL_W2_READ?HAL_W2_ISR
0009D9H   000A13H   00003BH   BYTE   UNIT     CODE           ?PR?I2C_IRQ?MAIN
000A14H   000A4DH   00003AH   BYTE   UNIT     CODE           ?PR?_I2C_MPU_WRITEBYTES?HAL_W2_ISR
000A4EH   000A85H   000038H   BYTE   UNIT     CODE           ?PR?_HAL_W2_WRITE?HAL_W2_ISR
000A86H   000ABAH   000035H   BYTE   UNIT     CODE           ?PR?_SEND_PACKET_TO_COMPUTER?MAIN
000ABBH   000AEFH   000035H   BYTE   UNIT     CODE           ?PR?_SEND_PACKET_FROM_HOST_TO_COMPUTER?MAIN
000AF0H   000B22H   000033H   BYTE   UNIT     CODE           ?PR?MPU_INITIALIZE?MAIN
000B23H   000B4EH   00002CH   BYTE   UNIT     CODE           ?PR?_TX_MODE_NOACK?MAIN
000B4FH   000B79H   00002BH   BYTE   UNIT     CODE           ?PR?_SPI_READ_BUF?MAIN
000B7AH   000BA2H   000029H   BYTE   UNIT     CODE           ?PR?_GETFIFOBYTES?MAIN
000BA3H   000BC9H   000027H   BYTE   UNIT     CODE           ?PR?HAL_W2_WAIT_DATA_READY?HAL_W2_ISR
000BCAH   000BEDH   000024H   BYTE   UNIT     CODE           ?PR?_I2C_MPU_READBIT?HAL_W2_ISR
000BEEH   000C0EH   000021H   BYTE   UNIT     CODE           ?PR?MPU_TESTCONNECTION?MAIN
000C0FH   000C2FH   000021H   BYTE   UNIT     CODE           ?PR?_HAL_W2_CONFIGURE_MASTER?HAL_W2_ISR
000C30H   000C4EH   00001FH   BYTE   UNIT     CODE           ?PR?_SPI_WRITE_BUF?MAIN
000C4FH   000C6AH   00001CH   BYTE   UNIT     CODE           ?PR?_PUTSTRING?MAIN
000C6BH   000C86H   00001CH   BYTE   UNIT     CODE           ?PR?LUZES_INICIAIS?MAIN
000C87H   000CA0H   00001AH   BYTE   UNIT     CODE           ?PR?UART_INIT?MAIN
000CA1H   000CBAH   00001AH   BYTE   UNIT     CODE           ?PR?_DELAY_US?HAL_DELAY
000CBBH   000CD2H   000018H   BYTE   UNIT     CODE           ?PR?_SETMEMORYBANK?MAIN
000CD3H   000CE6H   000014H   BYTE   UNIT     CODE           ?PR?_DELAY_MS?HAL_DELAY
000CE7H   000CF9H   000013H   BYTE   UNIT     CODE           ?PR?GETINTSTATUS?MAIN
000CFAH   000D0CH   000013H   BYTE   UNIT     CODE           ?PR?_SPI_RW_REG?MAIN
000D0DH   000D1FH   000013H   BYTE   UNIT     CODE           ?PR?_I2C_MPU_WRITEWORD?HAL_W2_ISR
000D20H   000D31H   000012H   BYTE   UNIT     CODE           ?PR?INICIARIO?MAIN
000D32H   000D43H   000012H   BYTE   UNIT     CODE           ?PR?_HAL_W2_INIT_TRANSFER?HAL_W2_ISR
000D44H   000D55H   000012H   BYTE   UNIT     CODE           ?PR?_I2C_MPU_READBYTE?HAL_W2_ISR
000D56H   000D66H   000011H   BYTE   UNIT     CODE           ?PR?RX_MODE?MAIN
000D67H   000D77H   000011H   BYTE   UNIT     CODE           ?PR?_UART_PUTCHAR?MAIN
000D78H   000D88H   000011H   BYTE   UNIT     CODE           ?PR?_I2C_MPU_WRITEBYTE?HAL_W2_ISR
000D89H   000D98H   000010H   BYTE   UNIT     CODE           ?PR?TMR0_IRQ?MAIN
000D99H   000DA6H   00000EH   BYTE   UNIT     CODE           ?PR?GETXACCELOFFSET?MAIN
000DA7H   000DB4H   00000EH   BYTE   UNIT     CODE           ?PR?GETYACCELOFFSET?MAIN
LX51 LINKER/LOCATER V4.66.62.0                                                        11/15/2016  19:57:29  PAGE 3


000DB5H   000DC2H   00000EH   BYTE   UNIT     CODE           ?PR?GETZACCELOFFSET?MAIN
000DC3H   000DD0H   00000EH   BYTE   UNIT     CODE           ?PR?GETXGYROOFFSET?MAIN
000DD1H   000DDEH   00000EH   BYTE   UNIT     CODE           ?PR?GETYGYROOFFSET?MAIN
000DDFH   000DECH   00000EH   BYTE   UNIT     CODE           ?PR?GETZGYROOFFSET?MAIN
000DEDH   000DFAH   00000EH   BYTE   UNIT     CODE           ?PR?GETFIFOCOUNT?MAIN
000DFBH   000E08H   00000EH   BYTE   UNIT     CODE           ?PR?_HAL_W2_SET_CLK_FREQ?HAL_W2_ISR
000E09H   000E16H   00000EH   BYTE   UNIT     CODE           ?PR?HAL_W2_ISR
000E17H   000E23H   00000DH   BYTE   UNIT     CODE           ?PR?_SPI_READ?MAIN
000E24H   000E2FH   00000CH   BYTE   UNIT     CODE           ?PR?RESETFIFO?MAIN
000E30H   000E3BH   00000CH   BYTE   UNIT     CODE           ?PR?INICIARRF?MAIN
000E3CH   000E46H   00000BH   BYTE   UNIT     CODE           ?PR?MPU_8051_MALLOC_SETUP?MAIN
000E47H   000E51H   00000BH   BYTE   UNIT     CODE           ?PR?_SETYGYROOFFSET?MAIN
000E52H   000E5CH   00000BH   BYTE   UNIT     CODE           ?PR?_SETZGYROOFFSET?MAIN
000E5DH   000E67H   00000BH   BYTE   UNIT     CODE           ?PR?_SETDMPENABLED?MAIN
000E68H   000E72H   00000BH   BYTE   UNIT     CODE           ?PR?_HAL_W2_RESPOND_TO_GEN_ADR?HAL_W2_ISR
000E73H   000E7DH   00000BH   BYTE   UNIT     CODE           ?PR?_HAL_W2_ALTER_CLOCK?HAL_W2_ISR
000E7EH   000E88H   00000BH   BYTE   UNIT     CODE           ?PR?_HAL_W2_IRQ_STOP_COND_ENABLE?HAL_W2_ISR
000E89H   000E93H   00000BH   BYTE   UNIT     CODE           ?PR?_HAL_W2_IRQ_ADR_MATCH_ENABLE?HAL_W2_ISR
000E94H   000E9EH   00000BH   BYTE   UNIT     CODE           ?PR?_HAL_W2_SET_OP_MODE?HAL_W2_ISR
000E9FH   000EA9H   00000BH   BYTE   UNIT     CODE           ?PR?_HAL_W2_ENABLE?HAL_W2_ISR
000EAAH   000EB4H   00000BH   BYTE   UNIT     CODE           ?PR?_HAL_W2_ALL_IRQ_ENABLE?HAL_W2_ISR
000EB5H   000EBEH   00000AH   BYTE   UNIT     CODE           ?PR?START_T0?MAIN
000EBFH   000EC8H   00000AH   BYTE   UNIT     CODE           ?PR?STOP_T0?MAIN
000EC9H   000ED2H   00000AH   BYTE   UNIT     CODE           ?PR?_SPI_RW?MAIN
000ED3H   000EDCH   00000AH   BYTE   UNIT     CODE           ?PR?HAL_W2_WAIT_DATA_READY_ISR?HAL_W2_ISR
000EDDH   000EE6H   00000AH   BYTE   UNIT     CODE           ?PR?I2C_IRQ_HANDLER?HAL_W2_ISR
000EE7H   000EEFH   000009H   BYTE   UNIT     CODE           ?PR?DMPGETFIFOPACKETSIZE?MAIN
000EF0H   000EF7H   000008H   BYTE   UNIT     CODE           ?PR?_SETYACCELOFFSET?MAIN
000EF8H   000EFFH   000008H   BYTE   UNIT     CODE           ?PR?_SETZACCELOFFSET?MAIN
000F00H   000F07H   000008H   BYTE   UNIT     CODE           ?PR?_SETXGYROOFFSET?MAIN
000F08H   000F0DH   000006H   BYTE   UNIT     CODE           ?PR?_HAL_W2_SET_SLAVE_ADDRESS?HAL_W2_ISR
000F0EH   0017EAH   0008DDH   BYTE   UNIT     CONST          ?CO?MAIN

* * * * * * * * * * *  X D A T A   M E M O R Y  * * * * * * * * * * * * *
000000H   000273H   000274H   BYTE   UNIT     XDATA          ?XD?MAIN
000274H   00027BH   000008H   BYTE   UNIT     XDATA          ?XD?INIT_MEM



OVERLAY MAP OF MODULE:   FProject (?C_STARTUP)


FUNCTION/MODULE                               BIT_GROUP   DATA_GROUP 
--> CALLED FUNCTION/MODULE                   START  STOP  START  STOP
=====================================================================
?C_C51STARTUP                                ----- -----  ----- -----
  +--> MAIN/MAIN
  +--> ?C_INITSEG

MAIN/MAIN                                    ----- -----  ----- -----
  +--> SETUP/MAIN
  +--> ?CO?MAIN
  +--> _DELAY_MS/HAL_DELAY
  +--> START_T0/MAIN
  +--> STOP_T0/MAIN
  +--> _GETMOTION6_PACKET/MAIN
  +--> _SEND_PACKET_TO_HOST/MAIN

SETUP/MAIN                                   ----- -----  ----- -----
  +--> INICIARIO/MAIN
  +--> INICIARRF/MAIN
  +--> _HAL_W2_CONFIGURE_MASTER/HAL_W2_ISR
  +--> LUZES_INICIAIS/MAIN
  +--> ?CO?MAIN
  +--> MPU_8051_MALLOC_SETUP/MAIN
LX51 LINKER/LOCATER V4.66.62.0                                                        11/15/2016  19:57:29  PAGE 4


  +--> MPU_INITIALIZE/MAIN
  +--> MPU_TESTCONNECTION/MAIN
  +--> _SEND_PACKET_TO_HOST/MAIN
  +--> _DELAY_MS/HAL_DELAY
  +--> _SETXACCELOFFSET/MAIN
  +--> _SETYACCELOFFSET/MAIN
  +--> _SETZACCELOFFSET/MAIN
  +--> _SETXGYROOFFSET/MAIN
  +--> _SETYGYROOFFSET/MAIN
  +--> _SETZGYROOFFSET/MAIN

INICIARIO/MAIN                               ----- -----  ----- -----

INICIARRF/MAIN                               ----- -----  ----- -----
  +--> RF_INIT/MAIN
  +--> RX_MODE/MAIN

RF_INIT/MAIN                                 ----- -----  ----- -----
  +--> MAIN
  +--> _SPI_WRITE_BUF/MAIN
  +--> _SPI_RW_REG/MAIN

MAIN                                         ----- -----  ----- -----
  +--> _UART_PUTCHAR/MAIN
  +--> _SPI_RW/MAIN

_UART_PUTCHAR/MAIN                           ----- -----  ----- -----

_SPI_RW/MAIN                                 ----- -----  ----- -----

_SPI_WRITE_BUF/MAIN                          ----- -----  0029H 002DH
  +--> MAIN
  +--> _SPI_RW/MAIN

_SPI_RW_REG/MAIN                             ----- -----  ----- -----
  +--> _SPI_RW/MAIN

RX_MODE/MAIN                                 ----- -----  ----- -----
  +--> _SPI_RW_REG/MAIN

_HAL_W2_CONFIGURE_MASTER/HAL_W2_ISR          ----- -----  ----- -----
  +--> _HAL_W2_ENABLE/HAL_W2_ISR
  +--> _HAL_W2_SET_CLK_FREQ/HAL_W2_ISR
  +--> _HAL_W2_SET_OP_MODE/HAL_W2_ISR
  +--> _HAL_W2_ALL_IRQ_ENABLE/HAL_W2_ISR

_HAL_W2_ENABLE/HAL_W2_ISR                    ----- -----  ----- -----

_HAL_W2_SET_CLK_FREQ/HAL_W2_ISR              ----- -----  ----- -----

_HAL_W2_SET_OP_MODE/HAL_W2_ISR               ----- -----  ----- -----

_HAL_W2_ALL_IRQ_ENABLE/HAL_W2_ISR            ----- -----  ----- -----

LUZES_INICIAIS/MAIN                          ----- -----  ----- -----
  +--> _DELAY_MS/HAL_DELAY

_DELAY_MS/HAL_DELAY                          ----- -----  ----- -----
  +--> _DELAY_US/HAL_DELAY

_DELAY_US/HAL_DELAY                          ----- -----  ----- -----

?CO?MAIN                                     ----- -----  ----- -----

MPU_8051_MALLOC_SETUP/MAIN                   ----- -----  ----- -----
LX51 LINKER/LOCATER V4.66.62.0                                                        11/15/2016  19:57:29  PAGE 5


  +--> _INIT_MEMPOOL/INIT_MEM

_INIT_MEMPOOL/INIT_MEM                       ----- -----  ----- -----

MPU_INITIALIZE/MAIN                          ----- -----  ----- -----
  +--> _I2C_MPU_WRITEBITS/HAL_W2_ISR
  +--> _I2C_MPU_WRITEBIT/HAL_W2_ISR

_I2C_MPU_WRITEBITS/HAL_W2_ISR                ----- -----  0022H 0028H
  +--> _I2C_MPU_READBYTE/HAL_W2_ISR
  +--> _I2C_MPU_WRITEBYTE/HAL_W2_ISR

_I2C_MPU_READBYTE/HAL_W2_ISR                 ----- -----  002BH 002DH
  +--> _I2C_MPU_READBYTES/HAL_W2_ISR

_I2C_MPU_READBYTES/HAL_W2_ISR                ----- -----  002EH 0035H
  +--> _HAL_W2_INIT_TRANSFER/HAL_W2_ISR
  +--> HAL_W2_WAIT_DATA_READY_ISR/HAL_W2_ISR
  +--> HAL_W2_SOFT_RESET/HAL_W2_ISR
  +--> HAL_W2_ISR

_HAL_W2_INIT_TRANSFER/HAL_W2_ISR             ----- -----  ----- -----
  +--> HAL_W2_ISR

HAL_W2_ISR                                   ----- -----  ----- -----
  +--> HAL_W2_WAIT_DATA_READY_ISR/HAL_W2_ISR

HAL_W2_WAIT_DATA_READY_ISR/HAL_W2_ISR        ----- -----  ----- -----

HAL_W2_SOFT_RESET/HAL_W2_ISR                 ----- -----  0036H 0037H
  +--> _DELAY_US/HAL_DELAY

_I2C_MPU_WRITEBYTE/HAL_W2_ISR                ----- -----  0029H 0029H
  +--> _I2C_MPU_WRITEBYTES/HAL_W2_ISR

_I2C_MPU_WRITEBYTES/HAL_W2_ISR               ----- -----  002AH 002FH
  +--> _HAL_W2_INIT_TRANSFER/HAL_W2_ISR
  +--> HAL_W2_WAIT_DATA_READY_ISR/HAL_W2_ISR
  +--> HAL_W2_ISR

_I2C_MPU_WRITEBIT/HAL_W2_ISR                 ----- -----  0022H 0026H
  +--> _I2C_MPU_READBYTE/HAL_W2_ISR
  +--> _I2C_MPU_WRITEBYTE/HAL_W2_ISR

MPU_TESTCONNECTION/MAIN                      ----- -----  ----- -----
  +--> _I2C_MPU_READBITS/HAL_W2_ISR

_I2C_MPU_READBITS/HAL_W2_ISR                 ----- -----  0022H 002AH
  +--> _I2C_MPU_READBYTE/HAL_W2_ISR

_SEND_PACKET_TO_HOST/MAIN                    ----- -----  0022H 0026H
  +--> _TX_MODE_NOACK/MAIN
  +--> RX_MODE/MAIN

_TX_MODE_NOACK/MAIN                          ----- -----  0027H 0028H
  +--> _SPI_RW_REG/MAIN
  +--> MAIN
  +--> _SPI_WRITE_BUF/MAIN

_SETXACCELOFFSET/MAIN                        ----- -----  ----- -----
  +--> MAIN
  +--> _I2C_MPU_WRITEWORD/HAL_W2_ISR

_I2C_MPU_WRITEWORD/HAL_W2_ISR                ----- -----  0022H 0023H
  +--> _I2C_MPU_WRITEWORDS/HAL_W2_ISR
LX51 LINKER/LOCATER V4.66.62.0                                                        11/15/2016  19:57:29  PAGE 6



_I2C_MPU_WRITEWORDS/HAL_W2_ISR               ----- -----  0024H 0029H
  +--> _HAL_W2_INIT_TRANSFER/HAL_W2_ISR
  +--> HAL_W2_WAIT_DATA_READY_ISR/HAL_W2_ISR
  +--> HAL_W2_ISR

_SETYACCELOFFSET/MAIN                        ----- -----  ----- -----
  +--> MAIN
  +--> _I2C_MPU_WRITEWORD/HAL_W2_ISR

_SETZACCELOFFSET/MAIN                        ----- -----  ----- -----
  +--> MAIN
  +--> _I2C_MPU_WRITEWORD/HAL_W2_ISR

_SETXGYROOFFSET/MAIN                         ----- -----  ----- -----
  +--> MAIN
  +--> _I2C_MPU_WRITEWORD/HAL_W2_ISR

_SETYGYROOFFSET/MAIN                         ----- -----  ----- -----
  +--> _I2C_MPU_WRITEWORD/HAL_W2_ISR

_SETZGYROOFFSET/MAIN                         ----- -----  ----- -----
  +--> _I2C_MPU_WRITEWORD/HAL_W2_ISR

START_T0/MAIN                                ----- -----  ----- -----
  +--> MAIN

STOP_T0/MAIN                                 ----- -----  ----- -----
  +--> MAIN

_GETMOTION6_PACKET/MAIN                      ----- -----  0022H 0024H
  +--> _I2C_MPU_READBYTES/HAL_W2_ISR

?C_INITSEG                                   ----- -----  ----- -----

*** NEW ROOT *******************************

TMR0_IRQ/MAIN                                ----- -----  ----- -----
  +--> MAIN

*** NEW ROOT *******************************

RF_IRQ/MAIN                                  ----- -----  ----- -----
  +--> _SPI_READ/MAIN
  +--> _SPI_READ_BUF/MAIN
  +--> _SPI_RW_REG/MAIN

_SPI_READ/MAIN                               ----- -----  ----- -----
  +--> _SPI_RW/MAIN

_SPI_READ_BUF/MAIN                           ----- -----  0038H 003CH
  +--> MAIN
  +--> _SPI_RW/MAIN

*** NEW ROOT *******************************

I2C_IRQ/MAIN                                 ----- -----  ----- -----
  +--> I2C_IRQ_HANDLER/HAL_W2_ISR

I2C_IRQ_HANDLER/HAL_W2_ISR                   ----- -----  ----- -----



PUBLIC SYMBOLS OF MODULE:  FProject (?C_STARTUP)

LX51 LINKER/LOCATER V4.66.62.0                                                        11/15/2016  19:57:29  PAGE 7



      VALUE       CLASS    TYPE      PUBLIC SYMBOL NAME
      =================================================
      0000004AH   DATA     BYTE      ?_hal_w2_read?BYTE
      00000044H   DATA     BYTE      ?_hal_w2_write?BYTE
      0000003DH   DATA     BYTE      ?_i2c_mpu_readBit?BYTE
      00000022H   DATA     BYTE      ?_i2c_mpu_readBits?BYTE
      0000002EH   DATA     BYTE      ?_i2c_mpu_readBytes?BYTE
      00000022H   DATA     BYTE      ?_i2c_mpu_writeBit?BYTE
      00000022H   DATA     BYTE      ?_i2c_mpu_writeBits?BYTE
      0000002AH   DATA     BYTE      ?_i2c_mpu_writeBytes?BYTE
      00000024H   DATA     BYTE      ?_i2c_mpu_writeWords?BYTE
      00000055H   DATA     BYTE      ?_send_packet_from_host_to_computer?BYTE
      00000050H   DATA     BYTE      ?_send_packet_to_computer?BYTE
      00000022H   DATA     BYTE      ?_send_packet_to_host?BYTE
      00000038H   DATA     BYTE      ?_SPI_Read_Buf?BYTE
      00000029H   DATA     BYTE      ?_SPI_Write_Buf?BYTE
      0100006FH   CODE     ---       ?C?CLDOPTR
      01000056H   CODE     ---       ?C?CLDPTR
      00000000H   NUMBER   ---       ?C?CODESEG
      010000AEH   CODE     ---       ?C?CSTOPTR
      0100009CH   CODE     ---       ?C?CSTPTR
      010000D0H   CODE     ---       ?C?ILDPTR
      01000291H   CODE     ---       ?C?MEMCMP
      010000FBH   CODE     ---       ?C?PLDIIDATA
      00000000H   NUMBER   ---       ?C?XDATASEG
      010004D4H   CODE     ---       ?C_START
      01000000H   CODE     ---       ?C_STARTUP
      02000274H   XDATA    ---       __mem_avail__
      01000CD3H   CODE     ---       _delay_ms
      01000CACH   CODE     ---       _delay_us
      01000B7AH   CODE     ---       _getFIFOBytes
      010003F4H   CODE     ---       _getMotion6_packet
      01000EAAH   CODE     ---       _hal_w2_all_irq_enable
      01000E73H   CODE     ---       _hal_w2_alter_clock
      01000C0FH   CODE     ---       _hal_w2_configure_master
      01000E9FH   CODE     ---       _hal_w2_enable
      01000D32H   CODE     ---       _hal_w2_init_transfer
      01000E89H   CODE     ---       _hal_w2_irq_adr_match_enable
      01000E7EH   CODE     ---       _hal_w2_irq_stop_cond_enable
      01000997H   CODE     ---       _hal_w2_read
      01000E68H   CODE     ---       _hal_w2_respond_to_gen_adr
      01000DFBH   CODE     ---       _hal_w2_set_clk_freq
      01000E94H   CODE     ---       _hal_w2_set_op_mode
      01000F08H   CODE     ---       _hal_w2_set_slave_address
      01000A4EH   CODE     ---       _hal_w2_write
      01000BCAH   CODE     ---       _i2c_mpu_readBit
      010007B7H   CODE     ---       _i2c_mpu_readBits
      01000D44H   CODE     ---       _i2c_mpu_readByte
      010006FEH   CODE     ---       _i2c_mpu_readBytes
      010008BBH   CODE     ---       _i2c_mpu_writeBit
      0100069BH   CODE     ---       _i2c_mpu_writeBits
      01000D78H   CODE     ---       _i2c_mpu_writeByte
      01000A14H   CODE     ---       _i2c_mpu_writeBytes
      01000D0DH   CODE     ---       _i2c_mpu_writeWord
      01000865H   CODE     ---       _i2c_mpu_writeWords
      0100000EH   CODE     ---       _init_mempool
      01000C4FH   CODE     ---       _putstring
      01000ABBH   CODE     ---       _send_packet_from_host_to_computer
      01000A86H   CODE     ---       _send_packet_to_computer
      0100080FH   CODE     ---       _send_packet_to_host
      01000E5DH   CODE     ---       _setDMPEnabled
      01000CBBH   CODE     ---       _setMemoryBank
      01000003H   CODE     ---       _setXAccelOffset
      01000F00H   CODE     ---       _setXGyroOffset
LX51 LINKER/LOCATER V4.66.62.0                                                        11/15/2016  19:57:29  PAGE 8


      01000EF0H   CODE     ---       _setYAccelOffset
      01000E47H   CODE     ---       _setYGyroOffset
      01000EF8H   CODE     ---       _setZAccelOffset
      01000E52H   CODE     ---       _setZGyroOffset
      01000E17H   CODE     ---       _SPI_Read
      01000B4FH   CODE     ---       _SPI_Read_Buf
      01000EC9H   CODE     ---       _SPI_RW
      01000CFAH   CODE     ---       _SPI_RW_Reg
      01000C30H   CODE     ---       _SPI_Write_Buf
      01000B23H   CODE     ---       _TX_Mode_NOACK
      01000D70H   CODE     ---       _uart_putchar
*SFR* 000000D0H.6 DATA     BIT       AC
*SFR* 000000E0H   DATA     BYTE      ACC
*SFR* 000000D3H   DATA     BYTE      ADCCON1
*SFR* 000000D2H   DATA     BYTE      ADCCON2
*SFR* 000000D1H   DATA     BYTE      ADCCON3
*SFR* 000000D4H   DATA     BYTE      ADCDATH
*SFR* 000000D5H   DATA     BYTE      ADCDATL
*SFR* 000000D8H   DATA     BYTE      ADCON
      0000000CH   DATA     ---       ADDR_HOST
      02000000H   XDATA    ---       another_randon_variable
*SFR* 000000EFH   DATA     BYTE      ARCON
*SFR* 000000F0H   DATA     BYTE      B
*SFR* 000000D8H.7 DATA     BIT       BD
      02000266H   XDATA    ---       buffer
*SFR* 000000C2H   DATA     WORD      CC1
*SFR* 000000C4H   DATA     WORD      CC2
*SFR* 000000C6H   DATA     WORD      CC3
*SFR* 000000C1H   DATA     BYTE      CCEN
*SFR* 000000C3H   DATA     BYTE      CCH1
*SFR* 000000C5H   DATA     BYTE      CCH2
*SFR* 000000C7H   DATA     BYTE      CCH3
*SFR* 000000C2H   DATA     BYTE      CCL1
*SFR* 000000C4H   DATA     BYTE      CCL2
*SFR* 000000C6H   DATA     BYTE      CCL3
*SFR* 000000DDH   DATA     BYTE      CCPDATIA
*SFR* 000000DEH   DATA     BYTE      CCPDATIB
*SFR* 000000DFH   DATA     BYTE      CCPDATO
*SFR* 000000A3H   DATA     BYTE      CLKCTRL
*SFR* 000000ADH   DATA     BYTE      CLKLFCTRL
*SFR* 000000DBH   DATA     BYTE      COMPCON
*SFR* 000000CAH   DATA     WORD      CRC
*SFR* 000000CBH   DATA     BYTE      CRCH
*SFR* 000000CAH   DATA     BYTE      CRCL
*SFR* 000000D0H.7 DATA     BIT       CY
      0000005DH   DATA     BYTE      data_ready
      010016FCH   CONST    ---       dmpConfig
      01000EE7H   CODE     ---       dmpGetFIFOPacketSize
      01000F73H   CONST    ---       dmpMemory
      00000014H   DATA     ---       dmpPacketBuffer
      02000253H   XDATA    WORD      dmpPacketSize
      010017BCH   CONST    ---       dmpUpdates
*SFR* 00000083H   DATA     BYTE      DPH
*SFR* 00000085H   DATA     BYTE      DPH1
*SFR* 00000082H   DATA     BYTE      DPL
*SFR* 00000084H   DATA     BYTE      DPL1
*SFR* 00000092H   DATA     BYTE      DPS
*SFR* 000000A8H.7 DATA     BIT       EA
*SFR* 000000A8H.4 DATA     BIT       ES0
*SFR* 000000A8H.1 DATA     BIT       ET0
*SFR* 000000A8H.3 DATA     BIT       ET1
*SFR* 000000A8H.5 DATA     BIT       ET2
*SFR* 000000A8H   DATA     BIT       EX0
*SFR* 000000A8H.2 DATA     BIT       EX1
*SFR* 000000B8H.7 DATA     BIT       EXEN2
LX51 LINKER/LOCATER V4.66.62.0                                                        11/15/2016  19:57:29  PAGE 9


*SFR* 000000C0H.7 DATA     BIT       EXF2
*SFR* 000000D0H.5 DATA     BIT       F0
*SFR* 000000FAH   DATA     BYTE      FCR
*SFR* 000000FBH   DATA     BYTE      FDCR
*SFR* 000000F9H   DATA     BYTE      FPCR
*SFR* 000000F8H   DATA     BYTE      FSR
      01000DEDH   CODE     ---       getFIFOCount
      01000CE7H   CODE     ---       getIntStatus
      01000D99H   CODE     ---       getXAccelOffset
      01000DC3H   CODE     ---       getXGyroOffset
      01000DA7H   CODE     ---       getYAccelOffset
      01000DD1H   CODE     ---       getYGyroOffset
      01000DB5H   CODE     ---       getZAccelOffset
      01000DDFH   CODE     ---       getZGyroOffset
      01000628H   CODE     ---       hal_w2_soft_reset
      01000BA3H   CODE     ---       hal_w2_wait_data_ready
      01000ED3H   CODE     ---       hal_w2_wait_data_ready_ISR
      02000255H   XDATA    ---       hexchars
      02000042H   XDATA    ---       hexchars2
      010009D9H   CODE     ---       I2C_IRQ
      01000EDDH   CODE     ---       I2C_IRQ_handler
*SFR* 000000C8H.5 DATA     BIT       I2FR
*SFR* 000000C8H.6 DATA     BIT       I3FR
*SFR* 00000088H.1 DATA     BIT       IE0
*SFR* 00000088H.3 DATA     BIT       IE1
*SFR* 000000A8H   DATA     BYTE      IEN0
*SFR* 000000B8H   DATA     BYTE      IEN1
      00000011H   DATA     INT       ii
*SFR* 000000F8H.3 DATA     BIT       INFEN
      01000D20H   CODE     ---       iniciarIO
      01000E30H   CODE     ---       iniciarRF
*SFR* 000000A6H   DATA     BYTE      INTEXP
*SFR* 000000A9H   DATA     BYTE      IP0
*SFR* 000000B9H   DATA     BYTE      IP1
*SFR* 000000C0H   DATA     BYTE      IRCON
*SFR* 00000088H   DATA     BIT       IT0
*SFR* 00000088H.2 DATA     BIT       IT1
*SFR* 00000080H.3 DATA     BIT       LEDVM
      01000C6BH   CODE     ---       luzes_iniciais
      010002B5H   CODE     ---       main
      02000053H   XDATA    ---       malloc_memory_pool
      00000020H.4 DATA     BIT       MAX_RT
*SFR* 000000F8H.7 DATA     BIT       MCDIS
*SFR* 000000E9H   DATA     BYTE      MD0
*SFR* 000000EAH   DATA     BYTE      MD1
*SFR* 000000EBH   DATA     BYTE      MD2
*SFR* 000000ECH   DATA     BYTE      MD3
*SFR* 000000EDH   DATA     BYTE      MD4
*SFR* 000000EEH   DATA     BYTE      MD5
*SFR* 000000A7H   DATA     BYTE      MEMCON
*SFR* 000000B8H.4 DATA     BIT       MISC
*SFR* 000000C0H.4 DATA     BIT       MISCF
*SFR* 000000C9H   DATA     BYTE      MPAGE
      01000E3CH   CODE     ---       mpu_8051_malloc_setup
      01000AF0H   CODE     ---       mpu_initialize
      01000BEEH   CODE     ---       mpu_testConnection
      00000021H.0 BIT      BIT       newPayload
*SFR* 000000AEH   DATA     BYTE      OPMCON
*SFR* 000000D0H.2 DATA     BIT       OV
*SFR* 000000D0H   DATA     BIT       P
*SFR* 00000080H   DATA     BYTE      P0
*SFR* 00000080H   DATA     BIT       P00
*SFR* 00000080H.1 DATA     BIT       P01
*SFR* 00000080H.2 DATA     BIT       P02
*SFR* 00000080H.3 DATA     BIT       P03
LX51 LINKER/LOCATER V4.66.62.0                                                        11/15/2016  19:57:29  PAGE 10


*SFR* 00000080H.4 DATA     BIT       P04
*SFR* 00000080H.5 DATA     BIT       P05
*SFR* 00000080H.6 DATA     BIT       P06
*SFR* 00000080H.7 DATA     BIT       P07
*SFR* 0000009EH   DATA     BYTE      P0CON
*SFR* 00000093H   DATA     BYTE      P0DIR
*SFR* 00000090H   DATA     BYTE      P1
*SFR* 00000090H   DATA     BIT       P10
*SFR* 00000090H.1 DATA     BIT       P11
*SFR* 00000090H.2 DATA     BIT       P12
*SFR* 00000090H.3 DATA     BIT       P13
*SFR* 00000090H.4 DATA     BIT       P14
*SFR* 00000090H.5 DATA     BIT       P15
*SFR* 00000090H.6 DATA     BIT       P16
*SFR* 00000090H.7 DATA     BIT       P17
*SFR* 0000009FH   DATA     BYTE      P1CON
*SFR* 00000094H   DATA     BYTE      P1DIR
*SFR* 000000A0H   DATA     BYTE      P2
*SFR* 000000A0H   DATA     BIT       P20
*SFR* 000000A0H.1 DATA     BIT       P21
*SFR* 000000A0H.2 DATA     BIT       P22
*SFR* 000000A0H.3 DATA     BIT       P23
*SFR* 000000A0H.4 DATA     BIT       P24
*SFR* 000000A0H.5 DATA     BIT       P25
*SFR* 000000A0H.6 DATA     BIT       P26
*SFR* 000000A0H.7 DATA     BIT       P27
*SFR* 00000097H   DATA     BYTE      P2CON
*SFR* 00000095H   DATA     BYTE      P2DIR
*SFR* 000000B0H   DATA     BYTE      P3
*SFR* 000000B0H   DATA     BIT       P30
*SFR* 000000B0H.1 DATA     BIT       P31
*SFR* 000000B0H.2 DATA     BIT       P32
*SFR* 000000B0H.3 DATA     BIT       P33
*SFR* 000000B0H.4 DATA     BIT       P34
*SFR* 000000B0H.5 DATA     BIT       P35
*SFR* 000000B0H.6 DATA     BIT       P36
*SFR* 000000B0H.7 DATA     BIT       P37
*SFR* 0000008FH   DATA     BYTE      P3CON
*SFR* 00000096H   DATA     BYTE      P3DIR
      02000247H   XDATA    ---       packet_motion6
      00000013H   DATA     BYTE      payloadWidth
*SFR* 00000087H   DATA     BYTE      PCON
*SFR* 000000DCH   DATA     BYTE      POFCON
      0000000AH   DATA     ---       poxa
*SFR* 000000D0H   DATA     BYTE      PSW
*SFR* 000000B2H   DATA     BYTE      PWMCON
*SFR* 000000A1H   DATA     BYTE      PWMDC0
*SFR* 000000A2H   DATA     BYTE      PWMDC1
*SFR* 000000A4H   DATA     BYTE      PWRDWN
*SFR* 00000098H.2 DATA     BIT       RB80
*SFR* 000000F8H.1 DATA     BIT       RDEND
*SFR* 000000F8H.2 DATA     BIT       RDIS
*SFR* 000000F8H.4 DATA     BIT       RDYN
*SFR* 00000098H.4 DATA     BIT       REN0
      01000E24H   CODE     ---       resetFIFO
*SFR* 000000B8H.1 DATA     BIT       RF
      01000952H   CODE     ---       rf_init
      010005A2H   CODE     ---       RF_IRQ
*SFR* 000000E8H   DATA     BIT       RFCE
*SFR* 000000E8H.2 DATA     BIT       RFCKEN
*SFR* 000000E8H   DATA     BYTE      RFCON
*SFR* 000000E8H.1 DATA     BIT       RFCSN
*SFR* 000000C0H.1 DATA     BIT       RFF
*SFR* 000000B8H   DATA     BIT       RFSPI
*SFR* 000000C0H   DATA     BIT       RFSPIF
LX51 LINKER/LOCATER V4.66.62.0                                                        11/15/2016  19:57:29  PAGE 11


*SFR* 00000098H   DATA     BIT       RI0
*SFR* 000000D6H   DATA     BYTE      RNGCTL
*SFR* 000000D7H   DATA     BYTE      RNGDAT
*SFR* 000000D0H.3 DATA     BIT       RS0
*SFR* 000000D0H.4 DATA     BIT       RS1
*SFR* 000000B1H   DATA     BYTE      RSTREAS
*SFR* 000000B4H   DATA     BYTE      RTC2CMP0
*SFR* 000000B5H   DATA     BYTE      RTC2CMP1
*SFR* 000000B3H   DATA     BYTE      RTC2CON
*SFR* 000000B6H   DATA     BYTE      RTC2CPT00
*SFR* 000000ABH   DATA     BYTE      RTC2CPT01
*SFR* 000000ACH   DATA     BYTE      RTC2CPT10
      02000002H   XDATA    ---       rx_buf
      00000020H.6 DATA     BIT       RX_DR
      01000D56H   CODE     ---       RX_Mode
*SFR* 00000099H   DATA     BYTE      S0BUF
*SFR* 00000098H   DATA     BYTE      S0CON
*SFR* 000000BAH   DATA     BYTE      S0RELH
*SFR* 000000AAH   DATA     BYTE      S0RELL
*SFR* 00000080H.2 DATA     BIT       S1
*SFR* 00000090H.4 DATA     BIT       S2
      01000519H   CODE     ---       setup
*SFR* 00000098H.7 DATA     BIT       SM0
*SFR* 00000098H.6 DATA     BIT       SM1
*SFR* 00000098H.5 DATA     BIT       SM20
*SFR* 00000081H   DATA     BYTE      SP
*SFR* 000000B8H.2 DATA     BIT       SPI
*SFR* 000000C0H.2 DATA     BIT       SPIF
*SFR* 000000FCH   DATA     BYTE      SPIMCON0
*SFR* 000000FDH   DATA     BYTE      SPIMCON1
*SFR* 000000FFH   DATA     BYTE      SPIMDAT
*SFR* 000000FEH   DATA     BYTE      SPIMSTAT
*SFR* 000000E4H   DATA     BYTE      SPIRCON0
*SFR* 000000E5H   DATA     BYTE      SPIRCON1
*SFR* 000000E7H   DATA     BYTE      SPIRDAT
*SFR* 000000E6H   DATA     BYTE      SPIRSTAT
*SFR* 000000BCH   DATA     BYTE      SPISCON0
*SFR* 000000BDH   DATA     BYTE      SPISCON1
*SFR* 000000BFH   DATA     BYTE      SPISDAT
*SFR* 000000B7H   DATA     BYTE      SPISRDSZ
*SFR* 000000BEH   DATA     BYTE      SPISSTAT
      00000020H   DATA     BYTE      sta
      01000EB5H   CODE     ---       start_T0
      01000EBFH   CODE     ---       stop_T0
*SFR* 000000F8H.6 DATA     BIT       STP
*SFR* 000000CCH   DATA     WORD      T2
*SFR* 000000C8H.2 DATA     BIT       T2CM
*SFR* 000000C8H   DATA     BYTE      T2CON
*SFR* 000000C8H   DATA     BIT       T2I0
*SFR* 000000C8H.1 DATA     BIT       T2I1
*SFR* 000000C8H.7 DATA     BIT       T2PS
*SFR* 000000C8H.3 DATA     BIT       T2R0
*SFR* 000000C8H.4 DATA     BIT       T2R1
*SFR* 00000098H.3 DATA     BIT       TB80
*SFR* 00000088H   DATA     BYTE      TCON
*SFR* 00000088H.5 DATA     BIT       TF0
*SFR* 00000088H.7 DATA     BIT       TF1
*SFR* 000000C0H.6 DATA     BIT       TF2
*SFR* 0000008CH   DATA     BYTE      TH0
*SFR* 0000008DH   DATA     BYTE      TH1
*SFR* 000000CDH   DATA     BYTE      TH2
*SFR* 00000098H.1 DATA     BIT       TI0
      00000008H   DATA     INT       timer_flag
*SFR* 0000008AH   DATA     BYTE      TL0
*SFR* 0000008BH   DATA     BYTE      TL1
LX51 LINKER/LOCATER V4.66.62.0                                                        11/15/2016  19:57:29  PAGE 12


*SFR* 000000CCH   DATA     BYTE      TL2
*SFR* 00000089H   DATA     BYTE      TMOD
      01000D89H   CODE     ---       TMR0_IRQ
*SFR* 00000088H.4 DATA     BIT       TR0
*SFR* 00000088H.6 DATA     BIT       TR1
      02000022H   XDATA    ---       tx_buf
      00000020H.5 DATA     BIT       TX_DS
      01000C87H   CODE     ---       uart_init
      0000005EH   DATA     BYTE      w2_status
*SFR* 000000E2H   DATA     BYTE      W2CON0
*SFR* 000000E1H   DATA     BYTE      W2CON1
*SFR* 000000DAH   DATA     BYTE      W2DAT
*SFR* 000000D9H   DATA     BYTE      W2SADR
*SFR* 000000AFH   DATA     BYTE      WDSV
*SFR* 000000F8H.5 DATA     BIT       WEN
*SFR* 000000F8H   DATA     BIT       WPEN
*SFR* 000000A5H   DATA     BYTE      WUCON
*SFR* 000000C0H.5 DATA     BIT       WUF
*SFR* 000000B8H.5 DATA     BIT       WUIRQ
*SFR* 000000CFH   DATA     BYTE      WUOPC0
*SFR* 000000CEH   DATA     BYTE      WUOPC1
*SFR* 000000B8H.3 DATA     BIT       WUPIN
*SFR* 000000C0H.3 DATA     BIT       WUPINF



SYMBOL TABLE OF MODULE:  FProject (?C_STARTUP)

      VALUE       REP       CLASS    TYPE      SYMBOL NAME
      ====================================================
      ---         MODULE    ---      ---       ?C_STARTUP
      01000000H   PUBLIC    CODE     ---       ?C_STARTUP
      000000E0H   SYMBOL    DATA     ---       ACC
      000000F0H   SYMBOL    DATA     ---       B
      00000083H   SYMBOL    DATA     ---       DPH
      00000082H   SYMBOL    DATA     ---       DPL
      00000000H   SYMBOL    NUMBER   ---       IBPSTACK
      00000100H   SYMBOL    NUMBER   ---       IBPSTACKTOP
      00000080H   SYMBOL    NUMBER   ---       IDATALEN
      01000490H   SYMBOL    CODE     ---       IDATALOOP
      00000000H   SYMBOL    NUMBER   ---       PBPSTACK
      00000100H   SYMBOL    NUMBER   ---       PBPSTACKTOP
      00000000H   SYMBOL    NUMBER   ---       PDATALEN
      00000000H   SYMBOL    NUMBER   ---       PDATASTART
      00000000H   SYMBOL    NUMBER   ---       PPAGE
      00000000H   SYMBOL    NUMBER   ---       PPAGEENABLE
      000000A0H   SYMBOL    DATA     ---       PPAGE_SFR
      00000081H   SYMBOL    DATA     ---       SP
      0100048DH   SYMBOL    CODE     ---       STARTUP1
      00000000H   SYMBOL    NUMBER   ---       XBPSTACK
      00000000H   SYMBOL    NUMBER   ---       XBPSTACKTOP
      00000000H   SYMBOL    NUMBER   ---       XDATALEN
      00000000H   SYMBOL    NUMBER   ---       XDATASTART
      01000000H   LINE      CODE     ---       #126
      0100048DH   LINE      CODE     ---       #133
      0100048FH   LINE      CODE     ---       #134
      01000490H   LINE      CODE     ---       #135
      01000491H   LINE      CODE     ---       #136
      01000493H   LINE      CODE     ---       #185
      01000496H   LINE      CODE     ---       #196

      ---         MODULE    ---      ---       MAIN
      02000266H   PUBLIC    XDATA    ---       buffer
      00000014H   PUBLIC    DATA     ---       dmpPacketBuffer
      00000013H   PUBLIC    DATA     BYTE      payloadWidth
LX51 LINKER/LOCATER V4.66.62.0                                                        11/15/2016  19:57:29  PAGE 13


      00000020H.4 PUBLIC    DATA     BIT       MAX_RT
      02000255H   PUBLIC    XDATA    ---       hexchars
      00000011H   PUBLIC    DATA     INT       ii
      02000253H   PUBLIC    XDATA    WORD      dmpPacketSize
      0000000CH   PUBLIC    DATA     ---       ADDR_HOST
      0000000AH   PUBLIC    DATA     ---       poxa
      02000247H   PUBLIC    XDATA    ---       packet_motion6
      00000020H.5 PUBLIC    DATA     BIT       TX_DS
      00000008H   PUBLIC    DATA     INT       timer_flag
      00000020H.6 PUBLIC    DATA     BIT       RX_DR
      00000020H   PUBLIC    DATA     BYTE      sta
      00000021H.0 PUBLIC    BIT      BIT       newPayload
      02000053H   PUBLIC    XDATA    ---       malloc_memory_pool
      02000042H   PUBLIC    XDATA    ---       hexchars2
      02000022H   PUBLIC    XDATA    ---       tx_buf
      02000002H   PUBLIC    XDATA    ---       rx_buf
      02000000H   PUBLIC    XDATA    ---       another_randon_variable
      010017BCH   PUBLIC    CONST    ---       dmpUpdates
      010016FCH   PUBLIC    CONST    ---       dmpConfig
      01000F73H   PUBLIC    CONST    ---       dmpMemory
      010009D9H   PUBLIC    CODE     ---       I2C_IRQ
      01000C6BH   PUBLIC    CODE     ---       luzes_iniciais
      010002B5H   PUBLIC    CODE     ---       main
      01000519H   PUBLIC    CODE     ---       setup
      01000D20H   PUBLIC    CODE     ---       iniciarIO
      00000055H   PUBLIC    DATA     BYTE      ?_send_packet_from_host_to_computer?BYTE
      01000ABBH   PUBLIC    CODE     ---       _send_packet_from_host_to_computer
      00000050H   PUBLIC    DATA     BYTE      ?_send_packet_to_computer?BYTE
      01000A86H   PUBLIC    CODE     ---       _send_packet_to_computer
      00000022H   PUBLIC    DATA     BYTE      ?_send_packet_to_host?BYTE
      0100080FH   PUBLIC    CODE     ---       _send_packet_to_host
      01000C4FH   PUBLIC    CODE     ---       _putstring
      01000D70H   PUBLIC    CODE     ---       _uart_putchar
      01000C87H   PUBLIC    CODE     ---       uart_init
      01000E30H   PUBLIC    CODE     ---       iniciarRF
      01000952H   PUBLIC    CODE     ---       rf_init
      010005A2H   PUBLIC    CODE     ---       RF_IRQ
      01000B23H   PUBLIC    CODE     ---       _TX_Mode_NOACK
      01000D56H   PUBLIC    CODE     ---       RX_Mode
      00000029H   PUBLIC    DATA     BYTE      ?_SPI_Write_Buf?BYTE
      01000C30H   PUBLIC    CODE     ---       _SPI_Write_Buf
      00000038H   PUBLIC    DATA     BYTE      ?_SPI_Read_Buf?BYTE
      01000B4FH   PUBLIC    CODE     ---       _SPI_Read_Buf
      01000E17H   PUBLIC    CODE     ---       _SPI_Read
      01000CFAH   PUBLIC    CODE     ---       _SPI_RW_Reg
      01000EC9H   PUBLIC    CODE     ---       _SPI_RW
      01000EBFH   PUBLIC    CODE     ---       stop_T0
      01000EB5H   PUBLIC    CODE     ---       start_T0
      01000D89H   PUBLIC    CODE     ---       TMR0_IRQ
      01000B7AH   PUBLIC    CODE     ---       _getFIFOBytes
      01000EE7H   PUBLIC    CODE     ---       dmpGetFIFOPacketSize
      01000E24H   PUBLIC    CODE     ---       resetFIFO
      01000E5DH   PUBLIC    CODE     ---       _setDMPEnabled
      01000CE7H   PUBLIC    CODE     ---       getIntStatus
      01000DEDH   PUBLIC    CODE     ---       getFIFOCount
      01000CBBH   PUBLIC    CODE     ---       _setMemoryBank
      01000DDFH   PUBLIC    CODE     ---       getZGyroOffset
      01000DD1H   PUBLIC    CODE     ---       getYGyroOffset
      01000DC3H   PUBLIC    CODE     ---       getXGyroOffset
      01000DB5H   PUBLIC    CODE     ---       getZAccelOffset
      01000DA7H   PUBLIC    CODE     ---       getYAccelOffset
      01000D99H   PUBLIC    CODE     ---       getXAccelOffset
      01000E52H   PUBLIC    CODE     ---       _setZGyroOffset
      01000E47H   PUBLIC    CODE     ---       _setYGyroOffset
      01000F00H   PUBLIC    CODE     ---       _setXGyroOffset
LX51 LINKER/LOCATER V4.66.62.0                                                        11/15/2016  19:57:29  PAGE 14


      01000EF8H   PUBLIC    CODE     ---       _setZAccelOffset
      01000EF0H   PUBLIC    CODE     ---       _setYAccelOffset
      01000003H   PUBLIC    CODE     ---       _setXAccelOffset
      010003F4H   PUBLIC    CODE     ---       _getMotion6_packet
      01000BEEH   PUBLIC    CODE     ---       mpu_testConnection
      01000AF0H   PUBLIC    CODE     ---       mpu_initialize
      01000E3CH   PUBLIC    CODE     ---       mpu_8051_malloc_setup
      00000098H.3 SFRSYM    DATA     BIT       TB80
      000000BEH   SFRSYM    DATA     BYTE      SPISSTAT
      000000C8H   SFRSYM    DATA     BIT       T2I0
      000000C3H   SFRSYM    DATA     BYTE      CCH1
      00000080H   SFRSYM    DATA     BYTE      P0
      000000C8H.1 SFRSYM    DATA     BIT       T2I1
      000000DFH   SFRSYM    DATA     BYTE      CCPDATO
      000000C5H   SFRSYM    DATA     BYTE      CCH2
      00000090H   SFRSYM    DATA     BYTE      P1
      000000C7H   SFRSYM    DATA     BYTE      CCH3
      000000A0H   SFRSYM    DATA     BYTE      P2
      00000098H.5 SFRSYM    DATA     BIT       SM20
      000000B0H   SFRSYM    DATA     BYTE      P3
      00000080H.2 SFRSYM    DATA     BIT       S1
      000000D0H.6 SFRSYM    DATA     BIT       AC
      000000C2H   SFRSYM    DATA     BYTE      CCL1
      00000090H.4 SFRSYM    DATA     BIT       S2
      000000C4H   SFRSYM    DATA     BYTE      CCL2
      000000D8H.7 SFRSYM    DATA     BIT       BD
      000000B8H   SFRSYM    DATA     BIT       RFSPI
      000000A8H.7 SFRSYM    DATA     BIT       EA
      000000CCH   SFRSYM    DATA     WORD      T2
      000000C6H   SFRSYM    DATA     BYTE      CCL3
      000000B7H   SFRSYM    DATA     BYTE      SPISRDSZ
      000000C8H.3 SFRSYM    DATA     BIT       T2R0
      000000C8H.4 SFRSYM    DATA     BIT       T2R1
      000000A8H   SFRSYM    DATA     BYTE      IEN0
      000000B8H   SFRSYM    DATA     BYTE      IEN1
      000000A5H   SFRSYM    DATA     BYTE      WUCON
      00000085H   SFRSYM    DATA     BYTE      DPH1
      000000DBH   SFRSYM    DATA     BYTE      COMPCON
      000000A3H   SFRSYM    DATA     BYTE      CLKCTRL
      00000084H   SFRSYM    DATA     BYTE      DPL1
      000000C8H.5 SFRSYM    DATA     BIT       I2FR
      000000B8H.3 SFRSYM    DATA     BIT       WUPIN
      000000C8H.6 SFRSYM    DATA     BIT       I3FR
      000000FFH   SFRSYM    DATA     BYTE      SPIMDAT
      000000C0H.7 SFRSYM    DATA     BIT       EXF2
      00000098H.4 SFRSYM    DATA     BIT       REN0
      000000C8H.2 SFRSYM    DATA     BIT       T2CM
      000000B8H.1 SFRSYM    DATA     BIT       RF
      000000B8H.5 SFRSYM    DATA     BIT       WUIRQ
      000000E7H   SFRSYM    DATA     BYTE      SPIRDAT
      000000C1H   SFRSYM    DATA     BYTE      CCEN
      000000E2H   SFRSYM    DATA     BYTE      W2CON0
      000000BFH   SFRSYM    DATA     BYTE      SPISDAT
      000000D0H.7 SFRSYM    DATA     BIT       CY
      000000E1H   SFRSYM    DATA     BYTE      W2CON1
      000000FBH   SFRSYM    DATA     BYTE      FDCR
      000000E8H   SFRSYM    DATA     BIT       RFCE
      000000CBH   SFRSYM    DATA     BYTE      CRCH
      00000081H   SFRSYM    DATA     BYTE      SP
      000000D0H.2 SFRSYM    DATA     BIT       OV
      000000CAH   SFRSYM    DATA     BYTE      CRCL
      000000ADH   SFRSYM    DATA     BYTE      CLKLFCTRL
      000000B1H   SFRSYM    DATA     BYTE      RSTREAS
      000000C8H.7 SFRSYM    DATA     BIT       T2PS
      000000F9H   SFRSYM    DATA     BYTE      FPCR
LX51 LINKER/LOCATER V4.66.62.0                                                        11/15/2016  19:57:29  PAGE 15


      000000B8H.4 SFRSYM    DATA     BIT       MISC
      000000A1H   SFRSYM    DATA     BYTE      PWMDC0
      000000B4H   SFRSYM    DATA     BYTE      RTC2CMP0
      000000A2H   SFRSYM    DATA     BYTE      PWMDC1
      000000B5H   SFRSYM    DATA     BYTE      RTC2CMP1
      00000080H   SFRSYM    DATA     BIT       P00
      000000BAH   SFRSYM    DATA     BYTE      S0RELH
      00000090H   SFRSYM    DATA     BIT       P10
      00000080H.1 SFRSYM    DATA     BIT       P01
      00000087H   SFRSYM    DATA     BYTE      PCON
      000000A0H   SFRSYM    DATA     BIT       P20
      00000090H.1 SFRSYM    DATA     BIT       P11
      00000080H.2 SFRSYM    DATA     BIT       P02
      000000B0H   SFRSYM    DATA     BIT       P30
      000000A0H.1 SFRSYM    DATA     BIT       P21
      00000090H.2 SFRSYM    DATA     BIT       P12
      00000080H.3 SFRSYM    DATA     BIT       P03
      000000C0H.2 SFRSYM    DATA     BIT       SPIF
      000000F8H.2 SFRSYM    DATA     BIT       RDIS
      000000B0H.1 SFRSYM    DATA     BIT       P31
      000000A0H.2 SFRSYM    DATA     BIT       P22
      00000090H.3 SFRSYM    DATA     BIT       P13
      00000080H.4 SFRSYM    DATA     BIT       P04
      000000AAH   SFRSYM    DATA     BYTE      S0RELL
      000000B0H.2 SFRSYM    DATA     BIT       P32
      000000A0H.3 SFRSYM    DATA     BIT       P23
      00000090H.4 SFRSYM    DATA     BIT       P14
      00000080H.5 SFRSYM    DATA     BIT       P05
      000000D9H   SFRSYM    DATA     BYTE      W2SADR
      00000089H   SFRSYM    DATA     BYTE      TMOD
      00000088H   SFRSYM    DATA     BYTE      TCON
      000000B0H.3 SFRSYM    DATA     BIT       P33
      000000A0H.4 SFRSYM    DATA     BIT       P24
      00000090H.5 SFRSYM    DATA     BIT       P15
      00000080H.6 SFRSYM    DATA     BIT       P06
      000000B0H.4 SFRSYM    DATA     BIT       P34
      000000A0H.5 SFRSYM    DATA     BIT       P25
      00000090H.6 SFRSYM    DATA     BIT       P16
      00000080H.7 SFRSYM    DATA     BIT       P07
      000000C2H   SFRSYM    DATA     WORD      CC1
      000000B0H.5 SFRSYM    DATA     BIT       P35
      000000A0H.6 SFRSYM    DATA     BIT       P26
      00000090H.7 SFRSYM    DATA     BIT       P17
      000000C4H   SFRSYM    DATA     WORD      CC2
      000000B0H.6 SFRSYM    DATA     BIT       P36
      000000A0H.7 SFRSYM    DATA     BIT       P27
      000000C6H   SFRSYM    DATA     WORD      CC3
      000000B0H.7 SFRSYM    DATA     BIT       P37
      000000E8H.2 SFRSYM    DATA     BIT       RFCKEN
      000000F8H   SFRSYM    DATA     BIT       WPEN
      000000DDH   SFRSYM    DATA     BYTE      CCPDATIA
      000000DEH   SFRSYM    DATA     BYTE      CCPDATIB
      00000088H.1 SFRSYM    DATA     BIT       IE0
      000000F8H.4 SFRSYM    DATA     BIT       RDYN
      00000088H.3 SFRSYM    DATA     BIT       IE1
      000000CFH   SFRSYM    DATA     BYTE      WUOPC0
      000000F0H   SFRSYM    DATA     BYTE      B
      000000E9H   SFRSYM    DATA     BYTE      MD0
      000000CEH   SFRSYM    DATA     BYTE      WUOPC1
      000000A7H   SFRSYM    DATA     BYTE      MEMCON
      000000EAH   SFRSYM    DATA     BYTE      MD1
      000000D7H   SFRSYM    DATA     BYTE      RNGDAT
      000000EBH   SFRSYM    DATA     BYTE      MD2
      000000ECH   SFRSYM    DATA     BYTE      MD3
      000000EDH   SFRSYM    DATA     BYTE      MD4
LX51 LINKER/LOCATER V4.66.62.0                                                        11/15/2016  19:57:29  PAGE 16


      000000AFH   SFRSYM    DATA     BYTE      WDSV
      000000EEH   SFRSYM    DATA     BYTE      MD5
      000000E0H   SFRSYM    DATA     BYTE      ACC
      000000DCH   SFRSYM    DATA     BYTE      POFCON
      000000A8H.4 SFRSYM    DATA     BIT       ES0
      000000A8H.1 SFRSYM    DATA     BIT       ET0
      000000A9H   SFRSYM    DATA     BYTE      IP0
      000000A8H.3 SFRSYM    DATA     BIT       ET1
      00000088H.5 SFRSYM    DATA     BIT       TF0
      000000B9H   SFRSYM    DATA     BYTE      IP1
      000000A8H.5 SFRSYM    DATA     BIT       ET2
      00000098H   SFRSYM    DATA     BIT       RI0
      00000088H.7 SFRSYM    DATA     BIT       TF1
      000000C0H   SFRSYM    DATA     BIT       RFSPIF
      000000C0H.6 SFRSYM    DATA     BIT       TF2
      000000FCH   SFRSYM    DATA     BYTE      SPIMCON0
      000000D6H   SFRSYM    DATA     BYTE      RNGCTL
      0000008CH   SFRSYM    DATA     BYTE      TH0
      000000A8H   SFRSYM    DATA     BIT       EX0
      00000098H.1 SFRSYM    DATA     BIT       TI0
      00000088H   SFRSYM    DATA     BIT       IT0
      000000FDH   SFRSYM    DATA     BYTE      SPIMCON1
      0000008DH   SFRSYM    DATA     BYTE      TH1
      000000A8H.2 SFRSYM    DATA     BIT       EX1
      00000088H.2 SFRSYM    DATA     BIT       IT1
      000000CDH   SFRSYM    DATA     BYTE      TH2
      000000AEH   SFRSYM    DATA     BYTE      OPMCON
      000000D0H   SFRSYM    DATA     BIT       P
      00000098H.7 SFRSYM    DATA     BIT       SM0
      0000008AH   SFRSYM    DATA     BYTE      TL0
      00000098H.6 SFRSYM    DATA     BIT       SM1
      000000E4H   SFRSYM    DATA     BYTE      SPIRCON0
      0000008BH   SFRSYM    DATA     BYTE      TL1
      000000E5H   SFRSYM    DATA     BYTE      SPIRCON1
      000000CCH   SFRSYM    DATA     BYTE      TL2
      000000BCH   SFRSYM    DATA     BYTE      SPISCON0
      000000BDH   SFRSYM    DATA     BYTE      SPISCON1
      000000D0H.3 SFRSYM    DATA     BIT       RS0
      00000088H.4 SFRSYM    DATA     BIT       TR0
      000000D0H.4 SFRSYM    DATA     BIT       RS1
      000000B2H   SFRSYM    DATA     BYTE      PWMCON
      00000088H.6 SFRSYM    DATA     BIT       TR1
      000000CAH   SFRSYM    DATA     WORD      CRC
      000000A6H   SFRSYM    DATA     BYTE      INTEXP
      000000C0H.3 SFRSYM    DATA     BIT       WUPINF
      000000FAH   SFRSYM    DATA     BYTE      FCR
      000000D3H   SFRSYM    DATA     BYTE      ADCCON1
      000000D2H   SFRSYM    DATA     BYTE      ADCCON2
      00000083H   SFRSYM    DATA     BYTE      DPH
      000000D1H   SFRSYM    DATA     BYTE      ADCCON3
      000000C0H.1 SFRSYM    DATA     BIT       RFF
      00000093H   SFRSYM    DATA     BYTE      P0DIR
      00000082H   SFRSYM    DATA     BYTE      DPL
      0000009EH   SFRSYM    DATA     BYTE      P0CON
      00000099H   SFRSYM    DATA     BYTE      S0BUF
      00000094H   SFRSYM    DATA     BYTE      P1DIR
      0000009FH   SFRSYM    DATA     BYTE      P1CON
      00000095H   SFRSYM    DATA     BYTE      P2DIR
      000000B8H.7 SFRSYM    DATA     BIT       EXEN2
      000000DAH   SFRSYM    DATA     BYTE      W2DAT
      00000097H   SFRSYM    DATA     BYTE      P2CON
      00000096H   SFRSYM    DATA     BYTE      P3DIR
      000000A4H   SFRSYM    DATA     BYTE      PWRDWN
      00000098H   SFRSYM    DATA     BYTE      S0CON
      0000008FH   SFRSYM    DATA     BYTE      P3CON
LX51 LINKER/LOCATER V4.66.62.0                                                        11/15/2016  19:57:29  PAGE 17


      000000B6H   SFRSYM    DATA     BYTE      RTC2CPT00
      000000D8H   SFRSYM    DATA     BYTE      ADCON
      000000ACH   SFRSYM    DATA     BYTE      RTC2CPT10
      000000ABH   SFRSYM    DATA     BYTE      RTC2CPT01
      000000C8H   SFRSYM    DATA     BYTE      T2CON
      00000092H   SFRSYM    DATA     BYTE      DPS
      000000F8H.5 SFRSYM    DATA     BIT       WEN
      000000F8H   SFRSYM    DATA     BYTE      FSR
      000000D4H   SFRSYM    DATA     BYTE      ADCDATH
      000000C9H   SFRSYM    DATA     BYTE      MPAGE
      000000B8H.2 SFRSYM    DATA     BIT       SPI
      000000F8H.1 SFRSYM    DATA     BIT       RDEND
      000000D5H   SFRSYM    DATA     BYTE      ADCDATL
      000000F8H.3 SFRSYM    DATA     BIT       INFEN
      000000F8H.7 SFRSYM    DATA     BIT       MCDIS
      000000C0H.5 SFRSYM    DATA     BIT       WUF
      000000C0H.4 SFRSYM    DATA     BIT       MISCF
      000000EFH   SFRSYM    DATA     BYTE      ARCON
      000000D0H.5 SFRSYM    DATA     BIT       F0
      000000F8H.6 SFRSYM    DATA     BIT       STP
      000000FEH   SFRSYM    DATA     BYTE      SPIMSTAT
      00000080H.3 SFRSYM    DATA     BIT       LEDVM
      000000E8H   SFRSYM    DATA     BYTE      RFCON
      000000D0H   SFRSYM    DATA     BYTE      PSW
      00000098H.2 SFRSYM    DATA     BIT       RB80
      000000C0H   SFRSYM    DATA     BYTE      IRCON
      000000E8H.1 SFRSYM    DATA     BIT       RFCSN
      000000E6H   SFRSYM    DATA     BYTE      SPIRSTAT
      000000B3H   SFRSYM    DATA     BYTE      RTC2CON

      0100075BH   BLOCK     CODE     ---       LVL=0
      ---         BLOCKEND  ---      ---       LVL=0

      01000E3CH   BLOCK     CODE     ---       LVL=0
      01000E3CH   LINE      CODE     ---       #34
      01000E3CH   LINE      CODE     ---       #35
      ---         BLOCKEND  ---      ---       LVL=0

      01000AF0H   BLOCK     CODE     ---       LVL=0
      01000AF0H   LINE      CODE     ---       #38
      01000AF0H   LINE      CODE     ---       #39
      01000AFAH   LINE      CODE     ---       #40
      01000AFFH   LINE      CODE     ---       #41
      01000B09H   LINE      CODE     ---       #42
      01000B15H   LINE      CODE     ---       #43
      ---         BLOCKEND  ---      ---       LVL=0

      01000BEEH   BLOCK     CODE     ---       LVL=0
      01000BEEH   LINE      CODE     ---       #44
      01000BEEH   LINE      CODE     ---       #45
      01000C03H   LINE      CODE     ---       #46
      01000C0EH   LINE      CODE     ---       #47
      ---         BLOCKEND  ---      ---       LVL=0

      010003F4H   BLOCK     CODE     ---       LVL=0
      00000022H   SYMBOL    DATA     ---       packet6
      010003F4H   LINE      CODE     ---       #48
      010003FAH   LINE      CODE     ---       #49
      0100040CH   LINE      CODE     ---       #50
      01000419H   LINE      CODE     ---       #51
      01000429H   LINE      CODE     ---       #52
      01000433H   LINE      CODE     ---       #53
      0100043DH   LINE      CODE     ---       #54
      01000447H   LINE      CODE     ---       #55
      01000451H   LINE      CODE     ---       #56
LX51 LINKER/LOCATER V4.66.62.0                                                        11/15/2016  19:57:29  PAGE 18


      0100045BH   LINE      CODE     ---       #57
      01000465H   LINE      CODE     ---       #58
      0100046FH   LINE      CODE     ---       #59
      01000479H   LINE      CODE     ---       #60
      01000483H   LINE      CODE     ---       #61
      ---         BLOCKEND  ---      ---       LVL=0

      01000003H   BLOCK     CODE     ---       LVL=0
      00000002H   SYMBOL    DATA     INT       offset
      01000003H   LINE      CODE     ---       #63
      01000003H   LINE      CODE     ---       #64
      ---         BLOCKEND  ---      ---       LVL=0

      01000EF0H   BLOCK     CODE     ---       LVL=0
      00000002H   SYMBOL    DATA     INT       offset
      01000EF0H   LINE      CODE     ---       #66
      01000EF0H   LINE      CODE     ---       #67
      ---         BLOCKEND  ---      ---       LVL=0

      01000EF8H   BLOCK     CODE     ---       LVL=0
      00000002H   SYMBOL    DATA     INT       offset
      01000EF8H   LINE      CODE     ---       #69
      01000EF8H   LINE      CODE     ---       #70
      ---         BLOCKEND  ---      ---       LVL=0

      01000F00H   BLOCK     CODE     ---       LVL=0
      00000002H   SYMBOL    DATA     INT       offset
      01000F00H   LINE      CODE     ---       #72
      01000F00H   LINE      CODE     ---       #73
      ---         BLOCKEND  ---      ---       LVL=0

      01000E47H   BLOCK     CODE     ---       LVL=0
      00000002H   SYMBOL    DATA     INT       offset
      01000E47H   LINE      CODE     ---       #75
      01000E4BH   LINE      CODE     ---       #76
      ---         BLOCKEND  ---      ---       LVL=0

      01000E52H   BLOCK     CODE     ---       LVL=0
      00000002H   SYMBOL    DATA     INT       offset
      01000E52H   LINE      CODE     ---       #78
      01000E56H   LINE      CODE     ---       #79
      ---         BLOCKEND  ---      ---       LVL=0

      01000D99H   BLOCK     CODE     ---       LVL=0
      01000D99H   LINE      CODE     ---       #82
      01000D99H   LINE      CODE     ---       #83
      01000DA3H   LINE      CODE     ---       #84
      01000DA6H   LINE      CODE     ---       #85
      ---         BLOCKEND  ---      ---       LVL=0

      01000DA7H   BLOCK     CODE     ---       LVL=0
      01000DA7H   LINE      CODE     ---       #86
      01000DA7H   LINE      CODE     ---       #87
      01000DB1H   LINE      CODE     ---       #88
      01000DB4H   LINE      CODE     ---       #89
      ---         BLOCKEND  ---      ---       LVL=0

      01000DB5H   BLOCK     CODE     ---       LVL=0
      01000DB5H   LINE      CODE     ---       #90
      01000DB5H   LINE      CODE     ---       #91
      01000DBFH   LINE      CODE     ---       #92
      01000DC2H   LINE      CODE     ---       #93
      ---         BLOCKEND  ---      ---       LVL=0

      01000DC3H   BLOCK     CODE     ---       LVL=0
LX51 LINKER/LOCATER V4.66.62.0                                                        11/15/2016  19:57:29  PAGE 19


      01000DC3H   LINE      CODE     ---       #94
      01000DC3H   LINE      CODE     ---       #95
      01000DCDH   LINE      CODE     ---       #96
      01000DD0H   LINE      CODE     ---       #97
      ---         BLOCKEND  ---      ---       LVL=0

      01000DD1H   BLOCK     CODE     ---       LVL=0
      01000DD1H   LINE      CODE     ---       #98
      01000DD1H   LINE      CODE     ---       #99
      01000DDBH   LINE      CODE     ---       #100
      01000DDEH   LINE      CODE     ---       #101
      ---         BLOCKEND  ---      ---       LVL=0

      01000DDFH   BLOCK     CODE     ---       LVL=0
      01000DDFH   LINE      CODE     ---       #102
      01000DDFH   LINE      CODE     ---       #103
      01000DE9H   LINE      CODE     ---       #104
      01000DECH   LINE      CODE     ---       #105
      ---         BLOCKEND  ---      ---       LVL=0

      01000CBBH   BLOCK     CODE     ---       LVL=0
      00000007H   SYMBOL    DATA     BYTE      bank
      00000005H   SYMBOL    DATA     BYTE      prefetchEnabled
      00000003H   SYMBOL    DATA     BYTE      userBank
      01000CBBH   LINE      CODE     ---       #107
      01000CBBH   LINE      CODE     ---       #108
      01000CBEH   LINE      CODE     ---       #109
      01000CC4H   LINE      CODE     ---       #110
      01000CCAH   LINE      CODE     ---       #111
      ---         BLOCKEND  ---      ---       LVL=0

      01000DEDH   BLOCK     CODE     ---       LVL=0
      01000DEDH   LINE      CODE     ---       #114
      01000DEDH   LINE      CODE     ---       #115
      01000DF7H   LINE      CODE     ---       #116
      01000DFAH   LINE      CODE     ---       #117
      ---         BLOCKEND  ---      ---       LVL=0

      01000CE7H   BLOCK     CODE     ---       LVL=0
      01000CE7H   LINE      CODE     ---       #119
      01000CE7H   LINE      CODE     ---       #120
      01000CF4H   LINE      CODE     ---       #121
      01000CF9H   LINE      CODE     ---       #122
      ---         BLOCKEND  ---      ---       LVL=0

      01000E5DH   BLOCK     CODE     ---       LVL=0
      00000007H   SYMBOL    DATA     BYTE      enabled
      01000E5DH   LINE      CODE     ---       #124
      01000E5DH   LINE      CODE     ---       #125
      ---         BLOCKEND  ---      ---       LVL=0

      01000E24H   BLOCK     CODE     ---       LVL=0
      01000E24H   LINE      CODE     ---       #128
      01000E24H   LINE      CODE     ---       #129
      ---         BLOCKEND  ---      ---       LVL=0

      01000EE7H   BLOCK     CODE     ---       LVL=0
      01000EE7H   LINE      CODE     ---       #132
      01000EE7H   LINE      CODE     ---       #133
      01000EEFH   LINE      CODE     ---       #134
      ---         BLOCKEND  ---      ---       LVL=0

      01000B7AH   BLOCK     CODE     ---       LVL=0
      0000001DH   SYMBOL    DATA     ---       data_ptr
      00000007H   SYMBOL    DATA     BYTE      data_len
LX51 LINKER/LOCATER V4.66.62.0                                                        11/15/2016  19:57:29  PAGE 20


      01000B7AH   LINE      CODE     ---       #136
      01000B82H   LINE      CODE     ---       #137
      01000B88H   LINE      CODE     ---       #138
      01000B98H   LINE      CODE     ---       #139
      01000B98H   LINE      CODE     ---       #140
      01000BA2H   LINE      CODE     ---       #141
      01000BA2H   LINE      CODE     ---       #142
      ---         BLOCKEND  ---      ---       LVL=0

      01000D89H   BLOCK     CODE     ---       LVL=0
      01000D89H   LINE      CODE     ---       #25
      01000D8BH   LINE      CODE     ---       #27
      01000D8BH   LINE      CODE     ---       #28
      01000D8BH   LINE      CODE     ---       #29
      01000D93H   LINE      CODE     ---       #30
      01000D93H   LINE      CODE     ---       #31
      01000D96H   LINE      CODE     ---       #32
      01000D96H   LINE      CODE     ---       #33
      ---         BLOCKEND  ---      ---       LVL=0

      01000EB5H   BLOCK     CODE     ---       LVL=0
      01000EB5H   LINE      CODE     ---       #35
      01000EB5H   LINE      CODE     ---       #36
      01000EB5H   LINE      CODE     ---       #37
      01000EB5H   LINE      CODE     ---       #38
      01000EB5H   LINE      CODE     ---       #39
      01000EB8H   LINE      CODE     ---       #40
      01000EBAH   LINE      CODE     ---       #41
      01000EBCH   LINE      CODE     ---       #42
      01000EBEH   LINE      CODE     ---       #43
      ---         BLOCKEND  ---      ---       LVL=0

      01000EBFH   BLOCK     CODE     ---       LVL=0
      01000EBFH   LINE      CODE     ---       #45
      01000EBFH   LINE      CODE     ---       #46
      01000EBFH   LINE      CODE     ---       #47
      01000EBFH   LINE      CODE     ---       #48
      01000EBFH   LINE      CODE     ---       #49
      01000EC2H   LINE      CODE     ---       #50
      01000EC4H   LINE      CODE     ---       #51
      01000EC6H   LINE      CODE     ---       #52
      01000EC8H   LINE      CODE     ---       #53
      ---         BLOCKEND  ---      ---       LVL=0

      01000EC9H   BLOCK     CODE     ---       LVL=0
      00000007H   SYMBOL    DATA     BYTE      value
      01000EC9H   LINE      CODE     ---       #32
      01000EC9H   LINE      CODE     ---       #33
      01000EC9H   LINE      CODE     ---       #34
      01000ECBH   LINE      CODE     ---       #36
      01000ED0H   LINE      CODE     ---       #38
      01000ED2H   LINE      CODE     ---       #39
      ---         BLOCKEND  ---      ---       LVL=0

      01000CFAH   BLOCK     CODE     ---       LVL=0
      00000007H   SYMBOL    DATA     BYTE      reg
      00000006H   SYMBOL    DATA     BYTE      value
      01000CFCH   BLOCK     CODE     NEAR LAB  LVL=1
      00000005H   SYMBOL    DATA     BYTE      status
      ---         BLOCKEND  ---      ---       LVL=1
      01000CFAH   LINE      CODE     ---       #41
      01000CFCH   LINE      CODE     ---       #42
      01000CFCH   LINE      CODE     ---       #45
      01000CFEH   LINE      CODE     ---       #46
      01000D03H   LINE      CODE     ---       #47
LX51 LINKER/LOCATER V4.66.62.0                                                        11/15/2016  19:57:29  PAGE 21


      01000D08H   LINE      CODE     ---       #48
      01000D0AH   LINE      CODE     ---       #50
      01000D0CH   LINE      CODE     ---       #51
      ---         BLOCKEND  ---      ---       LVL=0

      01000E17H   BLOCK     CODE     ---       LVL=0
      00000007H   SYMBOL    DATA     BYTE      reg
      01000E17H   BLOCK     CODE     NEAR LAB  LVL=1
      00000007H   SYMBOL    DATA     BYTE      reg_val
      ---         BLOCKEND  ---      ---       LVL=1
      01000E17H   LINE      CODE     ---       #53
      01000E17H   LINE      CODE     ---       #54
      01000E17H   LINE      CODE     ---       #57
      01000E19H   LINE      CODE     ---       #58
      01000E1CH   LINE      CODE     ---       #59
      01000E21H   LINE      CODE     ---       #60
      01000E23H   LINE      CODE     ---       #62
      01000E23H   LINE      CODE     ---       #63
      ---         BLOCKEND  ---      ---       LVL=0

      01000B4FH   BLOCK     CODE     ---       LVL=0
      00000007H   SYMBOL    DATA     BYTE      reg
      00000039H   SYMBOL    DATA     ---       pBuf
      0000003CH   SYMBOL    DATA     BYTE      bytes
      01000B55H   BLOCK     CODE     NEAR LAB  LVL=1
      00000006H   SYMBOL    DATA     BYTE      status
      00000005H   SYMBOL    DATA     BYTE      byte_ctr
      ---         BLOCKEND  ---      ---       LVL=1
      01000B4FH   LINE      CODE     ---       #65
      01000B55H   LINE      CODE     ---       #66
      01000B55H   LINE      CODE     ---       #69
      01000B55H   LINE      CODE     ---       #70
      01000B55H   LINE      CODE     ---       #72
      01000B5EH   LINE      CODE     ---       #73
      01000B75H   LINE      CODE     ---       #75
      01000B77H   LINE      CODE     ---       #77
      01000B79H   LINE      CODE     ---       #78
      ---         BLOCKEND  ---      ---       LVL=0

      01000C30H   BLOCK     CODE     ---       LVL=0
      00000007H   SYMBOL    DATA     BYTE      reg
      0000002AH   SYMBOL    DATA     ---       pBuf
      0000002DH   SYMBOL    DATA     BYTE      bytes
      01000C36H   BLOCK     CODE     NEAR LAB  LVL=1
      00000006H   SYMBOL    DATA     BYTE      status
      00000005H   SYMBOL    DATA     BYTE      byte_ctr
      ---         BLOCKEND  ---      ---       LVL=1
      01000C30H   LINE      CODE     ---       #80
      01000C36H   LINE      CODE     ---       #81
      01000C36H   LINE      CODE     ---       #84
      01000C36H   LINE      CODE     ---       #85
      01000C36H   LINE      CODE     ---       #86
      01000C3FH   LINE      CODE     ---       #87
      01000C4AH   LINE      CODE     ---       #88
      01000C4CH   LINE      CODE     ---       #89
      01000C4EH   LINE      CODE     ---       #90
      ---         BLOCKEND  ---      ---       LVL=0

      01000D56H   BLOCK     CODE     ---       LVL=0
      01000D56H   LINE      CODE     ---       #93
      01000D56H   LINE      CODE     ---       #94
      01000D56H   LINE      CODE     ---       #95
      01000D59H   LINE      CODE     ---       #96
      01000D5BH   LINE      CODE     ---       #97
      01000D5DH   LINE      CODE     ---       #98
LX51 LINKER/LOCATER V4.66.62.0                                                        11/15/2016  19:57:29  PAGE 22


      01000D64H   LINE      CODE     ---       #99
      01000D66H   LINE      CODE     ---       #100
      ---         BLOCKEND  ---      ---       LVL=0

      01000B23H   BLOCK     CODE     ---       LVL=0
      00000027H   SYMBOL    DATA     INT       payloadLength
      01000B23H   LINE      CODE     ---       #102
      01000B27H   LINE      CODE     ---       #103
      01000B27H   LINE      CODE     ---       #104
      01000B29H   LINE      CODE     ---       #105
      01000B30H   LINE      CODE     ---       #106
      01000B38H   LINE      CODE     ---       #107
      01000B46H   LINE      CODE     ---       #109
      01000B48H   LINE      CODE     ---       #110
      01000B4EH   LINE      CODE     ---       #111
      ---         BLOCKEND  ---      ---       LVL=0

      010005A2H   BLOCK     CODE     ---       LVL=0
      010005A2H   LINE      CODE     ---       #114
      010005BBH   LINE      CODE     ---       #116
      010005C2H   LINE      CODE     ---       #117
      010005C5H   LINE      CODE     ---       #118
      010005C5H   LINE      CODE     ---       #119
      010005D3H   LINE      CODE     ---       #120
      010005DAH   LINE      CODE     ---       #121
      010005DCH   LINE      CODE     ---       #122
      010005E3H   LINE      CODE     ---       #123
      010005EAH   LINE      CODE     ---       #124
      010005EAH   LINE      CODE     ---       #125
      010005EDH   LINE      CODE     ---       #126
      010005F4H   LINE      CODE     ---       #127
      010005F6H   LINE      CODE     ---       #128
      010005F6H   LINE      CODE     ---       #129
      010005F6H   LINE      CODE     ---       #130
      010005F9H   LINE      CODE     ---       #131
      01000600H   LINE      CODE     ---       #132
      01000603H   LINE      CODE     ---       #133
      0100060AH   LINE      CODE     ---       #134
      01000611H   LINE      CODE     ---       #135
      ---         BLOCKEND  ---      ---       LVL=0

      01000952H   BLOCK     CODE     ---       LVL=0
      01000952H   LINE      CODE     ---       #138
      01000952H   LINE      CODE     ---       #139
      01000952H   LINE      CODE     ---       #140
      01000954H   LINE      CODE     ---       #141
      01000956H   LINE      CODE     ---       #143
      0100095EH   LINE      CODE     ---       #144
      01000966H   LINE      CODE     ---       #145
      0100096DH   LINE      CODE     ---       #147
      01000974H   LINE      CODE     ---       #148
      0100097BH   LINE      CODE     ---       #149
      01000982H   LINE      CODE     ---       #150
      01000989H   LINE      CODE     ---       #152
      01000990H   LINE      CODE     ---       #153
      ---         BLOCKEND  ---      ---       LVL=0

      01000E30H   BLOCK     CODE     ---       LVL=0
      01000E30H   LINE      CODE     ---       #157
      01000E30H   LINE      CODE     ---       #159
      01000E32H   LINE      CODE     ---       #160
      01000E34H   LINE      CODE     ---       #161
      01000E36H   LINE      CODE     ---       #162
      01000E39H   LINE      CODE     ---       #163
      ---         BLOCKEND  ---      ---       LVL=0
LX51 LINKER/LOCATER V4.66.62.0                                                        11/15/2016  19:57:29  PAGE 23



      01000C87H   BLOCK     CODE     ---       LVL=0
      01000C87H   LINE      CODE     ---       #8
      01000C87H   LINE      CODE     ---       #9
      01000C89H   LINE      CODE     ---       #10
      01000C8BH   LINE      CODE     ---       #11
      01000C8DH   LINE      CODE     ---       #12
      01000C8FH   LINE      CODE     ---       #13
      01000C92H   LINE      CODE     ---       #14
      01000C95H   LINE      CODE     ---       #16
      01000C98H   LINE      CODE     ---       #17
      01000C9BH   LINE      CODE     ---       #18
      01000C9DH   LINE      CODE     ---       #19
      01000CA0H   LINE      CODE     ---       #20
      ---         BLOCKEND  ---      ---       LVL=0

      01000D67H   BLOCK     CODE     VOID      LVL=0
      ---         BLOCKEND  ---      ---       LVL=0

      01000D70H   BLOCK     CODE     ---       LVL=0
      00000007H   SYMBOL    DATA     BYTE      x
      01000D70H   LINE      CODE     ---       #22
      01000D70H   LINE      CODE     ---       #23
      01000D73H   LINE      CODE     ---       #24
      01000D75H   LINE      CODE     ---       #25
      01000D77H   LINE      CODE     ---       #26
      ---         BLOCKEND  ---      ---       LVL=0

      01000C4FH   BLOCK     CODE     ---       LVL=0
      0000005AH   SYMBOL    DATA     ---       s
      01000C4FH   LINE      CODE     ---       #29
      01000C55H   LINE      CODE     ---       #30
      01000C60H   LINE      CODE     ---       #31
      01000C6AH   LINE      CODE     ---       #32
      ---         BLOCKEND  ---      ---       LVL=0

      0100080FH   BLOCK     CODE     ---       LVL=0
      00000007H   SYMBOL    DATA     BYTE      packet_type
      00000023H   SYMBOL    DATA     ---       data_to_send
      00000026H   SYMBOL    DATA     BYTE      data_len
      01000815H   BLOCK     CODE     NEAR LAB  LVL=1
      00000006H   SYMBOL    DATA     WORD      i
      ---         BLOCKEND  ---      ---       LVL=1
      0100080FH   LINE      CODE     ---       #34
      01000815H   LINE      CODE     ---       #36
      0100081AH   LINE      CODE     ---       #37
      0100081EH   LINE      CODE     ---       #38
      01000830H   LINE      CODE     ---       #39
      01000850H   LINE      CODE     ---       #40
      01000857H   LINE      CODE     ---       #41
      01000862H   LINE      CODE     ---       #42
      ---         BLOCKEND  ---      ---       LVL=0

      01000A86H   BLOCK     CODE     ---       LVL=0
      00000006H   SYMBOL    DATA     BYTE      packet_type
      00000051H   SYMBOL    DATA     ---       data_to_send
      00000054H   SYMBOL    DATA     BYTE      data_len
      01000A8CH   BLOCK     CODE     NEAR LAB  LVL=1
      00000004H   SYMBOL    DATA     WORD      i
      ---         BLOCKEND  ---      ---       LVL=1
      01000A86H   LINE      CODE     ---       #47
      01000A8CH   LINE      CODE     ---       #49
      01000A8CH   LINE      CODE     ---       #50
      01000A8FH   LINE      CODE     ---       #51
      01000A94H   LINE      CODE     ---       #52
LX51 LINKER/LOCATER V4.66.62.0                                                        11/15/2016  19:57:29  PAGE 24


      01000AA7H   LINE      CODE     ---       #53
      01000AADH   LINE      CODE     ---       #54
      01000AB6H   LINE      CODE     ---       #55
      ---         BLOCKEND  ---      ---       LVL=0

      01000ABBH   BLOCK     CODE     ---       LVL=0
      00000006H   SYMBOL    DATA     BYTE      packet_type
      00000056H   SYMBOL    DATA     ---       data_to_send
      00000059H   SYMBOL    DATA     BYTE      data_len
      01000AC1H   BLOCK     CODE     NEAR LAB  LVL=1
      00000004H   SYMBOL    DATA     WORD      i
      ---         BLOCKEND  ---      ---       LVL=1
      01000ABBH   LINE      CODE     ---       #59
      01000AC1H   LINE      CODE     ---       #61
      01000AC1H   LINE      CODE     ---       #62
      01000AC4H   LINE      CODE     ---       #63
      01000ACBH   LINE      CODE     ---       #64
      01000AD0H   LINE      CODE     ---       #65
      01000ADCH   LINE      CODE     ---       #66
      01000AE2H   LINE      CODE     ---       #67
      01000AEBH   LINE      CODE     ---       #68
      ---         BLOCKEND  ---      ---       LVL=0

      01000D20H   BLOCK     CODE     ---       LVL=0
      01000D20H   LINE      CODE     ---       #36
      01000D20H   LINE      CODE     ---       #38
      01000D23H   LINE      CODE     ---       #39
      01000D26H   LINE      CODE     ---       #40
      01000D29H   LINE      CODE     ---       #41
      01000D2CH   LINE      CODE     ---       #43
      01000D2FH   LINE      CODE     ---       #44
      01000D31H   LINE      CODE     ---       #45
      ---         BLOCKEND  ---      ---       LVL=0

      01000519H   BLOCK     CODE     ---       LVL=0
      01000519H   LINE      CODE     ---       #46
      01000519H   LINE      CODE     ---       #47
      0100051CH   LINE      CODE     ---       #48
      0100051FH   LINE      CODE     ---       #49
      01000524H   LINE      CODE     ---       #50
      01000529H   LINE      CODE     ---       #51
      01000535H   LINE      CODE     ---       #52
      01000538H   LINE      CODE     ---       #53
      0100053BH   LINE      CODE     ---       #54
      01000547H   LINE      CODE     ---       #55
      0100054FH   LINE      CODE     ---       #56
      01000556H   LINE      CODE     ---       #57
      01000558H   LINE      CODE     ---       #58
      0100056BH   LINE      CODE     ---       #59
      0100056BH   LINE      CODE     ---       #60
      01000580H   LINE      CODE     ---       #61
      01000595H   LINE      CODE     ---       #62
      ---         BLOCKEND  ---      ---       LVL=0

      010002B5H   BLOCK     CODE     ---       LVL=0
      010002B5H   LINE      CODE     ---       #69
      010002B5H   LINE      CODE     ---       #70
      010002B8H   LINE      CODE     ---       #71
      010002B8H   LINE      CODE     ---       #72
      010002BBH   LINE      CODE     ---       #73
      010002C2H   LINE      CODE     ---       #74
      010002DDH   LINE      CODE     ---       #75
      010002E4H   LINE      CODE     ---       #76
      010002EDH   LINE      CODE     ---       #77
      010002FEH   LINE      CODE     ---       #78
LX51 LINKER/LOCATER V4.66.62.0                                                        11/15/2016  19:57:29  PAGE 25


      01000305H   LINE      CODE     ---       #79
      01000307H   LINE      CODE     ---       #80
      01000311H   LINE      CODE     ---       #81
      01000311H   LINE      CODE     ---       #82
      01000314H   LINE      CODE     ---       #83
      01000317H   LINE      CODE     ---       #84
      0100031AH   LINE      CODE     ---       #85
      0100031AH   LINE      CODE     ---       #86
      0100031DH   LINE      CODE     ---       #87
      01000324H   LINE      CODE     ---       #88
      0100032DH   LINE      CODE     ---       #89
      01000336H   LINE      CODE     ---       #90
      01000341H   LINE      CODE     ---       #91
      01000344H   LINE      CODE     ---       #92
      0100034BH   LINE      CODE     ---       #93
      0100034EH   LINE      CODE     ---       #94
      01000355H   LINE      CODE     ---       #95
      01000355H   LINE      CODE     ---       #96
      01000358H   LINE      CODE     ---       #98
      01000360H   LINE      CODE     ---       #99
      01000369H   LINE      CODE     ---       #100
      01000369H   LINE      CODE     ---       #101
      01000375H   LINE      CODE     ---       #102
      01000378H   LINE      CODE     ---       #103
      0100037AH   LINE      CODE     ---       #104
      0100037AH   LINE      CODE     ---       #105
      0100037DH   LINE      CODE     ---       #106
      01000388H   LINE      CODE     ---       #107
      0100038BH   LINE      CODE     ---       #108
      0100038BH   LINE      CODE     ---       #109
      0100038BH   LINE      CODE     ---       #110
      0100038BH   LINE      CODE     ---       #111
      0100038EH   LINE      CODE     ---       #112
      01000390H   LINE      CODE     ---       #113
      01000390H   LINE      CODE     ---       #115
      010003A0H   LINE      CODE     ---       #116
      010003A9H   LINE      CODE     ---       #117
      010003B7H   LINE      CODE     ---       #118
      010003BDH   LINE      CODE     ---       #119
      010003BDH   LINE      CODE     ---       #120
      010003C0H   LINE      CODE     ---       #121
      ---         BLOCKEND  ---      ---       LVL=0

      01000C6BH   BLOCK     CODE     ---       LVL=0
      01000C6BH   LINE      CODE     ---       #122
      01000C6BH   LINE      CODE     ---       #123
      01000C6BH   LINE      CODE     ---       #124
      01000C6BH   LINE      CODE     ---       #125
      01000C6BH   LINE      CODE     ---       #126
      01000C6EH   LINE      CODE     ---       #127
      01000C6EH   LINE      CODE     ---       #128
      01000C6EH   LINE      CODE     ---       #129
      01000C6EH   LINE      CODE     ---       #130
      01000C71H   LINE      CODE     ---       #131
      01000C73H   LINE      CODE     ---       #132
      ---         BLOCKEND  ---      ---       LVL=0

      010009D9H   BLOCK     CODE     ---       LVL=0
      010009D9H   LINE      CODE     ---       #135
      010009F6H   LINE      CODE     ---       #136
      010009F9H   LINE      CODE     ---       #137
      ---         BLOCKEND  ---      ---       LVL=0

      ---         MODULE    ---      ---       HAL_W2_ISR
      0000005EH   PUBLIC    DATA     BYTE      w2_status
LX51 LINKER/LOCATER V4.66.62.0                                                        11/15/2016  19:57:29  PAGE 26


      0000005DH   PUBLIC    DATA     BYTE      data_ready
      00000024H   PUBLIC    DATA     BYTE      ?_i2c_mpu_writeWords?BYTE
      01000865H   PUBLIC    CODE     ---       _i2c_mpu_writeWords
      01000D0DH   PUBLIC    CODE     ---       _i2c_mpu_writeWord
      00000022H   PUBLIC    DATA     BYTE      ?_i2c_mpu_readBits?BYTE
      010007B7H   PUBLIC    CODE     ---       _i2c_mpu_readBits
      0000003DH   PUBLIC    DATA     BYTE      ?_i2c_mpu_readBit?BYTE
      01000BCAH   PUBLIC    CODE     ---       _i2c_mpu_readBit
      00000022H   PUBLIC    DATA     BYTE      ?_i2c_mpu_writeBits?BYTE
      0100069BH   PUBLIC    CODE     ---       _i2c_mpu_writeBits
      00000022H   PUBLIC    DATA     BYTE      ?_i2c_mpu_writeBit?BYTE
      010008BBH   PUBLIC    CODE     ---       _i2c_mpu_writeBit
      0000002EH   PUBLIC    DATA     BYTE      ?_i2c_mpu_readBytes?BYTE
      010006FEH   PUBLIC    CODE     ---       _i2c_mpu_readBytes
      01000D44H   PUBLIC    CODE     ---       _i2c_mpu_readByte
      0000002AH   PUBLIC    DATA     BYTE      ?_i2c_mpu_writeBytes?BYTE
      01000A14H   PUBLIC    CODE     ---       _i2c_mpu_writeBytes
      01000D78H   PUBLIC    CODE     ---       _i2c_mpu_writeByte
      01000628H   PUBLIC    CODE     ---       hal_w2_soft_reset
      0000004AH   PUBLIC    DATA     BYTE      ?_hal_w2_read?BYTE
      01000997H   PUBLIC    CODE     ---       _hal_w2_read
      00000044H   PUBLIC    DATA     BYTE      ?_hal_w2_write?BYTE
      01000A4EH   PUBLIC    CODE     ---       _hal_w2_write
      01000D32H   PUBLIC    CODE     ---       _hal_w2_init_transfer
      01000BA3H   PUBLIC    CODE     ---       hal_w2_wait_data_ready
      01000C0FH   PUBLIC    CODE     ---       _hal_w2_configure_master
      01000EAAH   PUBLIC    CODE     ---       _hal_w2_all_irq_enable
      01000E9FH   PUBLIC    CODE     ---       _hal_w2_enable
      01000E94H   PUBLIC    CODE     ---       _hal_w2_set_op_mode
      01000DFBH   PUBLIC    CODE     ---       _hal_w2_set_clk_freq
      01000F08H   PUBLIC    CODE     ---       _hal_w2_set_slave_address
      01000E89H   PUBLIC    CODE     ---       _hal_w2_irq_adr_match_enable
      01000E7EH   PUBLIC    CODE     ---       _hal_w2_irq_stop_cond_enable
      01000E73H   PUBLIC    CODE     ---       _hal_w2_alter_clock
      01000E68H   PUBLIC    CODE     ---       _hal_w2_respond_to_gen_adr
      01000EDDH   PUBLIC    CODE     ---       I2C_IRQ_handler
      01000ED3H   PUBLIC    CODE     ---       hal_w2_wait_data_ready_ISR
      00000098H.3 SFRSYM    DATA     BIT       TB80
      000000BEH   SFRSYM    DATA     BYTE      SPISSTAT
      000000C8H   SFRSYM    DATA     BIT       T2I0
      000000C3H   SFRSYM    DATA     BYTE      CCH1
      00000080H   SFRSYM    DATA     BYTE      P0
      000000C8H.1 SFRSYM    DATA     BIT       T2I1
      000000DFH   SFRSYM    DATA     BYTE      CCPDATO
      000000C5H   SFRSYM    DATA     BYTE      CCH2
      00000090H   SFRSYM    DATA     BYTE      P1
      000000C7H   SFRSYM    DATA     BYTE      CCH3
      000000A0H   SFRSYM    DATA     BYTE      P2
      00000098H.5 SFRSYM    DATA     BIT       SM20
      000000B0H   SFRSYM    DATA     BYTE      P3
      000000D0H.6 SFRSYM    DATA     BIT       AC
      000000C2H   SFRSYM    DATA     BYTE      CCL1
      000000C4H   SFRSYM    DATA     BYTE      CCL2
      000000D8H.7 SFRSYM    DATA     BIT       BD
      000000B8H   SFRSYM    DATA     BIT       RFSPI
      000000A8H.7 SFRSYM    DATA     BIT       EA
      000000CCH   SFRSYM    DATA     WORD      T2
      000000C6H   SFRSYM    DATA     BYTE      CCL3
      000000B7H   SFRSYM    DATA     BYTE      SPISRDSZ
      000000C8H.3 SFRSYM    DATA     BIT       T2R0
      000000C8H.4 SFRSYM    DATA     BIT       T2R1
      000000A8H   SFRSYM    DATA     BYTE      IEN0
      000000B8H   SFRSYM    DATA     BYTE      IEN1
      000000A5H   SFRSYM    DATA     BYTE      WUCON
      00000085H   SFRSYM    DATA     BYTE      DPH1
LX51 LINKER/LOCATER V4.66.62.0                                                        11/15/2016  19:57:29  PAGE 27


      000000DBH   SFRSYM    DATA     BYTE      COMPCON
      000000A3H   SFRSYM    DATA     BYTE      CLKCTRL
      00000084H   SFRSYM    DATA     BYTE      DPL1
      000000C8H.5 SFRSYM    DATA     BIT       I2FR
      000000B8H.3 SFRSYM    DATA     BIT       WUPIN
      000000C8H.6 SFRSYM    DATA     BIT       I3FR
      000000FFH   SFRSYM    DATA     BYTE      SPIMDAT
      000000C0H.7 SFRSYM    DATA     BIT       EXF2
      00000098H.4 SFRSYM    DATA     BIT       REN0
      000000C8H.2 SFRSYM    DATA     BIT       T2CM
      000000B8H.1 SFRSYM    DATA     BIT       RF
      000000B8H.5 SFRSYM    DATA     BIT       WUIRQ
      000000E7H   SFRSYM    DATA     BYTE      SPIRDAT
      000000C1H   SFRSYM    DATA     BYTE      CCEN
      000000E2H   SFRSYM    DATA     BYTE      W2CON0
      000000BFH   SFRSYM    DATA     BYTE      SPISDAT
      000000D0H.7 SFRSYM    DATA     BIT       CY
      000000E1H   SFRSYM    DATA     BYTE      W2CON1
      000000FBH   SFRSYM    DATA     BYTE      FDCR
      000000E8H   SFRSYM    DATA     BIT       RFCE
      000000CBH   SFRSYM    DATA     BYTE      CRCH
      00000081H   SFRSYM    DATA     BYTE      SP
      000000D0H.2 SFRSYM    DATA     BIT       OV
      000000CAH   SFRSYM    DATA     BYTE      CRCL
      000000ADH   SFRSYM    DATA     BYTE      CLKLFCTRL
      000000B1H   SFRSYM    DATA     BYTE      RSTREAS
      000000C8H.7 SFRSYM    DATA     BIT       T2PS
      000000F9H   SFRSYM    DATA     BYTE      FPCR
      000000B8H.4 SFRSYM    DATA     BIT       MISC
      000000A1H   SFRSYM    DATA     BYTE      PWMDC0
      000000B4H   SFRSYM    DATA     BYTE      RTC2CMP0
      000000A2H   SFRSYM    DATA     BYTE      PWMDC1
      000000B5H   SFRSYM    DATA     BYTE      RTC2CMP1
      00000080H   SFRSYM    DATA     BIT       P00
      000000BAH   SFRSYM    DATA     BYTE      S0RELH
      00000090H   SFRSYM    DATA     BIT       P10
      00000080H.1 SFRSYM    DATA     BIT       P01
      00000087H   SFRSYM    DATA     BYTE      PCON
      000000A0H   SFRSYM    DATA     BIT       P20
      00000090H.1 SFRSYM    DATA     BIT       P11
      00000080H.2 SFRSYM    DATA     BIT       P02
      000000B0H   SFRSYM    DATA     BIT       P30
      000000A0H.1 SFRSYM    DATA     BIT       P21
      00000090H.2 SFRSYM    DATA     BIT       P12
      00000080H.3 SFRSYM    DATA     BIT       P03
      000000C0H.2 SFRSYM    DATA     BIT       SPIF
      000000F8H.2 SFRSYM    DATA     BIT       RDIS
      000000B0H.1 SFRSYM    DATA     BIT       P31
      000000A0H.2 SFRSYM    DATA     BIT       P22
      00000090H.3 SFRSYM    DATA     BIT       P13
      00000080H.4 SFRSYM    DATA     BIT       P04
      000000AAH   SFRSYM    DATA     BYTE      S0RELL
      000000B0H.2 SFRSYM    DATA     BIT       P32
      000000A0H.3 SFRSYM    DATA     BIT       P23
      00000090H.4 SFRSYM    DATA     BIT       P14
      00000080H.5 SFRSYM    DATA     BIT       P05
      000000D9H   SFRSYM    DATA     BYTE      W2SADR
      00000089H   SFRSYM    DATA     BYTE      TMOD
      00000088H   SFRSYM    DATA     BYTE      TCON
      000000B0H.3 SFRSYM    DATA     BIT       P33
      000000A0H.4 SFRSYM    DATA     BIT       P24
      00000090H.5 SFRSYM    DATA     BIT       P15
      00000080H.6 SFRSYM    DATA     BIT       P06
      000000B0H.4 SFRSYM    DATA     BIT       P34
      000000A0H.5 SFRSYM    DATA     BIT       P25
LX51 LINKER/LOCATER V4.66.62.0                                                        11/15/2016  19:57:29  PAGE 28


      00000090H.6 SFRSYM    DATA     BIT       P16
      00000080H.7 SFRSYM    DATA     BIT       P07
      000000C2H   SFRSYM    DATA     WORD      CC1
      000000B0H.5 SFRSYM    DATA     BIT       P35
      000000A0H.6 SFRSYM    DATA     BIT       P26
      00000090H.7 SFRSYM    DATA     BIT       P17
      000000C4H   SFRSYM    DATA     WORD      CC2
      000000B0H.6 SFRSYM    DATA     BIT       P36
      000000A0H.7 SFRSYM    DATA     BIT       P27
      000000C6H   SFRSYM    DATA     WORD      CC3
      000000B0H.7 SFRSYM    DATA     BIT       P37
      000000E8H.2 SFRSYM    DATA     BIT       RFCKEN
      000000F8H   SFRSYM    DATA     BIT       WPEN
      000000DDH   SFRSYM    DATA     BYTE      CCPDATIA
      000000DEH   SFRSYM    DATA     BYTE      CCPDATIB
      00000088H.1 SFRSYM    DATA     BIT       IE0
      000000F8H.4 SFRSYM    DATA     BIT       RDYN
      00000088H.3 SFRSYM    DATA     BIT       IE1
      000000CFH   SFRSYM    DATA     BYTE      WUOPC0
      000000F0H   SFRSYM    DATA     BYTE      B
      000000E9H   SFRSYM    DATA     BYTE      MD0
      000000CEH   SFRSYM    DATA     BYTE      WUOPC1
      000000A7H   SFRSYM    DATA     BYTE      MEMCON
      000000EAH   SFRSYM    DATA     BYTE      MD1
      000000D7H   SFRSYM    DATA     BYTE      RNGDAT
      000000EBH   SFRSYM    DATA     BYTE      MD2
      000000ECH   SFRSYM    DATA     BYTE      MD3
      000000EDH   SFRSYM    DATA     BYTE      MD4
      000000AFH   SFRSYM    DATA     BYTE      WDSV
      000000EEH   SFRSYM    DATA     BYTE      MD5
      000000E0H   SFRSYM    DATA     BYTE      ACC
      000000DCH   SFRSYM    DATA     BYTE      POFCON
      000000A8H.4 SFRSYM    DATA     BIT       ES0
      000000A8H.1 SFRSYM    DATA     BIT       ET0
      000000A9H   SFRSYM    DATA     BYTE      IP0
      000000A8H.3 SFRSYM    DATA     BIT       ET1
      00000088H.5 SFRSYM    DATA     BIT       TF0
      000000B9H   SFRSYM    DATA     BYTE      IP1
      000000A8H.5 SFRSYM    DATA     BIT       ET2
      00000098H   SFRSYM    DATA     BIT       RI0
      00000088H.7 SFRSYM    DATA     BIT       TF1
      000000C0H   SFRSYM    DATA     BIT       RFSPIF
      000000C0H.6 SFRSYM    DATA     BIT       TF2
      000000FCH   SFRSYM    DATA     BYTE      SPIMCON0
      000000D6H   SFRSYM    DATA     BYTE      RNGCTL
      0000008CH   SFRSYM    DATA     BYTE      TH0
      000000A8H   SFRSYM    DATA     BIT       EX0
      00000098H.1 SFRSYM    DATA     BIT       TI0
      00000088H   SFRSYM    DATA     BIT       IT0
      000000FDH   SFRSYM    DATA     BYTE      SPIMCON1
      0000008DH   SFRSYM    DATA     BYTE      TH1
      000000A8H.2 SFRSYM    DATA     BIT       EX1
      00000088H.2 SFRSYM    DATA     BIT       IT1
      000000CDH   SFRSYM    DATA     BYTE      TH2
      000000AEH   SFRSYM    DATA     BYTE      OPMCON
      000000D0H   SFRSYM    DATA     BIT       P
      00000098H.7 SFRSYM    DATA     BIT       SM0
      0000008AH   SFRSYM    DATA     BYTE      TL0
      00000098H.6 SFRSYM    DATA     BIT       SM1
      000000E4H   SFRSYM    DATA     BYTE      SPIRCON0
      0000008BH   SFRSYM    DATA     BYTE      TL1
      000000E5H   SFRSYM    DATA     BYTE      SPIRCON1
      000000CCH   SFRSYM    DATA     BYTE      TL2
      000000BCH   SFRSYM    DATA     BYTE      SPISCON0
      000000BDH   SFRSYM    DATA     BYTE      SPISCON1
LX51 LINKER/LOCATER V4.66.62.0                                                        11/15/2016  19:57:29  PAGE 29


      000000D0H.3 SFRSYM    DATA     BIT       RS0
      00000088H.4 SFRSYM    DATA     BIT       TR0
      000000D0H.4 SFRSYM    DATA     BIT       RS1
      000000B2H   SFRSYM    DATA     BYTE      PWMCON
      00000088H.6 SFRSYM    DATA     BIT       TR1
      000000CAH   SFRSYM    DATA     WORD      CRC
      000000A6H   SFRSYM    DATA     BYTE      INTEXP
      000000C0H.3 SFRSYM    DATA     BIT       WUPINF
      000000FAH   SFRSYM    DATA     BYTE      FCR
      000000D3H   SFRSYM    DATA     BYTE      ADCCON1
      000000D2H   SFRSYM    DATA     BYTE      ADCCON2
      00000083H   SFRSYM    DATA     BYTE      DPH
      000000D1H   SFRSYM    DATA     BYTE      ADCCON3
      000000C0H.1 SFRSYM    DATA     BIT       RFF
      00000093H   SFRSYM    DATA     BYTE      P0DIR
      00000082H   SFRSYM    DATA     BYTE      DPL
      0000009EH   SFRSYM    DATA     BYTE      P0CON
      00000099H   SFRSYM    DATA     BYTE      S0BUF
      00000094H   SFRSYM    DATA     BYTE      P1DIR
      0000009FH   SFRSYM    DATA     BYTE      P1CON
      00000095H   SFRSYM    DATA     BYTE      P2DIR
      000000B8H.7 SFRSYM    DATA     BIT       EXEN2
      000000DAH   SFRSYM    DATA     BYTE      W2DAT
      00000097H   SFRSYM    DATA     BYTE      P2CON
      00000096H   SFRSYM    DATA     BYTE      P3DIR
      000000A4H   SFRSYM    DATA     BYTE      PWRDWN
      00000098H   SFRSYM    DATA     BYTE      S0CON
      0000008FH   SFRSYM    DATA     BYTE      P3CON
      000000B6H   SFRSYM    DATA     BYTE      RTC2CPT00
      000000D8H   SFRSYM    DATA     BYTE      ADCON
      000000ACH   SFRSYM    DATA     BYTE      RTC2CPT10
      000000ABH   SFRSYM    DATA     BYTE      RTC2CPT01
      000000C8H   SFRSYM    DATA     BYTE      T2CON
      00000092H   SFRSYM    DATA     BYTE      DPS
      000000F8H.5 SFRSYM    DATA     BIT       WEN
      000000F8H   SFRSYM    DATA     BYTE      FSR
      000000D4H   SFRSYM    DATA     BYTE      ADCDATH
      000000C9H   SFRSYM    DATA     BYTE      MPAGE
      000000B8H.2 SFRSYM    DATA     BIT       SPI
      000000F8H.1 SFRSYM    DATA     BIT       RDEND
      000000D5H   SFRSYM    DATA     BYTE      ADCDATL
      000000F8H.3 SFRSYM    DATA     BIT       INFEN
      000000F8H.7 SFRSYM    DATA     BIT       MCDIS
      000000C0H.5 SFRSYM    DATA     BIT       WUF
      000000C0H.4 SFRSYM    DATA     BIT       MISCF
      000000EFH   SFRSYM    DATA     BYTE      ARCON
      000000D0H.5 SFRSYM    DATA     BIT       F0
      000000F8H.6 SFRSYM    DATA     BIT       STP
      000000FEH   SFRSYM    DATA     BYTE      SPIMSTAT
      000000E8H   SFRSYM    DATA     BYTE      RFCON
      000000D0H   SFRSYM    DATA     BYTE      PSW
      00000098H.2 SFRSYM    DATA     BIT       RB80
      000000C0H   SFRSYM    DATA     BYTE      IRCON
      000000E8H.1 SFRSYM    DATA     BIT       RFCSN
      000000E6H   SFRSYM    DATA     BYTE      SPIRSTAT
      000000B3H   SFRSYM    DATA     BYTE      RTC2CON

      01000E09H   BLOCK     CODE     ---       LVL=0
      ---         BLOCKEND  ---      ---       LVL=0

      01000ED3H   BLOCK     CODE     ---       LVL=0
      01000ED3H   LINE      CODE     ---       #39
      01000ED3H   LINE      CODE     ---       #40
      01000ED3H   LINE      CODE     ---       #41
      01000ED6H   LINE      CODE     ---       #42
LX51 LINKER/LOCATER V4.66.62.0                                                        11/15/2016  19:57:29  PAGE 30


      01000EDAH   LINE      CODE     ---       #43
      01000EDCH   LINE      CODE     ---       #44
      ---         BLOCKEND  ---      ---       LVL=0

      01000EDDH   BLOCK     CODE     ---       LVL=0
      01000EDDH   LINE      CODE     ---       #45
      01000EDDH   LINE      CODE     ---       #46
      01000EDDH   LINE      CODE     ---       #48
      01000EE0H   LINE      CODE     ---       #49
      01000EE6H   LINE      CODE     ---       #51
      ---         BLOCKEND  ---      ---       LVL=0

      01000E68H   BLOCK     CODE     ---       LVL=0
      00000007H   SYMBOL    DATA     BYTE      resp_gen
      01000E68H   LINE      CODE     ---       #52
      01000E68H   LINE      CODE     ---       #53
      01000E68H   LINE      CODE     ---       #54
      01000E6BH   LINE      CODE     ---       #55
      01000E6BH   LINE      CODE     ---       #56
      01000E6EH   LINE      CODE     ---       #57
      01000E6FH   LINE      CODE     ---       #59
      01000E6FH   LINE      CODE     ---       #60
      01000E72H   LINE      CODE     ---       #61
      01000E72H   LINE      CODE     ---       #62
      ---         BLOCKEND  ---      ---       LVL=0

      01000E73H   BLOCK     CODE     ---       LVL=0
      00000007H   SYMBOL    DATA     BYTE      alt_clk
      01000E73H   LINE      CODE     ---       #64
      01000E73H   LINE      CODE     ---       #65
      01000E73H   LINE      CODE     ---       #66
      01000E76H   LINE      CODE     ---       #67
      01000E76H   LINE      CODE     ---       #68
      01000E79H   LINE      CODE     ---       #69
      01000E7AH   LINE      CODE     ---       #71
      01000E7AH   LINE      CODE     ---       #72
      01000E7DH   LINE      CODE     ---       #73
      01000E7DH   LINE      CODE     ---       #74
      ---         BLOCKEND  ---      ---       LVL=0

      01000E7EH   BLOCK     CODE     ---       LVL=0
      00000007H   SYMBOL    DATA     BYTE      stop_cond
      01000E7EH   LINE      CODE     ---       #76
      01000E7EH   LINE      CODE     ---       #77
      01000E7EH   LINE      CODE     ---       #78
      01000E81H   LINE      CODE     ---       #79
      01000E81H   LINE      CODE     ---       #80
      01000E84H   LINE      CODE     ---       #81
      01000E85H   LINE      CODE     ---       #83
      01000E85H   LINE      CODE     ---       #84
      01000E88H   LINE      CODE     ---       #85
      01000E88H   LINE      CODE     ---       #86
      ---         BLOCKEND  ---      ---       LVL=0

      01000E89H   BLOCK     CODE     ---       LVL=0
      00000007H   SYMBOL    DATA     BYTE      addr_match
      01000E89H   LINE      CODE     ---       #88
      01000E89H   LINE      CODE     ---       #89
      01000E89H   LINE      CODE     ---       #90
      01000E8CH   LINE      CODE     ---       #91
      01000E8CH   LINE      CODE     ---       #92
      01000E8FH   LINE      CODE     ---       #93
      01000E90H   LINE      CODE     ---       #95
      01000E90H   LINE      CODE     ---       #96
      01000E93H   LINE      CODE     ---       #97
LX51 LINKER/LOCATER V4.66.62.0                                                        11/15/2016  19:57:29  PAGE 31


      01000E93H   LINE      CODE     ---       #98
      ---         BLOCKEND  ---      ---       LVL=0

      01000F08H   BLOCK     CODE     ---       LVL=0
      00000007H   SYMBOL    DATA     BYTE      address
      01000F08H   LINE      CODE     ---       #100
      01000F08H   LINE      CODE     ---       #101
      01000F08H   LINE      CODE     ---       #102
      01000F0DH   LINE      CODE     ---       #103
      ---         BLOCKEND  ---      ---       LVL=0

      01000DFBH   BLOCK     CODE     ---       LVL=0
      00000007H   SYMBOL    DATA     BYTE      freq
      01000DFBH   LINE      CODE     ---       #107
      01000DFBH   LINE      CODE     ---       #108
      01000DFBH   LINE      CODE     ---       #109
      01000E08H   LINE      CODE     ---       #110
      ---         BLOCKEND  ---      ---       LVL=0

      01000E94H   BLOCK     CODE     ---       LVL=0
      00000007H   SYMBOL    DATA     BYTE      mode
      01000E94H   LINE      CODE     ---       #112
      01000E94H   LINE      CODE     ---       #113
      01000E94H   LINE      CODE     ---       #114
      01000E97H   LINE      CODE     ---       #115
      01000E97H   LINE      CODE     ---       #116
      01000E9AH   LINE      CODE     ---       #117
      01000E9BH   LINE      CODE     ---       #119
      01000E9BH   LINE      CODE     ---       #120
      01000E9EH   LINE      CODE     ---       #121
      01000E9EH   LINE      CODE     ---       #122
      ---         BLOCKEND  ---      ---       LVL=0

      01000E9FH   BLOCK     CODE     ---       LVL=0
      00000007H   SYMBOL    DATA     BYTE      en
      01000E9FH   LINE      CODE     ---       #124
      01000E9FH   LINE      CODE     ---       #125
      01000E9FH   LINE      CODE     ---       #126
      01000EA2H   LINE      CODE     ---       #127
      01000EA2H   LINE      CODE     ---       #128
      01000EA5H   LINE      CODE     ---       #129
      01000EA6H   LINE      CODE     ---       #131
      01000EA6H   LINE      CODE     ---       #132
      01000EA9H   LINE      CODE     ---       #133
      01000EA9H   LINE      CODE     ---       #134
      ---         BLOCKEND  ---      ---       LVL=0

      01000EAAH   BLOCK     CODE     ---       LVL=0
      00000007H   SYMBOL    DATA     BYTE      irq
      01000EAAH   LINE      CODE     ---       #136
      01000EAAH   LINE      CODE     ---       #137
      01000EAAH   LINE      CODE     ---       #140
      01000EADH   LINE      CODE     ---       #141
      01000EADH   LINE      CODE     ---       #142
      01000EB0H   LINE      CODE     ---       #143
      01000EB1H   LINE      CODE     ---       #145
      01000EB1H   LINE      CODE     ---       #146
      01000EB4H   LINE      CODE     ---       #147
      01000EB4H   LINE      CODE     ---       #148
      ---         BLOCKEND  ---      ---       LVL=0

      01000C0FH   BLOCK     CODE     ---       LVL=0
      00000006H   SYMBOL    DATA     BYTE      mode
      01000C0FH   LINE      CODE     ---       #150
      01000C11H   LINE      CODE     ---       #151
LX51 LINKER/LOCATER V4.66.62.0                                                        11/15/2016  19:57:29  PAGE 32


      01000C11H   LINE      CODE     ---       #152
      01000C16H   LINE      CODE     ---       #153
      01000C1BH   LINE      CODE     ---       #154
      01000C20H   LINE      CODE     ---       #156
      01000C23H   LINE      CODE     ---       #157
      01000C26H   LINE      CODE     ---       #158
      01000C29H   LINE      CODE     ---       #160
      01000C2DH   LINE      CODE     ---       #161
      01000C2FH   LINE      CODE     ---       #162
      ---         BLOCKEND  ---      ---       LVL=0

      01000BA3H   BLOCK     CODE     ---       LVL=0
      01000BA3H   BLOCK     CODE     NEAR LAB  LVL=1
      00000016H   SYMBOL    DATA     DWORD     timeout_counter
      0000001AH   SYMBOL    DATA     BYTE      w2_status
      0000001BH   SYMBOL    DATA     BYTE      data_ready
      0000001CH   SYMBOL    DATA     BYTE      nack_received
      ---         BLOCKEND  ---      ---       LVL=1
      01000BA3H   LINE      CODE     ---       #164
      01000BA3H   LINE      CODE     ---       #165
      01000BA3H   LINE      CODE     ---       #166
      01000BADH   LINE      CODE     ---       #172
      01000BADH   LINE      CODE     ---       #173
      01000BB0H   LINE      CODE     ---       #174
      01000BB6H   LINE      CODE     ---       #175
      01000BBCH   LINE      CODE     ---       #176
      01000BC3H   LINE      CODE     ---       #177
      01000BC7H   LINE      CODE     ---       #180
      01000BC9H   LINE      CODE     ---       #181
      ---         BLOCKEND  ---      ---       LVL=0

      01000D32H   BLOCK     CODE     ---       LVL=0
      00000007H   SYMBOL    DATA     BYTE      address
      00000005H   SYMBOL    DATA     BYTE      direction
      01000D32H   BLOCK     CODE     NEAR LAB  LVL=1
      00000007H   SYMBOL    DATA     BYTE      w2_status
      ---         BLOCKEND  ---      ---       LVL=1
      01000D32H   LINE      CODE     ---       #183
      01000D32H   LINE      CODE     ---       #184
      01000D32H   LINE      CODE     ---       #187
      01000D35H   LINE      CODE     ---       #188
      01000D39H   LINE      CODE     ---       #190
      01000D39H   LINE      CODE     ---       #192
      01000D41H   LINE      CODE     ---       #193
      01000D41H   LINE      CODE     ---       #194
      01000D43H   LINE      CODE     ---       #195
      01000D43H   LINE      CODE     ---       #197
      01000D43H   LINE      CODE     ---       #198
      01000D43H   LINE      CODE     ---       #199
      01000D43H   LINE      CODE     ---       #200
      ---         BLOCKEND  ---      ---       LVL=0

      01000A4EH   BLOCK     CODE     ---       LVL=0
      00000007H   SYMBOL    DATA     BYTE      address
      00000045H   SYMBOL    DATA     ---       data_ptr
      00000048H   SYMBOL    DATA     BYTE      data_len
      01000A54H   BLOCK     CODE     NEAR LAB  LVL=1
      00000006H   SYMBOL    DATA     BYTE      ack_received
      01000A68H   BLOCK     CODE     NEAR LAB  LVL=2
      00000049H   SYMBOL    DATA     BYTE      w2_status
      ---         BLOCKEND  ---      ---       LVL=2
      ---         BLOCKEND  ---      ---       LVL=1
      01000A4EH   LINE      CODE     ---       #202
      01000A54H   LINE      CODE     ---       #203
      01000A54H   LINE      CODE     ---       #205
LX51 LINKER/LOCATER V4.66.62.0                                                        11/15/2016  19:57:29  PAGE 33


      01000A5BH   LINE      CODE     ---       #207
      01000A68H   LINE      CODE     ---       #208
      01000A68H   LINE      CODE     ---       #210
      01000A72H   LINE      CODE     ---       #211
      01000A77H   LINE      CODE     ---       #212
      01000A7CH   LINE      CODE     ---       #213
      01000A7CH   LINE      CODE     ---       #214
      01000A7EH   LINE      CODE     ---       #215
      01000A7EH   LINE      CODE     ---       #216
      01000A80H   LINE      CODE     ---       #218
      01000A83H   LINE      CODE     ---       #220
      01000A85H   LINE      CODE     ---       #221
      ---         BLOCKEND  ---      ---       LVL=0

      01000997H   BLOCK     CODE     ---       LVL=0
      00000007H   SYMBOL    DATA     BYTE      address
      0000004BH   SYMBOL    DATA     ---       data_ptr
      0000004EH   SYMBOL    DATA     BYTE      data_len
      0100099DH   BLOCK     CODE     NEAR LAB  LVL=1
      00000007H   SYMBOL    DATA     BYTE      w2_status
      0000004FH   SYMBOL    DATA     BYTE      ack_received
      ---         BLOCKEND  ---      ---       LVL=1
      01000997H   LINE      CODE     ---       #223
      0100099DH   LINE      CODE     ---       #224
      0100099DH   LINE      CODE     ---       #228
      010009A4H   LINE      CODE     ---       #230
      010009A8H   LINE      CODE     ---       #231
      010009A8H   LINE      CODE     ---       #233
      010009ABH   LINE      CODE     ---       #234
      010009ABH   LINE      CODE     ---       #237
      010009B6H   LINE      CODE     ---       #238
      010009B6H   LINE      CODE     ---       #239
      010009BAH   LINE      CODE     ---       #240
      010009BAH   LINE      CODE     ---       #241
      010009BDH   LINE      CODE     ---       #242
      010009BDH   LINE      CODE     ---       #244
      010009C0H   LINE      CODE     ---       #246
      010009CAH   LINE      CODE     ---       #247
      010009D4H   LINE      CODE     ---       #248
      010009D6H   LINE      CODE     ---       #250
      010009D8H   LINE      CODE     ---       #251
      ---         BLOCKEND  ---      ---       LVL=0

      01000628H   BLOCK     CODE     ---       LVL=0
      01000628H   BLOCK     CODE     NEAR LAB  LVL=1
      00000036H   SYMBOL    DATA     BYTE      pulsecount
      00000037H   SYMBOL    DATA     BYTE      w2_freq
      ---         BLOCKEND  ---      ---       LVL=1
      01000628H   LINE      CODE     ---       #253
      01000628H   LINE      CODE     ---       #254
      01000628H   LINE      CODE     ---       #259
      0100062EH   LINE      CODE     ---       #261
      01000631H   LINE      CODE     ---       #262
      01000639H   LINE      CODE     ---       #266
      0100063CH   LINE      CODE     ---       #267
      0100063FH   LINE      CODE     ---       #270
      01000642H   LINE      CODE     ---       #275
      01000648H   LINE      CODE     ---       #278
      01000648H   LINE      CODE     ---       #280
      01000648H   LINE      CODE     ---       #284
      0100064BH   LINE      CODE     ---       #285
      0100064EH   LINE      CODE     ---       #286
      0100064EH   LINE      CODE     ---       #288
      01000654H   LINE      CODE     ---       #289
      01000654H   LINE      CODE     ---       #291
LX51 LINKER/LOCATER V4.66.62.0                                                        11/15/2016  19:57:29  PAGE 34


      01000654H   LINE      CODE     ---       #292
      01000657H   LINE      CODE     ---       #293
      01000660H   LINE      CODE     ---       #296
      01000660H   LINE      CODE     ---       #298
      01000667H   LINE      CODE     ---       #301
      01000667H   LINE      CODE     ---       #303
      0100066EH   LINE      CODE     ---       #306
      01000671H   LINE      CODE     ---       #309
      01000674H   LINE      CODE     ---       #310
      0100067AH   LINE      CODE     ---       #312
      ---         BLOCKEND  ---      ---       LVL=0

      01000D78H   BLOCK     CODE     ---       LVL=0
      00000007H   SYMBOL    DATA     BYTE      devAddr
      00000005H   SYMBOL    DATA     BYTE      regAddr
      00000029H   SYMBOL    DATA     BYTE      data_to_write
      01000D78H   LINE      CODE     ---       #317
      01000D7AH   LINE      CODE     ---       #318
      01000D88H   LINE      CODE     ---       #319
      ---         BLOCKEND  ---      ---       LVL=0

      01000A14H   BLOCK     CODE     ---       LVL=0
      00000007H   SYMBOL    DATA     BYTE      devAddr
      00000004H   SYMBOL    DATA     BYTE      regAddr
      00000006H   SYMBOL    DATA     BYTE      data_len
      0000002DH   SYMBOL    DATA     ---       data_ptr
      01000A18H   BLOCK     CODE     NEAR LAB  LVL=1
      00000007H   SYMBOL    DATA     BYTE      w2_status
      00000005H   SYMBOL    DATA     BYTE      ack_received
      ---         BLOCKEND  ---      ---       LVL=1
      01000A14H   LINE      CODE     ---       #321
      01000A18H   LINE      CODE     ---       #326
      01000A1FH   LINE      CODE     ---       #327
      01000A21H   LINE      CODE     ---       #328
      01000A24H   LINE      CODE     ---       #329
      01000A28H   LINE      CODE     ---       #330
      01000A28H   LINE      CODE     ---       #331
      01000A2AH   LINE      CODE     ---       #332
      01000A2AH   LINE      CODE     ---       #334
      01000A36H   LINE      CODE     ---       #335
      01000A36H   LINE      CODE     ---       #336
      01000A3EH   LINE      CODE     ---       #337
      01000A3EH   LINE      CODE     ---       #338
      01000A44H   LINE      CODE     ---       #339
      01000A44H   LINE      CODE     ---       #340
      01000A46H   LINE      CODE     ---       #341
      01000A46H   LINE      CODE     ---       #342
      01000A48H   LINE      CODE     ---       #343
      01000A4BH   LINE      CODE     ---       #345
      01000A4DH   LINE      CODE     ---       #346
      ---         BLOCKEND  ---      ---       LVL=0

      01000D44H   BLOCK     CODE     ---       LVL=0
      00000007H   SYMBOL    DATA     BYTE      devAddr
      00000005H   SYMBOL    DATA     BYTE      regAddr
      0000002BH   SYMBOL    DATA     ---       data_ptr
      01000D44H   LINE      CODE     ---       #348
      01000D4AH   LINE      CODE     ---       #349
      01000D55H   LINE      CODE     ---       #350
      ---         BLOCKEND  ---      ---       LVL=0

      010006FEH   BLOCK     CODE     ---       LVL=0
      00000006H   SYMBOL    DATA     BYTE      devAddr
      00000004H   SYMBOL    DATA     BYTE      regAddr
      00000030H   SYMBOL    DATA     BYTE      data_len
LX51 LINKER/LOCATER V4.66.62.0                                                        11/15/2016  19:57:29  PAGE 35


      00000031H   SYMBOL    DATA     ---       data_ptr
      01000704H   BLOCK     CODE     NEAR LAB  LVL=1
      00000034H   SYMBOL    DATA     BYTE      w2_status
      00000035H   SYMBOL    DATA     BYTE      ack_received
      ---         BLOCKEND  ---      ---       LVL=1
      010006FEH   LINE      CODE     ---       #352
      01000704H   LINE      CODE     ---       #357
      0100070BH   LINE      CODE     ---       #358
      0100070DH   LINE      CODE     ---       #359
      01000712H   LINE      CODE     ---       #360
      01000717H   LINE      CODE     ---       #361
      01000717H   LINE      CODE     ---       #362
      0100071AH   LINE      CODE     ---       #363
      0100071AH   LINE      CODE     ---       #367
      01000723H   LINE      CODE     ---       #369
      01000727H   LINE      CODE     ---       #370
      01000727H   LINE      CODE     ---       #372
      0100072AH   LINE      CODE     ---       #374
      0100072AH   LINE      CODE     ---       #376
      01000735H   LINE      CODE     ---       #377
      01000735H   LINE      CODE     ---       #378
      01000739H   LINE      CODE     ---       #379
      01000739H   LINE      CODE     ---       #380
      0100073CH   LINE      CODE     ---       #381
      0100073CH   LINE      CODE     ---       #383
      01000741H   LINE      CODE     ---       #385
      0100074BH   LINE      CODE     ---       #386
      01000756H   LINE      CODE     ---       #387
      01000758H   LINE      CODE     ---       #389
      0100075AH   LINE      CODE     ---       #390
      ---         BLOCKEND  ---      ---       LVL=0

      010008BBH   BLOCK     CODE     ---       LVL=0
      00000022H   SYMBOL    DATA     BYTE      devAddr
      00000023H   SYMBOL    DATA     BYTE      regAddr
      00000024H   SYMBOL    DATA     BYTE      bitNum
      00000025H   SYMBOL    DATA     BYTE      data_to_write
      010008C1H   BLOCK     CODE     NEAR LAB  LVL=1
      00000026H   SYMBOL    DATA     BYTE      b
      ---         BLOCKEND  ---      ---       LVL=1
      010008BBH   LINE      CODE     ---       #393
      010008C1H   LINE      CODE     ---       #395
      010008CAH   LINE      CODE     ---       #396
      010008FFH   LINE      CODE     ---       #397
      01000908H   LINE      CODE     ---       #398
      ---         BLOCKEND  ---      ---       LVL=0

      0100069BH   BLOCK     CODE     ---       LVL=0
      00000022H   SYMBOL    DATA     BYTE      devAddr
      00000023H   SYMBOL    DATA     BYTE      regAddr
      00000024H   SYMBOL    DATA     BYTE      bitStart
      00000025H   SYMBOL    DATA     BYTE      data_length
      00000026H   SYMBOL    DATA     BYTE      data_to_write
      010006A1H   BLOCK     CODE     NEAR LAB  LVL=1
      00000027H   SYMBOL    DATA     BYTE      b
      010006ADH   BLOCK     CODE     NEAR LAB  LVL=2
      00000028H   SYMBOL    DATA     BYTE      mask
      ---         BLOCKEND  ---      ---       LVL=2
      ---         BLOCKEND  ---      ---       LVL=1
      0100069BH   LINE      CODE     ---       #399
      010006A1H   LINE      CODE     ---       #408
      010006ADH   LINE      CODE     ---       #409
      010006DAH   LINE      CODE     ---       #410
      010006E7H   LINE      CODE     ---       #411
      010006EBH   LINE      CODE     ---       #412
LX51 LINKER/LOCATER V4.66.62.0                                                        11/15/2016  19:57:29  PAGE 36


      010006EEH   LINE      CODE     ---       #413
      010006F2H   LINE      CODE     ---       #414
      010006FBH   LINE      CODE     ---       #415
      010006FBH   LINE      CODE     ---       #416
      010006FDH   LINE      CODE     ---       #417
      010006FDH   LINE      CODE     ---       #418
      ---         BLOCKEND  ---      ---       LVL=0

      01000BCAH   BLOCK     CODE     ---       LVL=0
      00000007H   SYMBOL    DATA     BYTE      devAddr
      00000005H   SYMBOL    DATA     BYTE      regAddr
      0000003FH   SYMBOL    DATA     BYTE      bitNum
      00000040H   SYMBOL    DATA     ---       data_ptr
      01000BCCH   BLOCK     CODE     NEAR LAB  LVL=1
      00000043H   SYMBOL    DATA     BYTE      b
      00000007H   SYMBOL    DATA     BYTE      count
      ---         BLOCKEND  ---      ---       LVL=1
      01000BCAH   LINE      CODE     ---       #419
      01000BCCH   LINE      CODE     ---       #421
      01000BD5H   LINE      CODE     ---       #422
      01000BEDH   LINE      CODE     ---       #423
      01000BEDH   LINE      CODE     ---       #424
      ---         BLOCKEND  ---      ---       LVL=0

      010007B7H   BLOCK     CODE     ---       LVL=0
      00000007H   SYMBOL    DATA     BYTE      devAddr
      00000005H   SYMBOL    DATA     BYTE      regAddr
      00000024H   SYMBOL    DATA     BYTE      bitStart
      00000025H   SYMBOL    DATA     BYTE      data_length
      00000026H   SYMBOL    DATA     ---       data_ptr
      010007B9H   BLOCK     CODE     NEAR LAB  LVL=1
      00000005H   SYMBOL    DATA     BYTE      count
      00000029H   SYMBOL    DATA     BYTE      b
      010007C7H   BLOCK     CODE     NEAR LAB  LVL=2
      0000002AH   SYMBOL    DATA     BYTE      mask
      ---         BLOCKEND  ---      ---       LVL=2
      ---         BLOCKEND  ---      ---       LVL=1
      010007B7H   LINE      CODE     ---       #425
      010007B9H   LINE      CODE     ---       #432
      010007C7H   LINE      CODE     ---       #433
      010007F4H   LINE      CODE     ---       #434
      010007F6H   LINE      CODE     ---       #435
      01000803H   LINE      CODE     ---       #436
      0100080CH   LINE      CODE     ---       #437
      0100080CH   LINE      CODE     ---       #438
      0100080EH   LINE      CODE     ---       #439
      ---         BLOCKEND  ---      ---       LVL=0

      01000D0DH   BLOCK     CODE     ---       LVL=0
      00000007H   SYMBOL    DATA     BYTE      devAddr
      00000005H   SYMBOL    DATA     BYTE      regAddr
      00000022H   SYMBOL    DATA     WORD      data_to_write
      01000D0DH   LINE      CODE     ---       #442
      01000D11H   LINE      CODE     ---       #443
      01000D1FH   LINE      CODE     ---       #444
      ---         BLOCKEND  ---      ---       LVL=0

      01000865H   BLOCK     CODE     ---       LVL=0
      00000007H   SYMBOL    DATA     BYTE      devAddr
      00000006H   SYMBOL    DATA     BYTE      regAddr
      00000004H   SYMBOL    DATA     BYTE      data_length
      00000027H   SYMBOL    DATA     ---       data_ptr
      01000869H   BLOCK     CODE     NEAR LAB  LVL=1
      00000007H   SYMBOL    DATA     BYTE      w2_status
      00000005H   SYMBOL    DATA     BYTE      ack_received
LX51 LINKER/LOCATER V4.66.62.0                                                        11/15/2016  19:57:29  PAGE 37


      ---         BLOCKEND  ---      ---       LVL=1
      01000865H   LINE      CODE     ---       #445
      01000869H   LINE      CODE     ---       #456
      01000870H   LINE      CODE     ---       #457
      01000872H   LINE      CODE     ---       #458
      01000875H   LINE      CODE     ---       #459
      01000879H   LINE      CODE     ---       #460
      01000879H   LINE      CODE     ---       #461
      0100087BH   LINE      CODE     ---       #462
      0100087BH   LINE      CODE     ---       #464
      01000889H   LINE      CODE     ---       #465
      01000889H   LINE      CODE     ---       #466
      01000894H   LINE      CODE     ---       #467
      01000894H   LINE      CODE     ---       #468
      0100089AH   LINE      CODE     ---       #469
      0100089AH   LINE      CODE     ---       #470
      0100089CH   LINE      CODE     ---       #471
      0100089CH   LINE      CODE     ---       #472
      0100089FH   LINE      CODE     ---       #473
      010008ABH   LINE      CODE     ---       #474
      010008ABH   LINE      CODE     ---       #475
      010008B1H   LINE      CODE     ---       #476
      010008B1H   LINE      CODE     ---       #477
      010008B3H   LINE      CODE     ---       #478
      010008B3H   LINE      CODE     ---       #479
      010008B5H   LINE      CODE     ---       #480
      010008B5H   LINE      CODE     ---       #481
      010008B5H   LINE      CODE     ---       #482
      010008B5H   LINE      CODE     ---       #483
      010008B8H   LINE      CODE     ---       #485
      010008BAH   LINE      CODE     ---       #486
      ---         BLOCKEND  ---      ---       LVL=0

      ---         MODULE    ---      ---       HAL_DELAY
      01000CD3H   PUBLIC    CODE     ---       _delay_ms
      01000CACH   PUBLIC    CODE     ---       _delay_us

      01000CA1H   BLOCK     CODE     ---       LVL=0
      ---         BLOCKEND  ---      ---       LVL=0

      01000CACH   BLOCK     CODE     ---       LVL=0
      00000006H   SYMBOL    DATA     WORD      us
      01000CACH   LINE      CODE     ---       #37
      01000CACH   LINE      CODE     ---       #38
      01000CACH   LINE      CODE     ---       #40
      01000CACH   LINE      CODE     ---       #41
      01000CADH   LINE      CODE     ---       #42
      01000CAEH   LINE      CODE     ---       #43
      01000CAFH   LINE      CODE     ---       #44
      01000CB0H   LINE      CODE     ---       #45
      01000CB1H   LINE      CODE     ---       #46
      01000CBAH   LINE      CODE     ---       #47
      ---         BLOCKEND  ---      ---       LVL=0

      01000CD3H   BLOCK     CODE     ---       LVL=0
      00000004H   SYMBOL    DATA     WORD      ms
      01000CD3H   LINE      CODE     ---       #49
      01000CD7H   LINE      CODE     ---       #50
      01000CD7H   LINE      CODE     ---       #52
      01000CD7H   LINE      CODE     ---       #53
      01000CD7H   LINE      CODE     ---       #54
      01000CDAH   LINE      CODE     ---       #55
      01000CDAH   LINE      CODE     ---       #56
      01000CDDH   LINE      CODE     ---       #57
      01000CE6H   LINE      CODE     ---       #58
LX51 LINKER/LOCATER V4.66.62.0                                                        11/15/2016  19:57:29  PAGE 38


      ---         BLOCKEND  ---      ---       LVL=0

      ---         MODULE    ---      ---       ?C_INIT
      010004D4H   PUBLIC    CODE     ---       ?C_START

      ---         MODULE    ---      ---       ?C?CLDPTR
      01000056H   PUBLIC    CODE     ---       ?C?CLDPTR

      ---         MODULE    ---      ---       ?C?CLDOPTR
      0100006FH   PUBLIC    CODE     ---       ?C?CLDOPTR

      ---         MODULE    ---      ---       ?C?CSTPTR
      0100009CH   PUBLIC    CODE     ---       ?C?CSTPTR

      ---         MODULE    ---      ---       ?C?CSTOPTR
      010000AEH   PUBLIC    CODE     ---       ?C?CSTOPTR

      ---         MODULE    ---      ---       ?C?ILDPTR
      010000D0H   PUBLIC    CODE     ---       ?C?ILDPTR

      ---         MODULE    ---      ---       ?C?PLDIIDATA
      010000FBH   PUBLIC    CODE     ---       ?C?PLDIIDATA

      ---         MODULE    ---      ---       ?C?MEMCMP
      01000291H   PUBLIC    CODE     ---       ?C?MEMCMP

      ---         MODULE    ---      ---       INIT_MEM
      02000274H   PUBLIC    XDATA    ---       __MEM_AVAIL__
      0100000EH   PUBLIC    CODE     ---       _INIT_MEMPOOL



*** WARNING L57: UNCALLED FUNCTION, IGNORED FOR OVERLAY PROCESS
    NAME:    GETXACCELOFFSET/MAIN

*** WARNING L57: UNCALLED FUNCTION, IGNORED FOR OVERLAY PROCESS
    NAME:    GETYACCELOFFSET/MAIN

*** WARNING L57: UNCALLED FUNCTION, IGNORED FOR OVERLAY PROCESS
    NAME:    GETZACCELOFFSET/MAIN

*** WARNING L57: UNCALLED FUNCTION, IGNORED FOR OVERLAY PROCESS
    NAME:    GETXGYROOFFSET/MAIN

*** WARNING L57: UNCALLED FUNCTION, IGNORED FOR OVERLAY PROCESS
    NAME:    GETYGYROOFFSET/MAIN

*** WARNING L57: UNCALLED FUNCTION, IGNORED FOR OVERLAY PROCESS
    NAME:    GETZGYROOFFSET/MAIN

*** WARNING L57: UNCALLED FUNCTION, IGNORED FOR OVERLAY PROCESS
    NAME:    _SETMEMORYBANK/MAIN

*** WARNING L57: UNCALLED FUNCTION, IGNORED FOR OVERLAY PROCESS
    NAME:    GETFIFOCOUNT/MAIN

*** WARNING L57: UNCALLED FUNCTION, IGNORED FOR OVERLAY PROCESS
    NAME:    GETINTSTATUS/MAIN

*** WARNING L57: UNCALLED FUNCTION, IGNORED FOR OVERLAY PROCESS
    NAME:    _SETDMPENABLED/MAIN

*** WARNING L57: UNCALLED FUNCTION, IGNORED FOR OVERLAY PROCESS
    NAME:    RESETFIFO/MAIN

LX51 LINKER/LOCATER V4.66.62.0                                                        11/15/2016  19:57:29  PAGE 39


*** WARNING L57: UNCALLED FUNCTION, IGNORED FOR OVERLAY PROCESS
    NAME:    DMPGETFIFOPACKETSIZE/MAIN

*** WARNING L57: UNCALLED FUNCTION, IGNORED FOR OVERLAY PROCESS
    NAME:    _GETFIFOBYTES/MAIN

*** WARNING L57: UNCALLED FUNCTION, IGNORED FOR OVERLAY PROCESS
    NAME:    UART_INIT/MAIN

*** WARNING L57: UNCALLED FUNCTION, IGNORED FOR OVERLAY PROCESS
    NAME:    _PUTSTRING/MAIN

*** WARNING L57: UNCALLED FUNCTION, IGNORED FOR OVERLAY PROCESS
    NAME:    _SEND_PACKET_TO_COMPUTER/MAIN

*** WARNING L57: UNCALLED FUNCTION, IGNORED FOR OVERLAY PROCESS
    NAME:    _SEND_PACKET_FROM_HOST_TO_COMPUTER/MAIN

*** WARNING L57: UNCALLED FUNCTION, IGNORED FOR OVERLAY PROCESS
    NAME:    _HAL_W2_RESPOND_TO_GEN_ADR/HAL_W2_ISR

*** WARNING L57: UNCALLED FUNCTION, IGNORED FOR OVERLAY PROCESS
    NAME:    _HAL_W2_ALTER_CLOCK/HAL_W2_ISR

*** WARNING L57: UNCALLED FUNCTION, IGNORED FOR OVERLAY PROCESS
    NAME:    _HAL_W2_IRQ_STOP_COND_ENABLE/HAL_W2_ISR

*** WARNING L57: UNCALLED FUNCTION, IGNORED FOR OVERLAY PROCESS
    NAME:    _HAL_W2_IRQ_ADR_MATCH_ENABLE/HAL_W2_ISR

*** WARNING L57: UNCALLED FUNCTION, IGNORED FOR OVERLAY PROCESS
    NAME:    _HAL_W2_SET_SLAVE_ADDRESS/HAL_W2_ISR

*** WARNING L57: UNCALLED FUNCTION, IGNORED FOR OVERLAY PROCESS
    NAME:    HAL_W2_WAIT_DATA_READY/HAL_W2_ISR

*** WARNING L57: UNCALLED FUNCTION, IGNORED FOR OVERLAY PROCESS
    NAME:    _HAL_W2_WRITE/HAL_W2_ISR

*** WARNING L57: UNCALLED FUNCTION, IGNORED FOR OVERLAY PROCESS
    NAME:    _HAL_W2_READ/HAL_W2_ISR

*** WARNING L57: UNCALLED FUNCTION, IGNORED FOR OVERLAY PROCESS
    NAME:    _I2C_MPU_READBIT/HAL_W2_ISR

Program Size: data=95.1 xdata=636 const=2269 code=3848
LX51 RUN COMPLETE.  26 WARNING(S),  0 ERROR(S)
