LX51 LINKER/LOCATER V4.66.62.0                                                          11/16/2016  10:35:37  PAGE 1


LX51 LINKER/LOCATER V4.66.62.0, INVOKED BY:
C:\KEIL_V5\C51\BIN\LX51.EXE STARTUP.obj, main.obj, .\hal_w2_isr.obj, .\hal_delay.obj TO FProject DISABLEWARNING (16)


CPU MODE:     8051 MODE
MEMORY MODEL: SMALL


INPUT MODULES INCLUDED:
  STARTUP.obj (?C_STARTUP)
         COMMENT TYPE 1: A51 / ASM51 Assembler
  main.obj (MAIN)
         COMMENT TYPE 0: C51 V9.55
  .\hal_w2_isr.obj (HAL_W2_ISR)
         COMMENT TYPE 0: C51 V9.55
  .\hal_delay.obj (HAL_DELAY)
         COMMENT TYPE 0: C51 V9.55
  C:\KEIL_V5\C51\LIB\C51S.LIB (?C_INIT)
         COMMENT TYPE 1: A51 / ASM51 Assembler
  C:\KEIL_V5\C51\LIB\C51S.LIB (?C?CLDPTR)
         COMMENT TYPE 1: A51 / ASM51 Assembler
  C:\KEIL_V5\C51\LIB\C51S.LIB (?C?CLDOPTR)
         COMMENT TYPE 1: A51 / ASM51 Assembler
  C:\KEIL_V5\C51\LIB\C51S.LIB (?C?CSTPTR)
         COMMENT TYPE 1: A51 / ASM51 Assembler
  C:\KEIL_V5\C51\LIB\C51S.LIB (?C?CSTOPTR)
         COMMENT TYPE 1: A51 / ASM51 Assembler
  C:\KEIL_V5\C51\LIB\C51S.LIB (?C?IILDX)
         COMMENT TYPE 1: A51 / ASM51 Assembler
  C:\KEIL_V5\C51\LIB\C51S.LIB (?C?ILDIX)
         COMMENT TYPE 1: A51 / ASM51 Assembler
  C:\KEIL_V5\C51\LIB\C51S.LIB (?C?ILDPTR)
         COMMENT TYPE 1: A51 / ASM51 Assembler
  C:\KEIL_V5\C51\LIB\C51S.LIB (?C?PLDIIDATA)
         COMMENT TYPE 1: A51 / ASM51 Assembler
  C:\KEIL_V5\C51\LIB\C51S.LIB (?C?MEMCMP)
         COMMENT TYPE 1: A51 / ASM51 Assembler
  C:\KEIL_V5\C51\LIB\C51S.LIB (MALLOC)
         COMMENT TYPE 1: C51 Compiler
  C:\KEIL_V5\C51\LIB\C51S.LIB (INIT_MEM)
         COMMENT TYPE 1: C51 Compiler
  C:\KEIL_V5\C51\LIB\C51S.LIB (REALLOC)
         COMMENT TYPE 1: C51 Compiler
  C:\KEIL_V5\C51\LIB\C51S.LIB (FREE)
         COMMENT TYPE 1: C51 Compiler
  C:\KEIL_V5\C51\LIB\C51S.LIB (?C?COPY)
         COMMENT TYPE 1: A51 / ASM51 Assembler


ACTIVE MEMORY CLASSES OF MODULE:  FProject (?C_STARTUP)

BASE        START       END         USED      MEMORY CLASS
==========================================================
C:000000H   C:000000H   C:00FFFFH   001621H   CODE
I:000000H   I:000000H   I:0000FFH   000001H   IDATA
I:000000H   I:000000H   I:00007FH   00007CH   DATA
X:000000H   X:000000H   X:00FFFFH   000271H   XDATA
C:000000H   C:000000H   C:00FFFFH   0008D5H   CONST
I:000020H.0 I:000020H.0 I:00002FH.7 000000H.1 BIT


MEMORY MAP OF MODULE:  FProject (?C_STARTUP)


START     STOP      LENGTH    ALIGN  RELOC    MEMORY CLASS   SEGMENT NAME
=========================================================================
LX51 LINKER/LOCATER V4.66.62.0                                                        11/16/2016  10:35:37  PAGE 2



* * * * * * * * * * *   D A T A   M E M O R Y   * * * * * * * * * * * * *
000000H   000007H   000008H   ---    AT..     DATA           "REG BANK 0"
000008H   000011H   00000AH   BYTE   UNIT     DATA           ?DT?MAIN
000012H   000019H   000008H   BYTE   UNIT     DATA           ?DT?_REALLOC?REALLOC
00001AH   00001FH   000006H   BYTE   UNIT     DATA           ?DT?_READMEMORYBLOCK?MAIN
000020H   000020H   000001H   BYTE   BITADDR  DATA           ?BA?MAIN
000021H.0 000021H.0 000000H.1 BIT    UNIT     BIT            ?BI?MAIN
000021H.1 000021H   000000H.7 ---    ---      **GAP**
000022H   00003CH   00001BH   BYTE   UNIT     DATA           _DATA_GROUP_
00003DH   000043H   000007H   BYTE   UNIT     DATA           ?DT?_WRITEPROGMEMORYBLOCK?MAIN
000044H   00004AH   000007H   BYTE   UNIT     DATA           ?DT?HAL_W2_WAIT_DATA_READY?HAL_W2_ISR
00004BH   000051H   000007H   BYTE   UNIT     DATA           ?DT?_I2C_MPU_READBIT?HAL_W2_ISR
000052H   000057H   000006H   BYTE   UNIT     DATA           ?DT?_HAL_W2_WRITE?HAL_W2_ISR
000058H   00005DH   000006H   BYTE   UNIT     DATA           ?DT?_HAL_W2_READ?HAL_W2_ISR
00005EH   000062H   000005H   BYTE   UNIT     DATA           ?DT?_WRITEDMPCONFIGURATIONSET?MAIN
000063H   000067H   000005H   BYTE   UNIT     DATA           ?DT?_SEND_PACKET_TO_COMPUTER?MAIN
000068H   00006CH   000005H   BYTE   UNIT     DATA           ?DT?_SEND_PACKET_FROM_HOST_TO_COMPUTER?MAIN
00006DH   000070H   000004H   BYTE   UNIT     DATA           ?DT?_MALLOC?MALLOC
000071H   000074H   000004H   BYTE   UNIT     DATA           ?DT?_FREE?FREE
000075H   000077H   000003H   BYTE   UNIT     DATA           ?DT?_GETFIFOBYTES?MAIN
000078H   00007AH   000003H   BYTE   UNIT     DATA           ?DT?_PUTSTRING?MAIN
00007BH   00007CH   000002H   BYTE   UNIT     DATA           ?DT?HAL_W2_ISR
00007DH   00007DH   000001H   BYTE   UNIT     IDATA          ?STACK

* * * * * * * * * * *   C O D E   M E M O R Y   * * * * * * * * * * * * *
000000H   000002H   000003H   ---    OFFS..   CODE           ?CO??C_STARTUP?0
000003H   00000AH   000008H   BYTE   UNIT     CODE           ?PR?_SETXACCELOFFSET?MAIN
00000BH   00000DH   000003H   BYTE   OFFS..   CODE           ?MAIN?0000B
00000EH   000049H   00003CH   BYTE   UNIT     CODE           ?PR?_INIT_MEMPOOL?INIT_MEM
00004AH   00004AH   000001H   ---    ---      **GAP**
00004BH   00004DH   000003H   BYTE   OFFS..   CODE           ?MAIN?0004B
00004EH   000052H   000005H   ---    ---      **GAP**
000053H   000055H   000003H   BYTE   OFFS..   CODE           ?MAIN?00053
000056H   0003D6H   000381H   BYTE   UNIT     CODE           ?C?LIB_CODE
0003D7H   0005BAH   0001E4H   BYTE   UNIT     CODE           ?PR?_WRITEMEMORYBLOCK?MAIN
0005BBH   00074BH   000191H   BYTE   UNIT     CODE           ?PR?_WRITEDMPCONFIGURATIONSET?MAIN
00074CH   00084FH   000104H   BYTE   UNIT     CODE           ?PR?_FREE?FREE
000850H   000915H   0000C6H   BYTE   UNIT     CODE           ?PR?_READMEMORYBLOCK?MAIN
000916H   0009D7H   0000C2H   BYTE   UNIT     CODE           ?PR?MAIN?MAIN
0009D8H   000A73H   00009CH   BYTE   UNIT     CODE           ?PR?_MALLOC?MALLOC
000A74H   000B0CH   000099H   BYTE   UNIT     CODE           ?PR?_GETMOTION6_PACKET?MAIN
000B0DH   000B98H   00008CH   BYTE   UNIT     CODE           ?C_C51STARTUP
000B99H   000C21H   000089H   BYTE   UNIT     CODE           ?PR?SETUP?MAIN
000C22H   000CA9H   000088H   BYTE   UNIT     CODE           ?PR?MAIN
000CAAH   000D2EH   000085H   BYTE   UNIT     CODE           ?PR?RF_IRQ?MAIN
000D2FH   000DA6H   000078H   BYTE   UNIT     CODE           ?PR?_REALLOC?REALLOC
000DA7H   000E19H   000073H   BYTE   UNIT     CODE           ?PR?HAL_W2_SOFT_RESET?HAL_W2_ISR
000E1AH   000E7CH   000063H   BYTE   UNIT     CODE           ?PR?_I2C_MPU_WRITEBITS?HAL_W2_ISR
000E7DH   000ED9H   00005DH   BYTE   UNIT     CODE           ?PR?_I2C_MPU_READBYTES?HAL_W2_ISR
000EDAH   000F31H   000058H   BYTE   UNIT     CODE           ?PR?_I2C_MPU_READBITS?HAL_W2_ISR
000F32H   000F87H   000056H   BYTE   UNIT     CODE           ?PR?_SEND_PACKET_TO_HOST?MAIN
000F88H   000FDDH   000056H   BYTE   UNIT     CODE           ?PR?_I2C_MPU_WRITEWORDS?HAL_W2_ISR
000FDEH   00102BH   00004EH   BYTE   UNIT     CODE           ?PR?_I2C_MPU_WRITEBIT?HAL_W2_ISR
00102CH   001070H   000045H   BYTE   UNIT     CODE           ?PR?RF_INIT?MAIN
001071H   0010B2H   000042H   BYTE   UNIT     CODE           ?PR?_HAL_W2_READ?HAL_W2_ISR
0010B3H   0010EDH   00003BH   BYTE   UNIT     CODE           ?PR?I2C_IRQ?MAIN
0010EEH   001127H   00003AH   BYTE   UNIT     CODE           ?PR?_I2C_MPU_WRITEBYTES?HAL_W2_ISR
001128H   00115FH   000038H   BYTE   UNIT     CODE           ?PR?_HAL_W2_WRITE?HAL_W2_ISR
001160H   001194H   000035H   BYTE   UNIT     CODE           ?PR?_SEND_PACKET_TO_COMPUTER?MAIN
001195H   0011C9H   000035H   BYTE   UNIT     CODE           ?PR?_SEND_PACKET_FROM_HOST_TO_COMPUTER?MAIN
0011CAH   0011FCH   000033H   BYTE   UNIT     CODE           ?PR?MPU_INITIALIZE?MAIN
0011FDH   001228H   00002CH   BYTE   UNIT     CODE           ?PR?_TX_MODE_NOACK?MAIN
001229H   001253H   00002BH   BYTE   UNIT     CODE           ?PR?_SPI_READ_BUF?MAIN
001254H   00127CH   000029H   BYTE   UNIT     CODE           ?PR?_GETFIFOBYTES?MAIN
LX51 LINKER/LOCATER V4.66.62.0                                                        11/16/2016  10:35:37  PAGE 3


00127DH   0012A3H   000027H   BYTE   UNIT     CODE           ?PR?HAL_W2_WAIT_DATA_READY?HAL_W2_ISR
0012A4H   0012C7H   000024H   BYTE   UNIT     CODE           ?PR?_I2C_MPU_READBIT?HAL_W2_ISR
0012C8H   0012E8H   000021H   BYTE   UNIT     CODE           ?PR?MPU_TESTCONNECTION?MAIN
0012E9H   001309H   000021H   BYTE   UNIT     CODE           ?PR?_HAL_W2_CONFIGURE_MASTER?HAL_W2_ISR
00130AH   001328H   00001FH   BYTE   UNIT     CODE           ?PR?_SPI_WRITE_BUF?MAIN
001329H   001346H   00001EH   BYTE   UNIT     CODE           ?C_INITSEG
001347H   001362H   00001CH   BYTE   UNIT     CODE           ?PR?_PUTSTRING?MAIN
001363H   00137EH   00001CH   BYTE   UNIT     CODE           ?PR?LUZES_INICIAIS?MAIN
00137FH   001398H   00001AH   BYTE   UNIT     CODE           ?PR?UART_INIT?MAIN
001399H   0013B2H   00001AH   BYTE   UNIT     CODE           ?PR?_DELAY_US?HAL_DELAY
0013B3H   0013CAH   000018H   BYTE   UNIT     CODE           ?PR?_SETMEMORYBANK?MAIN
0013CBH   0013DEH   000014H   BYTE   UNIT     CODE           ?PR?_DELAY_MS?HAL_DELAY
0013DFH   0013F1H   000013H   BYTE   UNIT     CODE           ?PR?GETINTSTATUS?MAIN
0013F2H   001404H   000013H   BYTE   UNIT     CODE           ?PR?_SPI_RW_REG?MAIN
001405H   001417H   000013H   BYTE   UNIT     CODE           ?PR?_I2C_MPU_WRITEWORD?HAL_W2_ISR
001418H   001429H   000012H   BYTE   UNIT     CODE           ?PR?_WRITEPROGMEMORYBLOCK?MAIN
00142AH   00143BH   000012H   BYTE   UNIT     CODE           ?PR?INICIARIO?MAIN
00143CH   00144DH   000012H   BYTE   UNIT     CODE           ?PR?_HAL_W2_INIT_TRANSFER?HAL_W2_ISR
00144EH   00145FH   000012H   BYTE   UNIT     CODE           ?PR?_I2C_MPU_READBYTE?HAL_W2_ISR
001460H   001470H   000011H   BYTE   UNIT     CODE           ?PR?RX_MODE?MAIN
001471H   001481H   000011H   BYTE   UNIT     CODE           ?PR?_UART_PUTCHAR?MAIN
001482H   001492H   000011H   BYTE   UNIT     CODE           ?PR?_I2C_MPU_WRITEBYTE?HAL_W2_ISR
001493H   0014A2H   000010H   BYTE   UNIT     CODE           ?PR?TMR0_IRQ?MAIN
0014A3H   0014B0H   00000EH   BYTE   UNIT     CODE           ?PR?GETXACCELOFFSET?MAIN
0014B1H   0014BEH   00000EH   BYTE   UNIT     CODE           ?PR?GETYACCELOFFSET?MAIN
0014BFH   0014CCH   00000EH   BYTE   UNIT     CODE           ?PR?GETZACCELOFFSET?MAIN
0014CDH   0014DAH   00000EH   BYTE   UNIT     CODE           ?PR?GETXGYROOFFSET?MAIN
0014DBH   0014E8H   00000EH   BYTE   UNIT     CODE           ?PR?GETYGYROOFFSET?MAIN
0014E9H   0014F6H   00000EH   BYTE   UNIT     CODE           ?PR?GETZGYROOFFSET?MAIN
0014F7H   001504H   00000EH   BYTE   UNIT     CODE           ?PR?GETFIFOCOUNT?MAIN
001505H   001512H   00000EH   BYTE   UNIT     CODE           ?PR?_HAL_W2_SET_CLK_FREQ?HAL_W2_ISR
001513H   001520H   00000EH   BYTE   UNIT     CODE           ?PR?HAL_W2_ISR
001521H   00152DH   00000DH   BYTE   UNIT     CODE           ?PR?_SPI_READ?MAIN
00152EH   001539H   00000CH   BYTE   UNIT     CODE           ?PR?RESETFIFO?MAIN
00153AH   001545H   00000CH   BYTE   UNIT     CODE           ?PR?INICIARRF?MAIN
001546H   001550H   00000BH   BYTE   UNIT     CODE           ?PR?MPU_8051_MALLOC_SETUP?MAIN
001551H   00155BH   00000BH   BYTE   UNIT     CODE           ?PR?_SETYGYROOFFSET?MAIN
00155CH   001566H   00000BH   BYTE   UNIT     CODE           ?PR?_SETZGYROOFFSET?MAIN
001567H   001571H   00000BH   BYTE   UNIT     CODE           ?PR?_SETDMPENABLED?MAIN
001572H   00157CH   00000BH   BYTE   UNIT     CODE           ?PR?_HAL_W2_RESPOND_TO_GEN_ADR?HAL_W2_ISR
00157DH   001587H   00000BH   BYTE   UNIT     CODE           ?PR?_HAL_W2_ALTER_CLOCK?HAL_W2_ISR
001588H   001592H   00000BH   BYTE   UNIT     CODE           ?PR?_HAL_W2_IRQ_STOP_COND_ENABLE?HAL_W2_ISR
001593H   00159DH   00000BH   BYTE   UNIT     CODE           ?PR?_HAL_W2_IRQ_ADR_MATCH_ENABLE?HAL_W2_ISR
00159EH   0015A8H   00000BH   BYTE   UNIT     CODE           ?PR?_HAL_W2_SET_OP_MODE?HAL_W2_ISR
0015A9H   0015B3H   00000BH   BYTE   UNIT     CODE           ?PR?_HAL_W2_ENABLE?HAL_W2_ISR
0015B4H   0015BEH   00000BH   BYTE   UNIT     CODE           ?PR?_HAL_W2_ALL_IRQ_ENABLE?HAL_W2_ISR
0015BFH   0015C8H   00000AH   BYTE   UNIT     CODE           ?PR?START_T0?MAIN
0015C9H   0015D2H   00000AH   BYTE   UNIT     CODE           ?PR?STOP_T0?MAIN
0015D3H   0015DCH   00000AH   BYTE   UNIT     CODE           ?PR?_SPI_RW?MAIN
0015DDH   0015E6H   00000AH   BYTE   UNIT     CODE           ?PR?HAL_W2_WAIT_DATA_READY_ISR?HAL_W2_ISR
0015E7H   0015F0H   00000AH   BYTE   UNIT     CODE           ?PR?I2C_IRQ_HANDLER?HAL_W2_ISR
0015F1H   0015F9H   000009H   BYTE   UNIT     CODE           ?PR?DMPGETFIFOPACKETSIZE?MAIN
0015FAH   001602H   000009H   BYTE   UNIT     CODE           ?PR?_SETMEMORYSTARTADDRESS?MAIN
001603H   00160AH   000008H   BYTE   UNIT     CODE           ?PR?_SETYACCELOFFSET?MAIN
00160BH   001612H   000008H   BYTE   UNIT     CODE           ?PR?_SETZACCELOFFSET?MAIN
001613H   00161AH   000008H   BYTE   UNIT     CODE           ?PR?_SETXGYROOFFSET?MAIN
00161BH   001620H   000006H   BYTE   UNIT     CODE           ?PR?_WRITEPROGDMPCONFIGURATIONSET?MAIN
001621H   001626H   000006H   BYTE   UNIT     CODE           ?PR?_HAL_W2_SET_SLAVE_ADDRESS?HAL_W2_ISR
001627H   001EFBH   0008D5H   BYTE   UNIT     CONST          ?CO?MAIN

* * * * * * * * * * *  X D A T A   M E M O R Y  * * * * * * * * * * * * *
000000H   000260H   000261H   BYTE   UNIT     XDATA          ?XD?MAIN
000261H   000268H   000008H   BYTE   UNIT     XDATA          ?XD?_WRITEMEMORYBLOCK?MAIN
000269H   000270H   000008H   BYTE   UNIT     XDATA          ?XD?INIT_MEM

LX51 LINKER/LOCATER V4.66.62.0                                                        11/16/2016  10:35:37  PAGE 4




OVERLAY MAP OF MODULE:   FProject (?C_STARTUP)


FUNCTION/MODULE                               BIT_GROUP   DATA_GROUP 
--> CALLED FUNCTION/MODULE                   START  STOP  START  STOP
=====================================================================
?C_C51STARTUP                                ----- -----  ----- -----
  +--> MAIN/MAIN
  +--> ?C_INITSEG

MAIN/MAIN                                    ----- -----  ----- -----
  +--> SETUP/MAIN
  +--> ?CO?MAIN
  +--> _DELAY_MS/HAL_DELAY
  +--> START_T0/MAIN
  +--> STOP_T0/MAIN
  +--> _GETMOTION6_PACKET/MAIN
  +--> _SEND_PACKET_TO_HOST/MAIN

SETUP/MAIN                                   ----- -----  ----- -----
  +--> INICIARIO/MAIN
  +--> INICIARRF/MAIN
  +--> _HAL_W2_CONFIGURE_MASTER/HAL_W2_ISR
  +--> LUZES_INICIAIS/MAIN
  +--> ?CO?MAIN
  +--> MPU_8051_MALLOC_SETUP/MAIN
  +--> MPU_INITIALIZE/MAIN
  +--> MPU_TESTCONNECTION/MAIN
  +--> _SEND_PACKET_TO_HOST/MAIN
  +--> _DELAY_MS/HAL_DELAY
  +--> _SETXACCELOFFSET/MAIN
  +--> _SETYACCELOFFSET/MAIN
  +--> _SETZACCELOFFSET/MAIN
  +--> _SETXGYROOFFSET/MAIN
  +--> _SETYGYROOFFSET/MAIN
  +--> _SETZGYROOFFSET/MAIN

INICIARIO/MAIN                               ----- -----  ----- -----

INICIARRF/MAIN                               ----- -----  ----- -----
  +--> RF_INIT/MAIN
  +--> RX_MODE/MAIN

RF_INIT/MAIN                                 ----- -----  ----- -----
  +--> MAIN
  +--> _SPI_WRITE_BUF/MAIN
  +--> _SPI_RW_REG/MAIN

MAIN                                         ----- -----  ----- -----
  +--> ?CO?MAIN
  +--> _UART_PUTCHAR/MAIN
  +--> _SPI_RW/MAIN

?CO?MAIN                                     ----- -----  ----- -----

_UART_PUTCHAR/MAIN                           ----- -----  ----- -----

_SPI_RW/MAIN                                 ----- -----  ----- -----

_SPI_WRITE_BUF/MAIN                          ----- -----  0029H 002DH
  +--> MAIN
  +--> _SPI_RW/MAIN

LX51 LINKER/LOCATER V4.66.62.0                                                        11/16/2016  10:35:37  PAGE 5


_SPI_RW_REG/MAIN                             ----- -----  ----- -----
  +--> _SPI_RW/MAIN

RX_MODE/MAIN                                 ----- -----  ----- -----
  +--> _SPI_RW_REG/MAIN

_HAL_W2_CONFIGURE_MASTER/HAL_W2_ISR          ----- -----  ----- -----
  +--> _HAL_W2_ENABLE/HAL_W2_ISR
  +--> _HAL_W2_SET_CLK_FREQ/HAL_W2_ISR
  +--> _HAL_W2_SET_OP_MODE/HAL_W2_ISR
  +--> _HAL_W2_ALL_IRQ_ENABLE/HAL_W2_ISR

_HAL_W2_ENABLE/HAL_W2_ISR                    ----- -----  ----- -----

_HAL_W2_SET_CLK_FREQ/HAL_W2_ISR              ----- -----  ----- -----

_HAL_W2_SET_OP_MODE/HAL_W2_ISR               ----- -----  ----- -----

_HAL_W2_ALL_IRQ_ENABLE/HAL_W2_ISR            ----- -----  ----- -----

LUZES_INICIAIS/MAIN                          ----- -----  ----- -----
  +--> _DELAY_MS/HAL_DELAY

_DELAY_MS/HAL_DELAY                          ----- -----  ----- -----
  +--> _DELAY_US/HAL_DELAY

_DELAY_US/HAL_DELAY                          ----- -----  ----- -----

MPU_8051_MALLOC_SETUP/MAIN                   ----- -----  ----- -----
  +--> _INIT_MEMPOOL/INIT_MEM

_INIT_MEMPOOL/INIT_MEM                       ----- -----  ----- -----

MPU_INITIALIZE/MAIN                          ----- -----  ----- -----
  +--> _I2C_MPU_WRITEBITS/HAL_W2_ISR
  +--> _I2C_MPU_WRITEBIT/HAL_W2_ISR

_I2C_MPU_WRITEBITS/HAL_W2_ISR                ----- -----  0022H 0028H
  +--> _I2C_MPU_READBYTE/HAL_W2_ISR
  +--> _I2C_MPU_WRITEBYTE/HAL_W2_ISR

_I2C_MPU_READBYTE/HAL_W2_ISR                 ----- -----  002BH 002DH
  +--> _I2C_MPU_READBYTES/HAL_W2_ISR

_I2C_MPU_READBYTES/HAL_W2_ISR                ----- -----  002EH 0035H
  +--> _HAL_W2_INIT_TRANSFER/HAL_W2_ISR
  +--> HAL_W2_WAIT_DATA_READY_ISR/HAL_W2_ISR
  +--> HAL_W2_SOFT_RESET/HAL_W2_ISR
  +--> HAL_W2_ISR

_HAL_W2_INIT_TRANSFER/HAL_W2_ISR             ----- -----  ----- -----
  +--> HAL_W2_ISR

HAL_W2_ISR                                   ----- -----  ----- -----
  +--> HAL_W2_WAIT_DATA_READY_ISR/HAL_W2_ISR

HAL_W2_WAIT_DATA_READY_ISR/HAL_W2_ISR        ----- -----  ----- -----

HAL_W2_SOFT_RESET/HAL_W2_ISR                 ----- -----  0036H 0037H
  +--> _DELAY_US/HAL_DELAY

_I2C_MPU_WRITEBYTE/HAL_W2_ISR                ----- -----  0029H 0029H
  +--> _I2C_MPU_WRITEBYTES/HAL_W2_ISR

_I2C_MPU_WRITEBYTES/HAL_W2_ISR               ----- -----  002AH 002FH
LX51 LINKER/LOCATER V4.66.62.0                                                        11/16/2016  10:35:37  PAGE 6


  +--> _HAL_W2_INIT_TRANSFER/HAL_W2_ISR
  +--> HAL_W2_WAIT_DATA_READY_ISR/HAL_W2_ISR
  +--> HAL_W2_ISR

_I2C_MPU_WRITEBIT/HAL_W2_ISR                 ----- -----  0022H 0026H
  +--> _I2C_MPU_READBYTE/HAL_W2_ISR
  +--> _I2C_MPU_WRITEBYTE/HAL_W2_ISR

MPU_TESTCONNECTION/MAIN                      ----- -----  ----- -----
  +--> _I2C_MPU_READBITS/HAL_W2_ISR

_I2C_MPU_READBITS/HAL_W2_ISR                 ----- -----  0022H 002AH
  +--> _I2C_MPU_READBYTE/HAL_W2_ISR

_SEND_PACKET_TO_HOST/MAIN                    ----- -----  0022H 0026H
  +--> _TX_MODE_NOACK/MAIN
  +--> RX_MODE/MAIN

_TX_MODE_NOACK/MAIN                          ----- -----  0027H 0028H
  +--> _SPI_RW_REG/MAIN
  +--> MAIN
  +--> _SPI_WRITE_BUF/MAIN

_SETXACCELOFFSET/MAIN                        ----- -----  ----- -----
  +--> MAIN
  +--> _I2C_MPU_WRITEWORD/HAL_W2_ISR

_I2C_MPU_WRITEWORD/HAL_W2_ISR                ----- -----  0022H 0023H
  +--> _I2C_MPU_WRITEWORDS/HAL_W2_ISR

_I2C_MPU_WRITEWORDS/HAL_W2_ISR               ----- -----  0024H 0029H
  +--> _HAL_W2_INIT_TRANSFER/HAL_W2_ISR
  +--> HAL_W2_WAIT_DATA_READY_ISR/HAL_W2_ISR
  +--> HAL_W2_ISR

_SETYACCELOFFSET/MAIN                        ----- -----  ----- -----
  +--> MAIN
  +--> _I2C_MPU_WRITEWORD/HAL_W2_ISR

_SETZACCELOFFSET/MAIN                        ----- -----  ----- -----
  +--> MAIN
  +--> _I2C_MPU_WRITEWORD/HAL_W2_ISR

_SETXGYROOFFSET/MAIN                         ----- -----  ----- -----
  +--> MAIN
  +--> _I2C_MPU_WRITEWORD/HAL_W2_ISR

_SETYGYROOFFSET/MAIN                         ----- -----  ----- -----
  +--> _I2C_MPU_WRITEWORD/HAL_W2_ISR

_SETZGYROOFFSET/MAIN                         ----- -----  ----- -----
  +--> _I2C_MPU_WRITEWORD/HAL_W2_ISR

START_T0/MAIN                                ----- -----  ----- -----
  +--> MAIN

STOP_T0/MAIN                                 ----- -----  ----- -----
  +--> MAIN

_GETMOTION6_PACKET/MAIN                      ----- -----  0022H 0024H
  +--> _I2C_MPU_READBYTES/HAL_W2_ISR

?C_INITSEG                                   ----- -----  ----- -----

*** NEW ROOT *******************************
LX51 LINKER/LOCATER V4.66.62.0                                                        11/16/2016  10:35:37  PAGE 7



TMR0_IRQ/MAIN                                ----- -----  ----- -----
  +--> MAIN

*** NEW ROOT *******************************

RF_IRQ/MAIN                                  ----- -----  ----- -----
  +--> _SPI_READ/MAIN
  +--> _SPI_READ_BUF/MAIN
  +--> _SPI_RW_REG/MAIN

_SPI_READ/MAIN                               ----- -----  ----- -----
  +--> _SPI_RW/MAIN

_SPI_READ_BUF/MAIN                           ----- -----  0038H 003CH
  +--> MAIN
  +--> _SPI_RW/MAIN

*** NEW ROOT *******************************

I2C_IRQ/MAIN                                 ----- -----  ----- -----
  +--> I2C_IRQ_HANDLER/HAL_W2_ISR

I2C_IRQ_HANDLER/HAL_W2_ISR                   ----- -----  ----- -----



PUBLIC SYMBOLS OF MODULE:  FProject (?C_STARTUP)


      VALUE       CLASS    TYPE      PUBLIC SYMBOL NAME
      =================================================
      00000058H   DATA     BYTE      ?_hal_w2_read?BYTE
      00000052H   DATA     BYTE      ?_hal_w2_write?BYTE
      0000004BH   DATA     BYTE      ?_i2c_mpu_readBit?BYTE
      00000022H   DATA     BYTE      ?_i2c_mpu_readBits?BYTE
      0000002EH   DATA     BYTE      ?_i2c_mpu_readBytes?BYTE
      00000022H   DATA     BYTE      ?_i2c_mpu_writeBit?BYTE
      00000022H   DATA     BYTE      ?_i2c_mpu_writeBits?BYTE
      0000002AH   DATA     BYTE      ?_i2c_mpu_writeBytes?BYTE
      00000024H   DATA     BYTE      ?_i2c_mpu_writeWords?BYTE
      0000001AH   DATA     BYTE      ?_readMemoryBlock?BYTE
      00000068H   DATA     BYTE      ?_send_packet_from_host_to_computer?BYTE
      00000063H   DATA     BYTE      ?_send_packet_to_computer?BYTE
      00000022H   DATA     BYTE      ?_send_packet_to_host?BYTE
      00000038H   DATA     BYTE      ?_SPI_Read_Buf?BYTE
      00000029H   DATA     BYTE      ?_SPI_Write_Buf?BYTE
      02000261H   XDATA    BYTE      ?_writeMemoryBlock?BYTE
      0000003DH   DATA     BYTE      ?_writeProgMemoryBlock?BYTE
      0100006FH   CODE     ---       ?C?CLDOPTR
      01000056H   CODE     ---       ?C?CLDPTR
      00000000H   NUMBER   ---       ?C?CODESEG
      010003B1H   CODE     ---       ?C?COPY
      010000AEH   CODE     ---       ?C?CSTOPTR
      0100009CH   CODE     ---       ?C?CSTPTR
      010000D0H   CODE     ---       ?C?IILDX
      010000E6H   CODE     ---       ?C?ILDIX
      010000FCH   CODE     ---       ?C?ILDPTR
      010002BDH   CODE     ---       ?C?MEMCMP
      01000127H   CODE     ---       ?C?PLDIIDATA
      00000000H   NUMBER   ---       ?C?XDATASEG
      01000B54H   CODE     ---       ?C_START
      01000000H   CODE     ---       ?C_STARTUP
      02000269H   XDATA    ---       __mem_avail__
      010013CBH   CODE     ---       _delay_ms
LX51 LINKER/LOCATER V4.66.62.0                                                        11/16/2016  10:35:37  PAGE 8


      010013A4H   CODE     ---       _delay_us
      0100074CH   CODE     ---       _free
      01001254H   CODE     ---       _getFIFOBytes
      01000A74H   CODE     ---       _getMotion6_packet
      010015B4H   CODE     ---       _hal_w2_all_irq_enable
      0100157DH   CODE     ---       _hal_w2_alter_clock
      010012E9H   CODE     ---       _hal_w2_configure_master
      010015A9H   CODE     ---       _hal_w2_enable
      0100143CH   CODE     ---       _hal_w2_init_transfer
      01001593H   CODE     ---       _hal_w2_irq_adr_match_enable
      01001588H   CODE     ---       _hal_w2_irq_stop_cond_enable
      01001071H   CODE     ---       _hal_w2_read
      01001572H   CODE     ---       _hal_w2_respond_to_gen_adr
      01001505H   CODE     ---       _hal_w2_set_clk_freq
      0100159EH   CODE     ---       _hal_w2_set_op_mode
      01001621H   CODE     ---       _hal_w2_set_slave_address
      01001128H   CODE     ---       _hal_w2_write
      010012A4H   CODE     ---       _i2c_mpu_readBit
      01000EDAH   CODE     ---       _i2c_mpu_readBits
      0100144EH   CODE     ---       _i2c_mpu_readByte
      01000E7DH   CODE     ---       _i2c_mpu_readBytes
      01000FDEH   CODE     ---       _i2c_mpu_writeBit
      01000E1AH   CODE     ---       _i2c_mpu_writeBits
      01001482H   CODE     ---       _i2c_mpu_writeByte
      010010EEH   CODE     ---       _i2c_mpu_writeBytes
      01001405H   CODE     ---       _i2c_mpu_writeWord
      01000F88H   CODE     ---       _i2c_mpu_writeWords
      0100000EH   CODE     ---       _init_mempool
      010009D8H   CODE     ---       _malloc
      01001347H   CODE     ---       _putstring
      01000850H   CODE     ---       _readMemoryBlock
      01000D2FH   CODE     ---       _realloc
      01001195H   CODE     ---       _send_packet_from_host_to_computer
      01001160H   CODE     ---       _send_packet_to_computer
      01000F32H   CODE     ---       _send_packet_to_host
      01001567H   CODE     ---       _setDMPEnabled
      010013B3H   CODE     ---       _setMemoryBank
      010015FAH   CODE     ---       _setMemoryStartAddress
      01000003H   CODE     ---       _setXAccelOffset
      01001613H   CODE     ---       _setXGyroOffset
      01001603H   CODE     ---       _setYAccelOffset
      01001551H   CODE     ---       _setYGyroOffset
      0100160BH   CODE     ---       _setZAccelOffset
      0100155CH   CODE     ---       _setZGyroOffset
      01001521H   CODE     ---       _SPI_Read
      01001229H   CODE     ---       _SPI_Read_Buf
      010015D3H   CODE     ---       _SPI_RW
      010013F2H   CODE     ---       _SPI_RW_Reg
      0100130AH   CODE     ---       _SPI_Write_Buf
      010011FDH   CODE     ---       _TX_Mode_NOACK
      0100147AH   CODE     ---       _uart_putchar
      010005BBH   CODE     ---       _writeDMPConfigurationSet
      010003D7H   CODE     ---       _writeMemoryBlock
      0100161BH   CODE     ---       _writeProgDMPConfigurationSet
      01001418H   CODE     ---       _writeProgMemoryBlock
*SFR* 000000D0H.6 DATA     BIT       AC
*SFR* 000000E0H   DATA     BYTE      ACC
*SFR* 000000D3H   DATA     BYTE      ADCCON1
*SFR* 000000D2H   DATA     BYTE      ADCCON2
*SFR* 000000D1H   DATA     BYTE      ADCCON3
*SFR* 000000D4H   DATA     BYTE      ADCDATH
*SFR* 000000D5H   DATA     BYTE      ADCDATL
*SFR* 000000D8H   DATA     BYTE      ADCON
      01001EF7H   CONST    ---       ADDR_HOST
*SFR* 000000EFH   DATA     BYTE      ARCON
LX51 LINKER/LOCATER V4.66.62.0                                                        11/16/2016  10:35:37  PAGE 9


*SFR* 000000F0H   DATA     BYTE      B
      02000248H   XDATA    BYTE      bank_wdcs
*SFR* 000000D8H.7 DATA     BIT       BD
      02000253H   XDATA    ---       buffer
*SFR* 000000C2H   DATA     WORD      CC1
*SFR* 000000C4H   DATA     WORD      CC2
*SFR* 000000C6H   DATA     WORD      CC3
*SFR* 000000C1H   DATA     BYTE      CCEN
*SFR* 000000C3H   DATA     BYTE      CCH1
*SFR* 000000C5H   DATA     BYTE      CCH2
*SFR* 000000C7H   DATA     BYTE      CCH3
*SFR* 000000C2H   DATA     BYTE      CCL1
*SFR* 000000C4H   DATA     BYTE      CCL2
*SFR* 000000C6H   DATA     BYTE      CCL3
*SFR* 000000DDH   DATA     BYTE      CCPDATIA
*SFR* 000000DEH   DATA     BYTE      CCPDATIB
*SFR* 000000DFH   DATA     BYTE      CCPDATO
      0200024BH   XDATA    BYTE      chunkSize_rmb
      0200024CH   XDATA    BYTE      chunkSize_wmb
*SFR* 000000A3H   DATA     BYTE      CLKCTRL
*SFR* 000000ADH   DATA     BYTE      CLKLFCTRL
*SFR* 000000DBH   DATA     BYTE      COMPCON
*SFR* 000000CAH   DATA     WORD      CRC
*SFR* 000000CBH   DATA     BYTE      CRCH
*SFR* 000000CAH   DATA     BYTE      CRCL
*SFR* 000000D0H.7 DATA     BIT       CY
      0000007BH   DATA     BYTE      data_ready
      01001E08H   CONST    ---       dmpConfig
      010015F1H   CODE     ---       dmpGetFIFOPacketSize
      0100167FH   CONST    ---       dmpMemory
      00000010H   DATA     ---       dmpPacketBuffer
      02000249H   XDATA    WORD      dmpPacketSize
      01001EC8H   CONST    ---       dmpUpdates
*SFR* 00000083H   DATA     BYTE      DPH
*SFR* 00000085H   DATA     BYTE      DPH1
*SFR* 00000082H   DATA     BYTE      DPL
*SFR* 00000084H   DATA     BYTE      DPL1
*SFR* 00000092H   DATA     BYTE      DPS
*SFR* 000000A8H.7 DATA     BIT       EA
*SFR* 000000A8H.4 DATA     BIT       ES0
*SFR* 000000A8H.1 DATA     BIT       ET0
*SFR* 000000A8H.3 DATA     BIT       ET1
*SFR* 000000A8H.5 DATA     BIT       ET2
*SFR* 000000A8H   DATA     BIT       EX0
*SFR* 000000A8H.2 DATA     BIT       EX1
*SFR* 000000B8H.7 DATA     BIT       EXEN2
*SFR* 000000C0H.7 DATA     BIT       EXF2
*SFR* 000000D0H.5 DATA     BIT       F0
*SFR* 000000FAH   DATA     BYTE      FCR
*SFR* 000000FBH   DATA     BYTE      FDCR
*SFR* 000000F9H   DATA     BYTE      FPCR
*SFR* 000000F8H   DATA     BYTE      FSR
      010014F7H   CODE     ---       getFIFOCount
      010013DFH   CODE     ---       getIntStatus
      010014A3H   CODE     ---       getXAccelOffset
      010014CDH   CODE     ---       getXGyroOffset
      010014B1H   CODE     ---       getYAccelOffset
      010014DBH   CODE     ---       getYGyroOffset
      010014BFH   CODE     ---       getZAccelOffset
      010014E9H   CODE     ---       getZGyroOffset
      01000DA7H   CODE     ---       hal_w2_soft_reset
      0100127DH   CODE     ---       hal_w2_wait_data_ready
      010015DDH   CODE     ---       hal_w2_wait_data_ready_ISR
      010010B3H   CODE     ---       I2C_IRQ
      010015E7H   CODE     ---       I2C_IRQ_handler
LX51 LINKER/LOCATER V4.66.62.0                                                        11/16/2016  10:35:37  PAGE 10


*SFR* 000000C8H.5 DATA     BIT       I2FR
*SFR* 000000C8H.6 DATA     BIT       I3FR
      02000040H   XDATA    WORD      i_rmb
      0200024FH   XDATA    WORD      i_wdcs
      02000042H   XDATA    WORD      i_wmb
*SFR* 00000088H.1 DATA     BIT       IE0
*SFR* 00000088H.3 DATA     BIT       IE1
*SFR* 000000A8H   DATA     BYTE      IEN0
*SFR* 000000B8H   DATA     BYTE      IEN1
*SFR* 000000F8H.3 DATA     BIT       INFEN
      0100142AH   CODE     ---       iniciarIO
      0100153AH   CODE     ---       iniciarRF
*SFR* 000000A6H   DATA     BYTE      INTEXP
*SFR* 000000A9H   DATA     BYTE      IP0
*SFR* 000000B9H   DATA     BYTE      IP1
*SFR* 000000C0H   DATA     BYTE      IRCON
*SFR* 00000088H   DATA     BIT       IT0
*SFR* 00000088H.2 DATA     BIT       IT1
      02000251H   XDATA    WORD      j_wdcs
      02000045H   XDATA    BYTE      j_wmb
*SFR* 00000080H.3 DATA     BIT       LEDVM
      0200023AH   XDATA    BYTE      length_wdcs
      01001363H   CODE     ---       luzes_iniciais
      01000916H   CODE     ---       main
      02000046H   XDATA    ---       malloc_memory_pool
      00000020H.4 DATA     BIT       MAX_RT
*SFR* 000000F8H.7 DATA     BIT       MCDIS
*SFR* 000000E9H   DATA     BYTE      MD0
*SFR* 000000EAH   DATA     BYTE      MD1
*SFR* 000000EBH   DATA     BYTE      MD2
*SFR* 000000ECH   DATA     BYTE      MD3
*SFR* 000000EDH   DATA     BYTE      MD4
*SFR* 000000EEH   DATA     BYTE      MD5
*SFR* 000000A7H   DATA     BYTE      MEMCON
*SFR* 000000B8H.4 DATA     BIT       MISC
*SFR* 000000C0H.4 DATA     BIT       MISCF
*SFR* 000000C9H   DATA     BYTE      MPAGE
      01001546H   CODE     ---       mpu_8051_malloc_setup
      010011CAH   CODE     ---       mpu_initialize
      010012C8H   CODE     ---       mpu_testConnection
      00000021H.0 BIT      BIT       newPayload
      0200023BH   XDATA    BYTE      offset_wdcs
*SFR* 000000AEH   DATA     BYTE      OPMCON
*SFR* 000000D0H.2 DATA     BIT       OV
*SFR* 000000D0H   DATA     BIT       P
*SFR* 00000080H   DATA     BYTE      P0
*SFR* 00000080H   DATA     BIT       P00
*SFR* 00000080H.1 DATA     BIT       P01
*SFR* 00000080H.2 DATA     BIT       P02
*SFR* 00000080H.3 DATA     BIT       P03
*SFR* 00000080H.4 DATA     BIT       P04
*SFR* 00000080H.5 DATA     BIT       P05
*SFR* 00000080H.6 DATA     BIT       P06
*SFR* 00000080H.7 DATA     BIT       P07
*SFR* 0000009EH   DATA     BYTE      P0CON
*SFR* 00000093H   DATA     BYTE      P0DIR
*SFR* 00000090H   DATA     BYTE      P1
*SFR* 00000090H   DATA     BIT       P10
*SFR* 00000090H.1 DATA     BIT       P11
*SFR* 00000090H.2 DATA     BIT       P12
*SFR* 00000090H.3 DATA     BIT       P13
*SFR* 00000090H.4 DATA     BIT       P14
*SFR* 00000090H.5 DATA     BIT       P15
*SFR* 00000090H.6 DATA     BIT       P16
*SFR* 00000090H.7 DATA     BIT       P17
LX51 LINKER/LOCATER V4.66.62.0                                                        11/16/2016  10:35:37  PAGE 11


*SFR* 0000009FH   DATA     BYTE      P1CON
*SFR* 00000094H   DATA     BYTE      P1DIR
*SFR* 000000A0H   DATA     BYTE      P2
*SFR* 000000A0H   DATA     BIT       P20
*SFR* 000000A0H.1 DATA     BIT       P21
*SFR* 000000A0H.2 DATA     BIT       P22
*SFR* 000000A0H.3 DATA     BIT       P23
*SFR* 000000A0H.4 DATA     BIT       P24
*SFR* 000000A0H.5 DATA     BIT       P25
*SFR* 000000A0H.6 DATA     BIT       P26
*SFR* 000000A0H.7 DATA     BIT       P27
*SFR* 00000097H   DATA     BYTE      P2CON
*SFR* 00000095H   DATA     BYTE      P2DIR
*SFR* 000000B0H   DATA     BYTE      P3
*SFR* 000000B0H   DATA     BIT       P30
*SFR* 000000B0H.1 DATA     BIT       P31
*SFR* 000000B0H.2 DATA     BIT       P32
*SFR* 000000B0H.3 DATA     BIT       P33
*SFR* 000000B0H.4 DATA     BIT       P34
*SFR* 000000B0H.5 DATA     BIT       P35
*SFR* 000000B0H.6 DATA     BIT       P36
*SFR* 000000B0H.7 DATA     BIT       P37
*SFR* 0000008FH   DATA     BYTE      P3CON
*SFR* 00000096H   DATA     BYTE      P3DIR
      0200023CH   XDATA    ---       packet_motion6
      0200024DH   XDATA    BYTE      payloadWidth
*SFR* 00000087H   DATA     BYTE      PCON
*SFR* 000000DCH   DATA     BYTE      POFCON
      0000000CH   DATA     ---       progBuffer_wdcs
      0000000EH   DATA     ---       progBuffer_wmb
*SFR* 000000D0H   DATA     BYTE      PSW
*SFR* 000000B2H   DATA     BYTE      PWMCON
*SFR* 000000A1H   DATA     BYTE      PWMDC0
*SFR* 000000A2H   DATA     BYTE      PWMDC1
*SFR* 000000A4H   DATA     BYTE      PWRDWN
*SFR* 00000098H.2 DATA     BIT       RB80
*SFR* 000000F8H.1 DATA     BIT       RDEND
*SFR* 000000F8H.2 DATA     BIT       RDIS
*SFR* 000000F8H.4 DATA     BIT       RDYN
*SFR* 00000098H.4 DATA     BIT       REN0
      0100152EH   CODE     ---       resetFIFO
*SFR* 000000B8H.1 DATA     BIT       RF
      0100102CH   CODE     ---       rf_init
      01000CAAH   CODE     ---       RF_IRQ
*SFR* 000000E8H   DATA     BIT       RFCE
*SFR* 000000E8H.2 DATA     BIT       RFCKEN
*SFR* 000000E8H   DATA     BYTE      RFCON
*SFR* 000000E8H.1 DATA     BIT       RFCSN
*SFR* 000000C0H.1 DATA     BIT       RFF
*SFR* 000000B8H   DATA     BIT       RFSPI
*SFR* 000000C0H   DATA     BIT       RFSPIF
*SFR* 00000098H   DATA     BIT       RI0
*SFR* 000000D6H   DATA     BYTE      RNGCTL
*SFR* 000000D7H   DATA     BYTE      RNGDAT
*SFR* 000000D0H.3 DATA     BIT       RS0
*SFR* 000000D0H.4 DATA     BIT       RS1
*SFR* 000000B1H   DATA     BYTE      RSTREAS
*SFR* 000000B4H   DATA     BYTE      RTC2CMP0
*SFR* 000000B5H   DATA     BYTE      RTC2CMP1
*SFR* 000000B3H   DATA     BYTE      RTC2CON
*SFR* 000000B6H   DATA     BYTE      RTC2CPT00
*SFR* 000000ABH   DATA     BYTE      RTC2CPT01
*SFR* 000000ACH   DATA     BYTE      RTC2CPT10
      02000000H   XDATA    ---       rx_buf
      00000020H.6 DATA     BIT       RX_DR
LX51 LINKER/LOCATER V4.66.62.0                                                        11/16/2016  10:35:37  PAGE 12


      01001460H   CODE     ---       RX_Mode
*SFR* 00000099H   DATA     BYTE      S0BUF
*SFR* 00000098H   DATA     BYTE      S0CON
*SFR* 000000BAH   DATA     BYTE      S0RELH
*SFR* 000000AAH   DATA     BYTE      S0RELL
*SFR* 00000080H.2 DATA     BIT       S1
*SFR* 00000090H.4 DATA     BIT       S2
      01000B99H   CODE     ---       setup
*SFR* 00000098H.7 DATA     BIT       SM0
*SFR* 00000098H.6 DATA     BIT       SM1
*SFR* 00000098H.5 DATA     BIT       SM20
*SFR* 00000081H   DATA     BYTE      SP
      0200024EH   XDATA    BYTE      special_wdcs
*SFR* 000000B8H.2 DATA     BIT       SPI
*SFR* 000000C0H.2 DATA     BIT       SPIF
*SFR* 000000FCH   DATA     BYTE      SPIMCON0
*SFR* 000000FDH   DATA     BYTE      SPIMCON1
*SFR* 000000FFH   DATA     BYTE      SPIMDAT
*SFR* 000000FEH   DATA     BYTE      SPIMSTAT
*SFR* 000000E4H   DATA     BYTE      SPIRCON0
*SFR* 000000E5H   DATA     BYTE      SPIRCON1
*SFR* 000000E7H   DATA     BYTE      SPIRDAT
*SFR* 000000E6H   DATA     BYTE      SPIRSTAT
*SFR* 000000BCH   DATA     BYTE      SPISCON0
*SFR* 000000BDH   DATA     BYTE      SPISCON1
*SFR* 000000BFH   DATA     BYTE      SPISDAT
*SFR* 000000B7H   DATA     BYTE      SPISRDSZ
*SFR* 000000BEH   DATA     BYTE      SPISSTAT
      00000020H   DATA     BYTE      sta
      010015BFH   CODE     ---       start_T0
      010015C9H   CODE     ---       stop_T0
*SFR* 000000F8H.6 DATA     BIT       STP
      02000044H   XDATA    BYTE      success_wdcs
*SFR* 000000CCH   DATA     WORD      T2
*SFR* 000000C8H.2 DATA     BIT       T2CM
*SFR* 000000C8H   DATA     BYTE      T2CON
*SFR* 000000C8H   DATA     BIT       T2I0
*SFR* 000000C8H.1 DATA     BIT       T2I1
*SFR* 000000C8H.7 DATA     BIT       T2PS
*SFR* 000000C8H.3 DATA     BIT       T2R0
*SFR* 000000C8H.4 DATA     BIT       T2R1
*SFR* 00000098H.3 DATA     BIT       TB80
*SFR* 00000088H   DATA     BYTE      TCON
*SFR* 00000088H.5 DATA     BIT       TF0
*SFR* 00000088H.7 DATA     BIT       TF1
*SFR* 000000C0H.6 DATA     BIT       TF2
*SFR* 0000008CH   DATA     BYTE      TH0
*SFR* 0000008DH   DATA     BYTE      TH1
*SFR* 000000CDH   DATA     BYTE      TH2
*SFR* 00000098H.1 DATA     BIT       TI0
      0000000AH   DATA     INT       timer_flag
*SFR* 0000008AH   DATA     BYTE      TL0
*SFR* 0000008BH   DATA     BYTE      TL1
*SFR* 000000CCH   DATA     BYTE      TL2
*SFR* 00000089H   DATA     BYTE      TMOD
      01001493H   CODE     ---       TMR0_IRQ
*SFR* 00000088H.4 DATA     BIT       TR0
*SFR* 00000088H.6 DATA     BIT       TR1
      02000020H   XDATA    ---       tx_buf
      00000020H.5 DATA     BIT       TX_DS
      0100137FH   CODE     ---       uart_init
      00000008H   DATA     ---       verifyBuffer_wmb
      0000007CH   DATA     BYTE      w2_status
*SFR* 000000E2H   DATA     BYTE      W2CON0
*SFR* 000000E1H   DATA     BYTE      W2CON1
LX51 LINKER/LOCATER V4.66.62.0                                                        11/16/2016  10:35:37  PAGE 13


*SFR* 000000DAH   DATA     BYTE      W2DAT
*SFR* 000000D9H   DATA     BYTE      W2SADR
*SFR* 000000AFH   DATA     BYTE      WDSV
*SFR* 000000F8H.5 DATA     BIT       WEN
*SFR* 000000F8H   DATA     BIT       WPEN
*SFR* 000000A5H   DATA     BYTE      WUCON
*SFR* 000000C0H.5 DATA     BIT       WUF
*SFR* 000000B8H.5 DATA     BIT       WUIRQ
*SFR* 000000CFH   DATA     BYTE      WUOPC0
*SFR* 000000CEH   DATA     BYTE      WUOPC1
*SFR* 000000B8H.3 DATA     BIT       WUPIN
*SFR* 000000C0H.3 DATA     BIT       WUPINF



SYMBOL TABLE OF MODULE:  FProject (?C_STARTUP)

      VALUE       REP       CLASS    TYPE      SYMBOL NAME
      ====================================================
      ---         MODULE    ---      ---       ?C_STARTUP
      01000000H   PUBLIC    CODE     ---       ?C_STARTUP
      000000E0H   SYMBOL    DATA     ---       ACC
      000000F0H   SYMBOL    DATA     ---       B
      00000083H   SYMBOL    DATA     ---       DPH
      00000082H   SYMBOL    DATA     ---       DPL
      00000000H   SYMBOL    NUMBER   ---       IBPSTACK
      00000100H   SYMBOL    NUMBER   ---       IBPSTACKTOP
      00000080H   SYMBOL    NUMBER   ---       IDATALEN
      01000B10H   SYMBOL    CODE     ---       IDATALOOP
      00000000H   SYMBOL    NUMBER   ---       PBPSTACK
      00000100H   SYMBOL    NUMBER   ---       PBPSTACKTOP
      00000000H   SYMBOL    NUMBER   ---       PDATALEN
      00000000H   SYMBOL    NUMBER   ---       PDATASTART
      00000000H   SYMBOL    NUMBER   ---       PPAGE
      00000000H   SYMBOL    NUMBER   ---       PPAGEENABLE
      000000A0H   SYMBOL    DATA     ---       PPAGE_SFR
      00000081H   SYMBOL    DATA     ---       SP
      01000B0DH   SYMBOL    CODE     ---       STARTUP1
      00000000H   SYMBOL    NUMBER   ---       XBPSTACK
      00000000H   SYMBOL    NUMBER   ---       XBPSTACKTOP
      00000000H   SYMBOL    NUMBER   ---       XDATALEN
      00000000H   SYMBOL    NUMBER   ---       XDATASTART
      01000000H   LINE      CODE     ---       #126
      01000B0DH   LINE      CODE     ---       #133
      01000B0FH   LINE      CODE     ---       #134
      01000B10H   LINE      CODE     ---       #135
      01000B11H   LINE      CODE     ---       #136
      01000B13H   LINE      CODE     ---       #185
      01000B16H   LINE      CODE     ---       #196

      ---         MODULE    ---      ---       MAIN
      02000253H   PUBLIC    XDATA    ---       buffer
      00000010H   PUBLIC    DATA     ---       dmpPacketBuffer
      02000251H   PUBLIC    XDATA    WORD      j_wdcs
      0200024FH   PUBLIC    XDATA    WORD      i_wdcs
      0200024EH   PUBLIC    XDATA    BYTE      special_wdcs
      0200024DH   PUBLIC    XDATA    BYTE      payloadWidth
      00000020H.4 PUBLIC    DATA     BIT       MAX_RT
      0200024CH   PUBLIC    XDATA    BYTE      chunkSize_wmb
      0200024BH   PUBLIC    XDATA    BYTE      chunkSize_rmb
      0000000EH   PUBLIC    DATA     ---       progBuffer_wmb
      02000249H   PUBLIC    XDATA    WORD      dmpPacketSize
      02000248H   PUBLIC    XDATA    BYTE      bank_wdcs
      0000000CH   PUBLIC    DATA     ---       progBuffer_wdcs
      0200023CH   PUBLIC    XDATA    ---       packet_motion6
LX51 LINKER/LOCATER V4.66.62.0                                                        11/16/2016  10:35:37  PAGE 14


      00000020H.5 PUBLIC    DATA     BIT       TX_DS
      0000000AH   PUBLIC    DATA     INT       timer_flag
      00000020H.6 PUBLIC    DATA     BIT       RX_DR
      00000020H   PUBLIC    DATA     BYTE      sta
      00000008H   PUBLIC    DATA     ---       verifyBuffer_wmb
      0200023BH   PUBLIC    XDATA    BYTE      offset_wdcs
      00000021H.0 PUBLIC    BIT      BIT       newPayload
      0200023AH   PUBLIC    XDATA    BYTE      length_wdcs
      02000046H   PUBLIC    XDATA    ---       malloc_memory_pool
      02000045H   PUBLIC    XDATA    BYTE      j_wmb
      02000044H   PUBLIC    XDATA    BYTE      success_wdcs
      02000042H   PUBLIC    XDATA    WORD      i_wmb
      02000040H   PUBLIC    XDATA    WORD      i_rmb
      02000020H   PUBLIC    XDATA    ---       tx_buf
      02000000H   PUBLIC    XDATA    ---       rx_buf
      01001EF7H   PUBLIC    CONST    ---       ADDR_HOST
      01001EC8H   PUBLIC    CONST    ---       dmpUpdates
      01001E08H   PUBLIC    CONST    ---       dmpConfig
      0100167FH   PUBLIC    CONST    ---       dmpMemory
      010010B3H   PUBLIC    CODE     ---       I2C_IRQ
      01001363H   PUBLIC    CODE     ---       luzes_iniciais
      01000916H   PUBLIC    CODE     ---       main
      01000B99H   PUBLIC    CODE     ---       setup
      0100142AH   PUBLIC    CODE     ---       iniciarIO
      00000068H   PUBLIC    DATA     BYTE      ?_send_packet_from_host_to_computer?BYTE
      01001195H   PUBLIC    CODE     ---       _send_packet_from_host_to_computer
      00000063H   PUBLIC    DATA     BYTE      ?_send_packet_to_computer?BYTE
      01001160H   PUBLIC    CODE     ---       _send_packet_to_computer
      00000022H   PUBLIC    DATA     BYTE      ?_send_packet_to_host?BYTE
      01000F32H   PUBLIC    CODE     ---       _send_packet_to_host
      01001347H   PUBLIC    CODE     ---       _putstring
      0100147AH   PUBLIC    CODE     ---       _uart_putchar
      0100137FH   PUBLIC    CODE     ---       uart_init
      0100153AH   PUBLIC    CODE     ---       iniciarRF
      0100102CH   PUBLIC    CODE     ---       rf_init
      01000CAAH   PUBLIC    CODE     ---       RF_IRQ
      010011FDH   PUBLIC    CODE     ---       _TX_Mode_NOACK
      01001460H   PUBLIC    CODE     ---       RX_Mode
      00000029H   PUBLIC    DATA     BYTE      ?_SPI_Write_Buf?BYTE
      0100130AH   PUBLIC    CODE     ---       _SPI_Write_Buf
      00000038H   PUBLIC    DATA     BYTE      ?_SPI_Read_Buf?BYTE
      01001229H   PUBLIC    CODE     ---       _SPI_Read_Buf
      01001521H   PUBLIC    CODE     ---       _SPI_Read
      010013F2H   PUBLIC    CODE     ---       _SPI_RW_Reg
      010015D3H   PUBLIC    CODE     ---       _SPI_RW
      010015C9H   PUBLIC    CODE     ---       stop_T0
      010015BFH   PUBLIC    CODE     ---       start_T0
      01001493H   PUBLIC    CODE     ---       TMR0_IRQ
      0000003DH   PUBLIC    DATA     BYTE      ?_writeProgMemoryBlock?BYTE
      01001418H   PUBLIC    CODE     ---       _writeProgMemoryBlock
      0100161BH   PUBLIC    CODE     ---       _writeProgDMPConfigurationSet
      0000001AH   PUBLIC    DATA     BYTE      ?_readMemoryBlock?BYTE
      01000850H   PUBLIC    CODE     ---       _readMemoryBlock
      010005BBH   PUBLIC    CODE     ---       _writeDMPConfigurationSet
      02000261H   PUBLIC    XDATA    BYTE      ?_writeMemoryBlock?BYTE
      010003D7H   PUBLIC    CODE     ---       _writeMemoryBlock
      010015FAH   PUBLIC    CODE     ---       _setMemoryStartAddress
      01001254H   PUBLIC    CODE     ---       _getFIFOBytes
      010015F1H   PUBLIC    CODE     ---       dmpGetFIFOPacketSize
      0100152EH   PUBLIC    CODE     ---       resetFIFO
      01001567H   PUBLIC    CODE     ---       _setDMPEnabled
      010013DFH   PUBLIC    CODE     ---       getIntStatus
      010014F7H   PUBLIC    CODE     ---       getFIFOCount
      010013B3H   PUBLIC    CODE     ---       _setMemoryBank
      010014E9H   PUBLIC    CODE     ---       getZGyroOffset
LX51 LINKER/LOCATER V4.66.62.0                                                        11/16/2016  10:35:37  PAGE 15


      010014DBH   PUBLIC    CODE     ---       getYGyroOffset
      010014CDH   PUBLIC    CODE     ---       getXGyroOffset
      010014BFH   PUBLIC    CODE     ---       getZAccelOffset
      010014B1H   PUBLIC    CODE     ---       getYAccelOffset
      010014A3H   PUBLIC    CODE     ---       getXAccelOffset
      0100155CH   PUBLIC    CODE     ---       _setZGyroOffset
      01001551H   PUBLIC    CODE     ---       _setYGyroOffset
      01001613H   PUBLIC    CODE     ---       _setXGyroOffset
      0100160BH   PUBLIC    CODE     ---       _setZAccelOffset
      01001603H   PUBLIC    CODE     ---       _setYAccelOffset
      01000003H   PUBLIC    CODE     ---       _setXAccelOffset
      01000A74H   PUBLIC    CODE     ---       _getMotion6_packet
      010012C8H   PUBLIC    CODE     ---       mpu_testConnection
      010011CAH   PUBLIC    CODE     ---       mpu_initialize
      01001546H   PUBLIC    CODE     ---       mpu_8051_malloc_setup
      00000098H.3 SFRSYM    DATA     BIT       TB80
      000000BEH   SFRSYM    DATA     BYTE      SPISSTAT
      000000C8H   SFRSYM    DATA     BIT       T2I0
      000000C3H   SFRSYM    DATA     BYTE      CCH1
      00000080H   SFRSYM    DATA     BYTE      P0
      000000C8H.1 SFRSYM    DATA     BIT       T2I1
      000000DFH   SFRSYM    DATA     BYTE      CCPDATO
      000000C5H   SFRSYM    DATA     BYTE      CCH2
      00000090H   SFRSYM    DATA     BYTE      P1
      000000C7H   SFRSYM    DATA     BYTE      CCH3
      000000A0H   SFRSYM    DATA     BYTE      P2
      00000098H.5 SFRSYM    DATA     BIT       SM20
      000000B0H   SFRSYM    DATA     BYTE      P3
      00000080H.2 SFRSYM    DATA     BIT       S1
      000000D0H.6 SFRSYM    DATA     BIT       AC
      000000C2H   SFRSYM    DATA     BYTE      CCL1
      00000090H.4 SFRSYM    DATA     BIT       S2
      000000C4H   SFRSYM    DATA     BYTE      CCL2
      000000D8H.7 SFRSYM    DATA     BIT       BD
      000000B8H   SFRSYM    DATA     BIT       RFSPI
      000000A8H.7 SFRSYM    DATA     BIT       EA
      000000CCH   SFRSYM    DATA     WORD      T2
      000000C6H   SFRSYM    DATA     BYTE      CCL3
      000000B7H   SFRSYM    DATA     BYTE      SPISRDSZ
      000000C8H.3 SFRSYM    DATA     BIT       T2R0
      000000C8H.4 SFRSYM    DATA     BIT       T2R1
      000000A8H   SFRSYM    DATA     BYTE      IEN0
      000000B8H   SFRSYM    DATA     BYTE      IEN1
      000000A5H   SFRSYM    DATA     BYTE      WUCON
      00000085H   SFRSYM    DATA     BYTE      DPH1
      000000DBH   SFRSYM    DATA     BYTE      COMPCON
      000000A3H   SFRSYM    DATA     BYTE      CLKCTRL
      00000084H   SFRSYM    DATA     BYTE      DPL1
      000000C8H.5 SFRSYM    DATA     BIT       I2FR
      000000B8H.3 SFRSYM    DATA     BIT       WUPIN
      000000C8H.6 SFRSYM    DATA     BIT       I3FR
      000000FFH   SFRSYM    DATA     BYTE      SPIMDAT
      000000C0H.7 SFRSYM    DATA     BIT       EXF2
      00000098H.4 SFRSYM    DATA     BIT       REN0
      000000C8H.2 SFRSYM    DATA     BIT       T2CM
      000000B8H.1 SFRSYM    DATA     BIT       RF
      000000B8H.5 SFRSYM    DATA     BIT       WUIRQ
      000000E7H   SFRSYM    DATA     BYTE      SPIRDAT
      000000C1H   SFRSYM    DATA     BYTE      CCEN
      000000E2H   SFRSYM    DATA     BYTE      W2CON0
      000000BFH   SFRSYM    DATA     BYTE      SPISDAT
      000000D0H.7 SFRSYM    DATA     BIT       CY
      000000E1H   SFRSYM    DATA     BYTE      W2CON1
      000000FBH   SFRSYM    DATA     BYTE      FDCR
      000000E8H   SFRSYM    DATA     BIT       RFCE
LX51 LINKER/LOCATER V4.66.62.0                                                        11/16/2016  10:35:37  PAGE 16


      000000CBH   SFRSYM    DATA     BYTE      CRCH
      00000081H   SFRSYM    DATA     BYTE      SP
      000000D0H.2 SFRSYM    DATA     BIT       OV
      000000CAH   SFRSYM    DATA     BYTE      CRCL
      000000ADH   SFRSYM    DATA     BYTE      CLKLFCTRL
      000000B1H   SFRSYM    DATA     BYTE      RSTREAS
      000000C8H.7 SFRSYM    DATA     BIT       T2PS
      000000F9H   SFRSYM    DATA     BYTE      FPCR
      000000B8H.4 SFRSYM    DATA     BIT       MISC
      000000A1H   SFRSYM    DATA     BYTE      PWMDC0
      000000B4H   SFRSYM    DATA     BYTE      RTC2CMP0
      000000A2H   SFRSYM    DATA     BYTE      PWMDC1
      000000B5H   SFRSYM    DATA     BYTE      RTC2CMP1
      00000080H   SFRSYM    DATA     BIT       P00
      000000BAH   SFRSYM    DATA     BYTE      S0RELH
      00000090H   SFRSYM    DATA     BIT       P10
      00000080H.1 SFRSYM    DATA     BIT       P01
      00000087H   SFRSYM    DATA     BYTE      PCON
      000000A0H   SFRSYM    DATA     BIT       P20
      00000090H.1 SFRSYM    DATA     BIT       P11
      00000080H.2 SFRSYM    DATA     BIT       P02
      000000B0H   SFRSYM    DATA     BIT       P30
      000000A0H.1 SFRSYM    DATA     BIT       P21
      00000090H.2 SFRSYM    DATA     BIT       P12
      00000080H.3 SFRSYM    DATA     BIT       P03
      000000C0H.2 SFRSYM    DATA     BIT       SPIF
      000000F8H.2 SFRSYM    DATA     BIT       RDIS
      000000B0H.1 SFRSYM    DATA     BIT       P31
      000000A0H.2 SFRSYM    DATA     BIT       P22
      00000090H.3 SFRSYM    DATA     BIT       P13
      00000080H.4 SFRSYM    DATA     BIT       P04
      000000AAH   SFRSYM    DATA     BYTE      S0RELL
      000000B0H.2 SFRSYM    DATA     BIT       P32
      000000A0H.3 SFRSYM    DATA     BIT       P23
      00000090H.4 SFRSYM    DATA     BIT       P14
      00000080H.5 SFRSYM    DATA     BIT       P05
      000000D9H   SFRSYM    DATA     BYTE      W2SADR
      00000089H   SFRSYM    DATA     BYTE      TMOD
      00000088H   SFRSYM    DATA     BYTE      TCON
      000000B0H.3 SFRSYM    DATA     BIT       P33
      000000A0H.4 SFRSYM    DATA     BIT       P24
      00000090H.5 SFRSYM    DATA     BIT       P15
      00000080H.6 SFRSYM    DATA     BIT       P06
      000000B0H.4 SFRSYM    DATA     BIT       P34
      000000A0H.5 SFRSYM    DATA     BIT       P25
      00000090H.6 SFRSYM    DATA     BIT       P16
      00000080H.7 SFRSYM    DATA     BIT       P07
      000000C2H   SFRSYM    DATA     WORD      CC1
      000000B0H.5 SFRSYM    DATA     BIT       P35
      000000A0H.6 SFRSYM    DATA     BIT       P26
      00000090H.7 SFRSYM    DATA     BIT       P17
      000000C4H   SFRSYM    DATA     WORD      CC2
      000000B0H.6 SFRSYM    DATA     BIT       P36
      000000A0H.7 SFRSYM    DATA     BIT       P27
      000000C6H   SFRSYM    DATA     WORD      CC3
      000000B0H.7 SFRSYM    DATA     BIT       P37
      000000E8H.2 SFRSYM    DATA     BIT       RFCKEN
      000000F8H   SFRSYM    DATA     BIT       WPEN
      000000DDH   SFRSYM    DATA     BYTE      CCPDATIA
      000000DEH   SFRSYM    DATA     BYTE      CCPDATIB
      00000088H.1 SFRSYM    DATA     BIT       IE0
      000000F8H.4 SFRSYM    DATA     BIT       RDYN
      00000088H.3 SFRSYM    DATA     BIT       IE1
      000000CFH   SFRSYM    DATA     BYTE      WUOPC0
      000000F0H   SFRSYM    DATA     BYTE      B
LX51 LINKER/LOCATER V4.66.62.0                                                        11/16/2016  10:35:37  PAGE 17


      000000E9H   SFRSYM    DATA     BYTE      MD0
      000000CEH   SFRSYM    DATA     BYTE      WUOPC1
      000000A7H   SFRSYM    DATA     BYTE      MEMCON
      000000EAH   SFRSYM    DATA     BYTE      MD1
      000000D7H   SFRSYM    DATA     BYTE      RNGDAT
      000000EBH   SFRSYM    DATA     BYTE      MD2
      000000ECH   SFRSYM    DATA     BYTE      MD3
      000000EDH   SFRSYM    DATA     BYTE      MD4
      000000AFH   SFRSYM    DATA     BYTE      WDSV
      000000EEH   SFRSYM    DATA     BYTE      MD5
      000000E0H   SFRSYM    DATA     BYTE      ACC
      000000DCH   SFRSYM    DATA     BYTE      POFCON
      000000A8H.4 SFRSYM    DATA     BIT       ES0
      000000A8H.1 SFRSYM    DATA     BIT       ET0
      000000A9H   SFRSYM    DATA     BYTE      IP0
      000000A8H.3 SFRSYM    DATA     BIT       ET1
      00000088H.5 SFRSYM    DATA     BIT       TF0
      000000B9H   SFRSYM    DATA     BYTE      IP1
      000000A8H.5 SFRSYM    DATA     BIT       ET2
      00000098H   SFRSYM    DATA     BIT       RI0
      00000088H.7 SFRSYM    DATA     BIT       TF1
      000000C0H   SFRSYM    DATA     BIT       RFSPIF
      000000C0H.6 SFRSYM    DATA     BIT       TF2
      000000FCH   SFRSYM    DATA     BYTE      SPIMCON0
      000000D6H   SFRSYM    DATA     BYTE      RNGCTL
      0000008CH   SFRSYM    DATA     BYTE      TH0
      000000A8H   SFRSYM    DATA     BIT       EX0
      00000098H.1 SFRSYM    DATA     BIT       TI0
      00000088H   SFRSYM    DATA     BIT       IT0
      000000FDH   SFRSYM    DATA     BYTE      SPIMCON1
      0000008DH   SFRSYM    DATA     BYTE      TH1
      000000A8H.2 SFRSYM    DATA     BIT       EX1
      00000088H.2 SFRSYM    DATA     BIT       IT1
      000000CDH   SFRSYM    DATA     BYTE      TH2
      000000AEH   SFRSYM    DATA     BYTE      OPMCON
      000000D0H   SFRSYM    DATA     BIT       P
      00000098H.7 SFRSYM    DATA     BIT       SM0
      0000008AH   SFRSYM    DATA     BYTE      TL0
      00000098H.6 SFRSYM    DATA     BIT       SM1
      000000E4H   SFRSYM    DATA     BYTE      SPIRCON0
      0000008BH   SFRSYM    DATA     BYTE      TL1
      000000E5H   SFRSYM    DATA     BYTE      SPIRCON1
      000000CCH   SFRSYM    DATA     BYTE      TL2
      000000BCH   SFRSYM    DATA     BYTE      SPISCON0
      000000BDH   SFRSYM    DATA     BYTE      SPISCON1
      000000D0H.3 SFRSYM    DATA     BIT       RS0
      00000088H.4 SFRSYM    DATA     BIT       TR0
      000000D0H.4 SFRSYM    DATA     BIT       RS1
      000000B2H   SFRSYM    DATA     BYTE      PWMCON
      00000088H.6 SFRSYM    DATA     BIT       TR1
      000000CAH   SFRSYM    DATA     WORD      CRC
      000000A6H   SFRSYM    DATA     BYTE      INTEXP
      000000C0H.3 SFRSYM    DATA     BIT       WUPINF
      000000FAH   SFRSYM    DATA     BYTE      FCR
      000000D3H   SFRSYM    DATA     BYTE      ADCCON1
      000000D2H   SFRSYM    DATA     BYTE      ADCCON2
      00000083H   SFRSYM    DATA     BYTE      DPH
      000000D1H   SFRSYM    DATA     BYTE      ADCCON3
      000000C0H.1 SFRSYM    DATA     BIT       RFF
      00000093H   SFRSYM    DATA     BYTE      P0DIR
      00000082H   SFRSYM    DATA     BYTE      DPL
      0000009EH   SFRSYM    DATA     BYTE      P0CON
      00000099H   SFRSYM    DATA     BYTE      S0BUF
      00000094H   SFRSYM    DATA     BYTE      P1DIR
      0000009FH   SFRSYM    DATA     BYTE      P1CON
LX51 LINKER/LOCATER V4.66.62.0                                                        11/16/2016  10:35:37  PAGE 18


      00000095H   SFRSYM    DATA     BYTE      P2DIR
      000000B8H.7 SFRSYM    DATA     BIT       EXEN2
      000000DAH   SFRSYM    DATA     BYTE      W2DAT
      00000097H   SFRSYM    DATA     BYTE      P2CON
      00000096H   SFRSYM    DATA     BYTE      P3DIR
      000000A4H   SFRSYM    DATA     BYTE      PWRDWN
      00000098H   SFRSYM    DATA     BYTE      S0CON
      0000008FH   SFRSYM    DATA     BYTE      P3CON
      000000B6H   SFRSYM    DATA     BYTE      RTC2CPT00
      000000D8H   SFRSYM    DATA     BYTE      ADCON
      000000ACH   SFRSYM    DATA     BYTE      RTC2CPT10
      000000ABH   SFRSYM    DATA     BYTE      RTC2CPT01
      000000C8H   SFRSYM    DATA     BYTE      T2CON
      00000092H   SFRSYM    DATA     BYTE      DPS
      000000F8H.5 SFRSYM    DATA     BIT       WEN
      000000F8H   SFRSYM    DATA     BYTE      FSR
      000000D4H   SFRSYM    DATA     BYTE      ADCDATH
      000000C9H   SFRSYM    DATA     BYTE      MPAGE
      000000B8H.2 SFRSYM    DATA     BIT       SPI
      000000F8H.1 SFRSYM    DATA     BIT       RDEND
      000000D5H   SFRSYM    DATA     BYTE      ADCDATL
      000000F8H.3 SFRSYM    DATA     BIT       INFEN
      000000F8H.7 SFRSYM    DATA     BIT       MCDIS
      000000C0H.5 SFRSYM    DATA     BIT       WUF
      000000C0H.4 SFRSYM    DATA     BIT       MISCF
      000000EFH   SFRSYM    DATA     BYTE      ARCON
      000000D0H.5 SFRSYM    DATA     BIT       F0
      000000F8H.6 SFRSYM    DATA     BIT       STP
      000000FEH   SFRSYM    DATA     BYTE      SPIMSTAT
      00000080H.3 SFRSYM    DATA     BIT       LEDVM
      000000E8H   SFRSYM    DATA     BYTE      RFCON
      000000D0H   SFRSYM    DATA     BYTE      PSW
      00000098H.2 SFRSYM    DATA     BIT       RB80
      000000C0H   SFRSYM    DATA     BYTE      IRCON
      000000E8H.1 SFRSYM    DATA     BIT       RFCSN
      000000E6H   SFRSYM    DATA     BYTE      SPIRSTAT
      000000B3H   SFRSYM    DATA     BYTE      RTC2CON

      01000C22H   BLOCK     CODE     ---       LVL=0
      ---         BLOCKEND  ---      ---       LVL=0

      01001546H   BLOCK     CODE     ---       LVL=0
      01001546H   LINE      CODE     ---       #20
      01001546H   LINE      CODE     ---       #21
      ---         BLOCKEND  ---      ---       LVL=0

      010011CAH   BLOCK     CODE     ---       LVL=0
      010011CAH   LINE      CODE     ---       #24
      010011CAH   LINE      CODE     ---       #25
      010011D4H   LINE      CODE     ---       #26
      010011D9H   LINE      CODE     ---       #27
      010011E3H   LINE      CODE     ---       #28
      010011EFH   LINE      CODE     ---       #29
      ---         BLOCKEND  ---      ---       LVL=0

      010012C8H   BLOCK     CODE     ---       LVL=0
      010012C8H   LINE      CODE     ---       #30
      010012C8H   LINE      CODE     ---       #31
      010012DDH   LINE      CODE     ---       #32
      010012E8H   LINE      CODE     ---       #33
      ---         BLOCKEND  ---      ---       LVL=0

      01000A74H   BLOCK     CODE     ---       LVL=0
      00000022H   SYMBOL    DATA     ---       packet6
      01000A74H   LINE      CODE     ---       #34
LX51 LINKER/LOCATER V4.66.62.0                                                        11/16/2016  10:35:37  PAGE 19


      01000A7AH   LINE      CODE     ---       #35
      01000A8CH   LINE      CODE     ---       #36
      01000A99H   LINE      CODE     ---       #37
      01000AA9H   LINE      CODE     ---       #38
      01000AB3H   LINE      CODE     ---       #39
      01000ABDH   LINE      CODE     ---       #40
      01000AC7H   LINE      CODE     ---       #41
      01000AD1H   LINE      CODE     ---       #42
      01000ADBH   LINE      CODE     ---       #43
      01000AE5H   LINE      CODE     ---       #44
      01000AEFH   LINE      CODE     ---       #45
      01000AF9H   LINE      CODE     ---       #46
      01000B03H   LINE      CODE     ---       #47
      ---         BLOCKEND  ---      ---       LVL=0

      01000003H   BLOCK     CODE     ---       LVL=0
      00000002H   SYMBOL    DATA     INT       offset
      01000003H   LINE      CODE     ---       #49
      01000003H   LINE      CODE     ---       #50
      ---         BLOCKEND  ---      ---       LVL=0

      01001603H   BLOCK     CODE     ---       LVL=0
      00000002H   SYMBOL    DATA     INT       offset
      01001603H   LINE      CODE     ---       #52
      01001603H   LINE      CODE     ---       #53
      ---         BLOCKEND  ---      ---       LVL=0

      0100160BH   BLOCK     CODE     ---       LVL=0
      00000002H   SYMBOL    DATA     INT       offset
      0100160BH   LINE      CODE     ---       #55
      0100160BH   LINE      CODE     ---       #56
      ---         BLOCKEND  ---      ---       LVL=0

      01001613H   BLOCK     CODE     ---       LVL=0
      00000002H   SYMBOL    DATA     INT       offset
      01001613H   LINE      CODE     ---       #58
      01001613H   LINE      CODE     ---       #59
      ---         BLOCKEND  ---      ---       LVL=0

      01001551H   BLOCK     CODE     ---       LVL=0
      00000002H   SYMBOL    DATA     INT       offset
      01001551H   LINE      CODE     ---       #61
      01001555H   LINE      CODE     ---       #62
      ---         BLOCKEND  ---      ---       LVL=0

      0100155CH   BLOCK     CODE     ---       LVL=0
      00000002H   SYMBOL    DATA     INT       offset
      0100155CH   LINE      CODE     ---       #64
      01001560H   LINE      CODE     ---       #65
      ---         BLOCKEND  ---      ---       LVL=0

      010014A3H   BLOCK     CODE     ---       LVL=0
      010014A3H   LINE      CODE     ---       #68
      010014A3H   LINE      CODE     ---       #69
      010014ADH   LINE      CODE     ---       #70
      010014B0H   LINE      CODE     ---       #71
      ---         BLOCKEND  ---      ---       LVL=0

      010014B1H   BLOCK     CODE     ---       LVL=0
      010014B1H   LINE      CODE     ---       #72
      010014B1H   LINE      CODE     ---       #73
      010014BBH   LINE      CODE     ---       #74
      010014BEH   LINE      CODE     ---       #75
      ---         BLOCKEND  ---      ---       LVL=0

LX51 LINKER/LOCATER V4.66.62.0                                                        11/16/2016  10:35:37  PAGE 20


      010014BFH   BLOCK     CODE     ---       LVL=0
      010014BFH   LINE      CODE     ---       #76
      010014BFH   LINE      CODE     ---       #77
      010014C9H   LINE      CODE     ---       #78
      010014CCH   LINE      CODE     ---       #79
      ---         BLOCKEND  ---      ---       LVL=0

      010014CDH   BLOCK     CODE     ---       LVL=0
      010014CDH   LINE      CODE     ---       #80
      010014CDH   LINE      CODE     ---       #81
      010014D7H   LINE      CODE     ---       #82
      010014DAH   LINE      CODE     ---       #83
      ---         BLOCKEND  ---      ---       LVL=0

      010014DBH   BLOCK     CODE     ---       LVL=0
      010014DBH   LINE      CODE     ---       #84
      010014DBH   LINE      CODE     ---       #85
      010014E5H   LINE      CODE     ---       #86
      010014E8H   LINE      CODE     ---       #87
      ---         BLOCKEND  ---      ---       LVL=0

      010014E9H   BLOCK     CODE     ---       LVL=0
      010014E9H   LINE      CODE     ---       #88
      010014E9H   LINE      CODE     ---       #89
      010014F3H   LINE      CODE     ---       #90
      010014F6H   LINE      CODE     ---       #91
      ---         BLOCKEND  ---      ---       LVL=0

      010013B3H   BLOCK     CODE     ---       LVL=0
      00000007H   SYMBOL    DATA     BYTE      bank
      00000005H   SYMBOL    DATA     BYTE      prefetchEnabled
      00000003H   SYMBOL    DATA     BYTE      userBank
      010013B3H   LINE      CODE     ---       #93
      010013B3H   LINE      CODE     ---       #94
      010013B6H   LINE      CODE     ---       #95
      010013BCH   LINE      CODE     ---       #96
      010013C2H   LINE      CODE     ---       #97
      ---         BLOCKEND  ---      ---       LVL=0

      010014F7H   BLOCK     CODE     ---       LVL=0
      010014F7H   LINE      CODE     ---       #100
      010014F7H   LINE      CODE     ---       #101
      01001501H   LINE      CODE     ---       #102
      01001504H   LINE      CODE     ---       #103
      ---         BLOCKEND  ---      ---       LVL=0

      010013DFH   BLOCK     CODE     ---       LVL=0
      010013DFH   LINE      CODE     ---       #105
      010013DFH   LINE      CODE     ---       #106
      010013ECH   LINE      CODE     ---       #107
      010013F1H   LINE      CODE     ---       #108
      ---         BLOCKEND  ---      ---       LVL=0

      01001567H   BLOCK     CODE     ---       LVL=0
      00000007H   SYMBOL    DATA     BYTE      enabled
      01001567H   LINE      CODE     ---       #110
      01001567H   LINE      CODE     ---       #111
      ---         BLOCKEND  ---      ---       LVL=0

      0100152EH   BLOCK     CODE     ---       LVL=0
      0100152EH   LINE      CODE     ---       #114
      0100152EH   LINE      CODE     ---       #115
      ---         BLOCKEND  ---      ---       LVL=0

      010015F1H   BLOCK     CODE     ---       LVL=0
LX51 LINKER/LOCATER V4.66.62.0                                                        11/16/2016  10:35:37  PAGE 21


      010015F1H   LINE      CODE     ---       #118
      010015F1H   LINE      CODE     ---       #119
      010015F9H   LINE      CODE     ---       #120
      ---         BLOCKEND  ---      ---       LVL=0

      01001254H   BLOCK     CODE     ---       LVL=0
      00000075H   SYMBOL    DATA     ---       data_ptr
      00000007H   SYMBOL    DATA     BYTE      data_len
      01001254H   LINE      CODE     ---       #122
      0100125CH   LINE      CODE     ---       #123
      01001262H   LINE      CODE     ---       #124
      01001272H   LINE      CODE     ---       #125
      01001272H   LINE      CODE     ---       #126
      0100127CH   LINE      CODE     ---       #127
      0100127CH   LINE      CODE     ---       #128
      ---         BLOCKEND  ---      ---       LVL=0

      010015FAH   BLOCK     CODE     ---       LVL=0
      00000003H   SYMBOL    DATA     BYTE      address
      010015FAH   LINE      CODE     ---       #129
      010015FCH   LINE      CODE     ---       #130
      ---         BLOCKEND  ---      ---       LVL=0

      010003D7H   BLOCK     CODE     ---       LVL=0
      02000261H   SYMBOL    XDATA    ---       data_ptr
      02000263H   SYMBOL    XDATA    WORD      dataSize
      02000265H   SYMBOL    XDATA    BYTE      bank
      02000266H   SYMBOL    XDATA    BYTE      address
      02000267H   SYMBOL    XDATA    BYTE      verify
      02000268H   SYMBOL    XDATA    BYTE      useProgMem
      010003D7H   LINE      CODE     ---       #139
      010003E9H   LINE      CODE     ---       #140
      010003EFH   LINE      CODE     ---       #141
      010003F7H   LINE      CODE     ---       #142
      01000408H   LINE      CODE     ---       #143
      01000419H   LINE      CODE     ---       #144
      01000439H   LINE      CODE     ---       #146
      0100043FH   LINE      CODE     ---       #149
      01000461H   LINE      CODE     ---       #152
      0100047EH   LINE      CODE     ---       #154
      01000484H   LINE      CODE     ---       #156
      010004D8H   LINE      CODE     ---       #157
      010004D8H   LINE      CODE     ---       #159
      010004EEH   LINE      CODE     ---       #160
      010004EEH   LINE      CODE     ---       #162
      010004FDH   LINE      CODE     ---       #165
      01000509H   LINE      CODE     ---       #166
      01000509H   LINE      CODE     ---       #167
      0100050CH   LINE      CODE     ---       #168
      0100051BH   LINE      CODE     ---       #169
      01000534H   LINE      CODE     ---       #170
      0100053BH   LINE      CODE     ---       #171
      01000548H   LINE      CODE     ---       #172
      0100054BH   LINE      CODE     ---       #173
      0100054BH   LINE      CODE     ---       #174
      0100054BH   LINE      CODE     ---       #177
      0100055AH   LINE      CODE     ---       #180
      01000560H   LINE      CODE     ---       #183
      01000578H   LINE      CODE     ---       #184
      01000584H   LINE      CODE     ---       #185
      01000584H   LINE      CODE     ---       #186
      01000587H   LINE      CODE     ---       #187
      01000587H   LINE      CODE     ---       #188
      0100058AH   LINE      CODE     ---       #189
      01000597H   LINE      CODE     ---       #190
LX51 LINKER/LOCATER V4.66.62.0                                                        11/16/2016  10:35:37  PAGE 22


      010005A4H   LINE      CODE     ---       #191
      010005A6H   LINE      CODE     ---       #192
      ---         BLOCKEND  ---      ---       LVL=0

      010005BBH   BLOCK     CODE     ---       LVL=0
      0000005EH   SYMBOL    DATA     ---       data_ptr
      00000060H   SYMBOL    DATA     WORD      dataSize
      00000062H   SYMBOL    DATA     BYTE      useProgMem
      010005BBH   LINE      CODE     ---       #198
      010005C5H   LINE      CODE     ---       #199
      010005C9H   LINE      CODE     ---       #200
      010005D4H   LINE      CODE     ---       #201
      010005D4H   LINE      CODE     ---       #206
      010005EDH   LINE      CODE     ---       #207
      010005EDH   LINE      CODE     ---       #208
      010005EDH   LINE      CODE     ---       #209
      010005EDH   LINE      CODE     ---       #210
      010005EDH   LINE      CODE     ---       #211
      010005EDH   LINE      CODE     ---       #212
      01000602H   LINE      CODE     ---       #213
      01000617H   LINE      CODE     ---       #214
      0100062CH   LINE      CODE     ---       #215
      0100062CH   LINE      CODE     ---       #218
      01000639H   LINE      CODE     ---       #220
      0100063DH   LINE      CODE     ---       #221
      01000651H   LINE      CODE     ---       #222
      010006AEH   LINE      CODE     ---       #223
      010006AEH   LINE      CODE     ---       #224
      010006BEH   LINE      CODE     ---       #225
      010006BEH   LINE      CODE     ---       #226
      010006E5H   LINE      CODE     ---       #227
      010006F3H   LINE      CODE     ---       #228
      010006F5H   LINE      CODE     ---       #234
      010006F5H   LINE      CODE     ---       #235
      010006F5H   LINE      CODE     ---       #236
      010006F5H   LINE      CODE     ---       #237
      0100070AH   LINE      CODE     ---       #238
      0100070AH   LINE      CODE     ---       #242
      01000711H   LINE      CODE     ---       #248
      0100071AH   LINE      CODE     ---       #250
      01000720H   LINE      CODE     ---       #251
      01000722H   LINE      CODE     ---       #253
      01000727H   LINE      CODE     ---       #254
      01000727H   LINE      CODE     ---       #255
      01000727H   LINE      CODE     ---       #257
      01000730H   LINE      CODE     ---       #258
      0100073BH   LINE      CODE     ---       #259
      0100073EH   LINE      CODE     ---       #260
      0100073EH   LINE      CODE     ---       #261
      0100073EH   LINE      CODE     ---       #262
      01000749H   LINE      CODE     ---       #263
      0100074BH   LINE      CODE     ---       #264
      ---         BLOCKEND  ---      ---       LVL=0

      01000850H   BLOCK     CODE     ---       LVL=0
      0000001AH   SYMBOL    DATA     ---       data_ptr
      0000001CH   SYMBOL    DATA     WORD      dataSize
      0000001EH   SYMBOL    DATA     BYTE      bank
      0000001FH   SYMBOL    DATA     BYTE      address
      01000850H   LINE      CODE     ---       #268
      0100085AH   LINE      CODE     ---       #269
      0100085AH   LINE      CODE     ---       #270
      0100085DH   LINE      CODE     ---       #271
      01000877H   LINE      CODE     ---       #273
      0100087DH   LINE      CODE     ---       #276
LX51 LINKER/LOCATER V4.66.62.0                                                        11/16/2016  10:35:37  PAGE 23


      0100089DH   LINE      CODE     ---       #279
      010008B6H   LINE      CODE     ---       #282
      010008D5H   LINE      CODE     ---       #285
      010008E4H   LINE      CODE     ---       #288
      010008E9H   LINE      CODE     ---       #291
      010008FBH   LINE      CODE     ---       #292
      01000901H   LINE      CODE     ---       #293
      01000901H   LINE      CODE     ---       #294
      01000904H   LINE      CODE     ---       #295
      01000904H   LINE      CODE     ---       #296
      01000907H   LINE      CODE     ---       #297
      ---         BLOCKEND  ---      ---       LVL=0

      0100161BH   BLOCK     CODE     ---       LVL=0
      00000006H   SYMBOL    DATA     ---       data_ptr
      00000004H   SYMBOL    DATA     WORD      dataSize
      0100161BH   LINE      CODE     ---       #298
      0100161BH   LINE      CODE     ---       #299
      01001620H   LINE      CODE     ---       #300
      ---         BLOCKEND  ---      ---       LVL=0

      01001418H   BLOCK     CODE     ---       LVL=0
      00000006H   SYMBOL    DATA     ---       data_ptr
      00000004H   SYMBOL    DATA     WORD      dataSize
      00000003H   SYMBOL    DATA     BYTE      bank
      00000042H   SYMBOL    DATA     BYTE      address
      00000043H   SYMBOL    DATA     BYTE      verify
      01001418H   LINE      CODE     ---       #301
      01001418H   LINE      CODE     ---       #302
      01001429H   LINE      CODE     ---       #303
      ---         BLOCKEND  ---      ---       LVL=0

      01001493H   BLOCK     CODE     ---       LVL=0
      01001493H   LINE      CODE     ---       #25
      01001495H   LINE      CODE     ---       #27
      01001495H   LINE      CODE     ---       #28
      01001495H   LINE      CODE     ---       #29
      0100149DH   LINE      CODE     ---       #30
      0100149DH   LINE      CODE     ---       #31
      010014A0H   LINE      CODE     ---       #32
      010014A0H   LINE      CODE     ---       #33
      ---         BLOCKEND  ---      ---       LVL=0

      010015BFH   BLOCK     CODE     ---       LVL=0
      010015BFH   LINE      CODE     ---       #35
      010015BFH   LINE      CODE     ---       #36
      010015BFH   LINE      CODE     ---       #37
      010015BFH   LINE      CODE     ---       #38
      010015BFH   LINE      CODE     ---       #39
      010015C2H   LINE      CODE     ---       #40
      010015C4H   LINE      CODE     ---       #41
      010015C6H   LINE      CODE     ---       #42
      010015C8H   LINE      CODE     ---       #43
      ---         BLOCKEND  ---      ---       LVL=0

      010015C9H   BLOCK     CODE     ---       LVL=0
      010015C9H   LINE      CODE     ---       #45
      010015C9H   LINE      CODE     ---       #46
      010015C9H   LINE      CODE     ---       #47
      010015C9H   LINE      CODE     ---       #48
      010015C9H   LINE      CODE     ---       #49
      010015CCH   LINE      CODE     ---       #50
      010015CEH   LINE      CODE     ---       #51
      010015D0H   LINE      CODE     ---       #52
      010015D2H   LINE      CODE     ---       #53
LX51 LINKER/LOCATER V4.66.62.0                                                        11/16/2016  10:35:37  PAGE 24


      ---         BLOCKEND  ---      ---       LVL=0

      010015D3H   BLOCK     CODE     ---       LVL=0
      00000007H   SYMBOL    DATA     BYTE      value
      010015D3H   LINE      CODE     ---       #32
      010015D3H   LINE      CODE     ---       #33
      010015D3H   LINE      CODE     ---       #34
      010015D5H   LINE      CODE     ---       #36
      010015DAH   LINE      CODE     ---       #38
      010015DCH   LINE      CODE     ---       #39
      ---         BLOCKEND  ---      ---       LVL=0

      010013F2H   BLOCK     CODE     ---       LVL=0
      00000007H   SYMBOL    DATA     BYTE      reg
      00000006H   SYMBOL    DATA     BYTE      value
      010013F4H   BLOCK     CODE     NEAR LAB  LVL=1
      00000005H   SYMBOL    DATA     BYTE      status
      ---         BLOCKEND  ---      ---       LVL=1
      010013F2H   LINE      CODE     ---       #41
      010013F4H   LINE      CODE     ---       #42
      010013F4H   LINE      CODE     ---       #45
      010013F6H   LINE      CODE     ---       #46
      010013FBH   LINE      CODE     ---       #47
      01001400H   LINE      CODE     ---       #48
      01001402H   LINE      CODE     ---       #50
      01001404H   LINE      CODE     ---       #51
      ---         BLOCKEND  ---      ---       LVL=0

      01001521H   BLOCK     CODE     ---       LVL=0
      00000007H   SYMBOL    DATA     BYTE      reg
      01001521H   BLOCK     CODE     NEAR LAB  LVL=1
      00000007H   SYMBOL    DATA     BYTE      reg_val
      ---         BLOCKEND  ---      ---       LVL=1
      01001521H   LINE      CODE     ---       #53
      01001521H   LINE      CODE     ---       #54
      01001521H   LINE      CODE     ---       #57
      01001523H   LINE      CODE     ---       #58
      01001526H   LINE      CODE     ---       #59
      0100152BH   LINE      CODE     ---       #60
      0100152DH   LINE      CODE     ---       #62
      0100152DH   LINE      CODE     ---       #63
      ---         BLOCKEND  ---      ---       LVL=0

      01001229H   BLOCK     CODE     ---       LVL=0
      00000007H   SYMBOL    DATA     BYTE      reg
      00000039H   SYMBOL    DATA     ---       pBuf
      0000003CH   SYMBOL    DATA     BYTE      bytes
      0100122FH   BLOCK     CODE     NEAR LAB  LVL=1
      00000006H   SYMBOL    DATA     BYTE      status
      00000005H   SYMBOL    DATA     BYTE      byte_ctr
      ---         BLOCKEND  ---      ---       LVL=1
      01001229H   LINE      CODE     ---       #65
      0100122FH   LINE      CODE     ---       #66
      0100122FH   LINE      CODE     ---       #69
      0100122FH   LINE      CODE     ---       #70
      0100122FH   LINE      CODE     ---       #72
      01001238H   LINE      CODE     ---       #73
      0100124FH   LINE      CODE     ---       #75
      01001251H   LINE      CODE     ---       #77
      01001253H   LINE      CODE     ---       #78
      ---         BLOCKEND  ---      ---       LVL=0

      0100130AH   BLOCK     CODE     ---       LVL=0
      00000007H   SYMBOL    DATA     BYTE      reg
      0000002AH   SYMBOL    DATA     ---       pBuf
LX51 LINKER/LOCATER V4.66.62.0                                                        11/16/2016  10:35:37  PAGE 25


      0000002DH   SYMBOL    DATA     BYTE      bytes
      01001310H   BLOCK     CODE     NEAR LAB  LVL=1
      00000006H   SYMBOL    DATA     BYTE      status
      00000005H   SYMBOL    DATA     BYTE      byte_ctr
      ---         BLOCKEND  ---      ---       LVL=1
      0100130AH   LINE      CODE     ---       #80
      01001310H   LINE      CODE     ---       #81
      01001310H   LINE      CODE     ---       #84
      01001310H   LINE      CODE     ---       #85
      01001310H   LINE      CODE     ---       #86
      01001319H   LINE      CODE     ---       #87
      01001324H   LINE      CODE     ---       #88
      01001326H   LINE      CODE     ---       #89
      01001328H   LINE      CODE     ---       #90
      ---         BLOCKEND  ---      ---       LVL=0

      01001460H   BLOCK     CODE     ---       LVL=0
      01001460H   LINE      CODE     ---       #93
      01001460H   LINE      CODE     ---       #94
      01001460H   LINE      CODE     ---       #95
      01001463H   LINE      CODE     ---       #96
      01001465H   LINE      CODE     ---       #97
      01001467H   LINE      CODE     ---       #98
      0100146EH   LINE      CODE     ---       #99
      01001470H   LINE      CODE     ---       #100
      ---         BLOCKEND  ---      ---       LVL=0

      010011FDH   BLOCK     CODE     ---       LVL=0
      00000027H   SYMBOL    DATA     INT       payloadLength
      010011FDH   LINE      CODE     ---       #102
      01001201H   LINE      CODE     ---       #103
      01001201H   LINE      CODE     ---       #104
      01001203H   LINE      CODE     ---       #105
      0100120AH   LINE      CODE     ---       #106
      01001212H   LINE      CODE     ---       #107
      01001220H   LINE      CODE     ---       #109
      01001222H   LINE      CODE     ---       #110
      01001228H   LINE      CODE     ---       #111
      ---         BLOCKEND  ---      ---       LVL=0

      01000CAAH   BLOCK     CODE     ---       LVL=0
      01000CAAH   LINE      CODE     ---       #114
      01000CC3H   LINE      CODE     ---       #116
      01000CCAH   LINE      CODE     ---       #117
      01000CCDH   LINE      CODE     ---       #118
      01000CCDH   LINE      CODE     ---       #119
      01000CDBH   LINE      CODE     ---       #120
      01000CE2H   LINE      CODE     ---       #121
      01000CE4H   LINE      CODE     ---       #122
      01000CEEH   LINE      CODE     ---       #123
      01000CF3H   LINE      CODE     ---       #124
      01000CF3H   LINE      CODE     ---       #125
      01000CF5H   LINE      CODE     ---       #126
      01000CFBH   LINE      CODE     ---       #127
      01000CFDH   LINE      CODE     ---       #128
      01000CFDH   LINE      CODE     ---       #129
      01000CFDH   LINE      CODE     ---       #130
      01000D00H   LINE      CODE     ---       #131
      01000D07H   LINE      CODE     ---       #132
      01000D0AH   LINE      CODE     ---       #133
      01000D11H   LINE      CODE     ---       #134
      01000D18H   LINE      CODE     ---       #135
      ---         BLOCKEND  ---      ---       LVL=0

      0100102CH   BLOCK     CODE     ---       LVL=0
LX51 LINKER/LOCATER V4.66.62.0                                                        11/16/2016  10:35:37  PAGE 26


      0100102CH   LINE      CODE     ---       #138
      0100102CH   LINE      CODE     ---       #139
      0100102CH   LINE      CODE     ---       #140
      0100102EH   LINE      CODE     ---       #141
      01001030H   LINE      CODE     ---       #143
      01001038H   LINE      CODE     ---       #144
      01001040H   LINE      CODE     ---       #145
      01001047H   LINE      CODE     ---       #147
      0100104EH   LINE      CODE     ---       #148
      01001055H   LINE      CODE     ---       #149
      0100105CH   LINE      CODE     ---       #150
      01001063H   LINE      CODE     ---       #152
      0100106AH   LINE      CODE     ---       #153
      ---         BLOCKEND  ---      ---       LVL=0

      0100153AH   BLOCK     CODE     ---       LVL=0
      0100153AH   LINE      CODE     ---       #157
      0100153AH   LINE      CODE     ---       #159
      0100153CH   LINE      CODE     ---       #160
      0100153EH   LINE      CODE     ---       #161
      01001540H   LINE      CODE     ---       #162
      01001543H   LINE      CODE     ---       #163
      ---         BLOCKEND  ---      ---       LVL=0

      0100137FH   BLOCK     CODE     ---       LVL=0
      0100137FH   LINE      CODE     ---       #8
      0100137FH   LINE      CODE     ---       #9
      01001381H   LINE      CODE     ---       #10
      01001383H   LINE      CODE     ---       #11
      01001385H   LINE      CODE     ---       #12
      01001387H   LINE      CODE     ---       #13
      0100138AH   LINE      CODE     ---       #14
      0100138DH   LINE      CODE     ---       #16
      01001390H   LINE      CODE     ---       #17
      01001393H   LINE      CODE     ---       #18
      01001395H   LINE      CODE     ---       #19
      01001398H   LINE      CODE     ---       #20
      ---         BLOCKEND  ---      ---       LVL=0

      01001471H   BLOCK     CODE     VOID      LVL=0
      ---         BLOCKEND  ---      ---       LVL=0

      0100147AH   BLOCK     CODE     ---       LVL=0
      00000007H   SYMBOL    DATA     BYTE      x
      0100147AH   LINE      CODE     ---       #22
      0100147AH   LINE      CODE     ---       #23
      0100147DH   LINE      CODE     ---       #24
      0100147FH   LINE      CODE     ---       #25
      01001481H   LINE      CODE     ---       #26
      ---         BLOCKEND  ---      ---       LVL=0

      01001347H   BLOCK     CODE     ---       LVL=0
      00000078H   SYMBOL    DATA     ---       s
      01001347H   LINE      CODE     ---       #29
      0100134DH   LINE      CODE     ---       #30
      01001358H   LINE      CODE     ---       #31
      01001362H   LINE      CODE     ---       #32
      ---         BLOCKEND  ---      ---       LVL=0

      01000F32H   BLOCK     CODE     ---       LVL=0
      00000007H   SYMBOL    DATA     BYTE      packet_type
      00000023H   SYMBOL    DATA     ---       data_to_send
      00000026H   SYMBOL    DATA     BYTE      data_len
      01000F38H   BLOCK     CODE     NEAR LAB  LVL=1
      00000006H   SYMBOL    DATA     WORD      i
LX51 LINKER/LOCATER V4.66.62.0                                                        11/16/2016  10:35:37  PAGE 27


      ---         BLOCKEND  ---      ---       LVL=1
      01000F32H   LINE      CODE     ---       #34
      01000F38H   LINE      CODE     ---       #36
      01000F3DH   LINE      CODE     ---       #37
      01000F41H   LINE      CODE     ---       #38
      01000F53H   LINE      CODE     ---       #39
      01000F73H   LINE      CODE     ---       #40
      01000F7AH   LINE      CODE     ---       #41
      01000F85H   LINE      CODE     ---       #42
      ---         BLOCKEND  ---      ---       LVL=0

      01001160H   BLOCK     CODE     ---       LVL=0
      00000006H   SYMBOL    DATA     BYTE      packet_type
      00000064H   SYMBOL    DATA     ---       data_to_send
      00000067H   SYMBOL    DATA     BYTE      data_len
      01001166H   BLOCK     CODE     NEAR LAB  LVL=1
      00000004H   SYMBOL    DATA     WORD      i
      ---         BLOCKEND  ---      ---       LVL=1
      01001160H   LINE      CODE     ---       #47
      01001166H   LINE      CODE     ---       #49
      01001166H   LINE      CODE     ---       #50
      01001169H   LINE      CODE     ---       #51
      0100116EH   LINE      CODE     ---       #52
      01001181H   LINE      CODE     ---       #53
      01001187H   LINE      CODE     ---       #54
      01001190H   LINE      CODE     ---       #55
      ---         BLOCKEND  ---      ---       LVL=0

      01001195H   BLOCK     CODE     ---       LVL=0
      00000006H   SYMBOL    DATA     BYTE      packet_type
      00000069H   SYMBOL    DATA     ---       data_to_send
      0000006CH   SYMBOL    DATA     BYTE      data_len
      0100119BH   BLOCK     CODE     NEAR LAB  LVL=1
      00000004H   SYMBOL    DATA     WORD      i
      ---         BLOCKEND  ---      ---       LVL=1
      01001195H   LINE      CODE     ---       #59
      0100119BH   LINE      CODE     ---       #61
      0100119BH   LINE      CODE     ---       #62
      0100119EH   LINE      CODE     ---       #63
      010011A5H   LINE      CODE     ---       #64
      010011AAH   LINE      CODE     ---       #65
      010011B6H   LINE      CODE     ---       #66
      010011BCH   LINE      CODE     ---       #67
      010011C5H   LINE      CODE     ---       #68
      ---         BLOCKEND  ---      ---       LVL=0

      0100142AH   BLOCK     CODE     ---       LVL=0
      0100142AH   LINE      CODE     ---       #37
      0100142AH   LINE      CODE     ---       #39
      0100142DH   LINE      CODE     ---       #40
      01001430H   LINE      CODE     ---       #41
      01001433H   LINE      CODE     ---       #42
      01001436H   LINE      CODE     ---       #44
      01001439H   LINE      CODE     ---       #45
      0100143BH   LINE      CODE     ---       #46
      ---         BLOCKEND  ---      ---       LVL=0

      01000B99H   BLOCK     CODE     ---       LVL=0
      01000B99H   LINE      CODE     ---       #48
      01000B99H   LINE      CODE     ---       #49
      01000B9CH   LINE      CODE     ---       #50
      01000B9FH   LINE      CODE     ---       #51
      01000BA4H   LINE      CODE     ---       #52
      01000BA9H   LINE      CODE     ---       #53
      01000BB5H   LINE      CODE     ---       #54
LX51 LINKER/LOCATER V4.66.62.0                                                        11/16/2016  10:35:37  PAGE 28


      01000BB8H   LINE      CODE     ---       #55
      01000BBBH   LINE      CODE     ---       #56
      01000BC7H   LINE      CODE     ---       #57
      01000BCFH   LINE      CODE     ---       #58
      01000BD6H   LINE      CODE     ---       #59
      01000BD8H   LINE      CODE     ---       #60
      01000BEBH   LINE      CODE     ---       #61
      01000BEBH   LINE      CODE     ---       #62
      01000C00H   LINE      CODE     ---       #63
      01000C15H   LINE      CODE     ---       #64
      ---         BLOCKEND  ---      ---       LVL=0

      01000916H   BLOCK     CODE     ---       LVL=0
      01000916H   LINE      CODE     ---       #66
      01000916H   LINE      CODE     ---       #67
      01000919H   LINE      CODE     ---       #68
      01000919H   LINE      CODE     ---       #69
      0100091CH   LINE      CODE     ---       #70
      01000923H   LINE      CODE     ---       #71
      01000926H   LINE      CODE     ---       #72
      01000929H   LINE      CODE     ---       #73
      0100092CH   LINE      CODE     ---       #74
      0100092CH   LINE      CODE     ---       #75
      0100092FH   LINE      CODE     ---       #76
      01000936H   LINE      CODE     ---       #77
      01000938H   LINE      CODE     ---       #78
      0100093FH   LINE      CODE     ---       #79
      01000942H   LINE      CODE     ---       #80
      01000949H   LINE      CODE     ---       #81
      01000949H   LINE      CODE     ---       #82
      0100094CH   LINE      CODE     ---       #84
      01000954H   LINE      CODE     ---       #85
      0100095DH   LINE      CODE     ---       #86
      0100095DH   LINE      CODE     ---       #87
      01000969H   LINE      CODE     ---       #88
      0100096CH   LINE      CODE     ---       #89
      0100096EH   LINE      CODE     ---       #90
      0100096EH   LINE      CODE     ---       #91
      01000971H   LINE      CODE     ---       #92
      0100097DH   LINE      CODE     ---       #93
      0100097FH   LINE      CODE     ---       #94
      0100097FH   LINE      CODE     ---       #95
      0100097FH   LINE      CODE     ---       #96
      0100097FH   LINE      CODE     ---       #97
      01000982H   LINE      CODE     ---       #98
      01000984H   LINE      CODE     ---       #99
      01000984H   LINE      CODE     ---       #101
      01000991H   LINE      CODE     ---       #102
      0100099AH   LINE      CODE     ---       #103
      010009A8H   LINE      CODE     ---       #104
      010009AEH   LINE      CODE     ---       #105
      010009AEH   LINE      CODE     ---       #106
      010009B1H   LINE      CODE     ---       #107
      ---         BLOCKEND  ---      ---       LVL=0

      01001363H   BLOCK     CODE     ---       LVL=0
      01001363H   LINE      CODE     ---       #108
      01001363H   LINE      CODE     ---       #109
      01001363H   LINE      CODE     ---       #110
      01001363H   LINE      CODE     ---       #111
      01001363H   LINE      CODE     ---       #112
      01001366H   LINE      CODE     ---       #113
      01001366H   LINE      CODE     ---       #114
      01001366H   LINE      CODE     ---       #115
      01001366H   LINE      CODE     ---       #116
LX51 LINKER/LOCATER V4.66.62.0                                                        11/16/2016  10:35:37  PAGE 29


      01001369H   LINE      CODE     ---       #117
      0100136BH   LINE      CODE     ---       #118
      ---         BLOCKEND  ---      ---       LVL=0

      010010B3H   BLOCK     CODE     ---       LVL=0
      010010B3H   LINE      CODE     ---       #121
      010010D0H   LINE      CODE     ---       #122
      010010D3H   LINE      CODE     ---       #123
      ---         BLOCKEND  ---      ---       LVL=0

      ---         MODULE    ---      ---       HAL_W2_ISR
      0000007CH   PUBLIC    DATA     BYTE      w2_status
      0000007BH   PUBLIC    DATA     BYTE      data_ready
      00000024H   PUBLIC    DATA     BYTE      ?_i2c_mpu_writeWords?BYTE
      01000F88H   PUBLIC    CODE     ---       _i2c_mpu_writeWords
      01001405H   PUBLIC    CODE     ---       _i2c_mpu_writeWord
      00000022H   PUBLIC    DATA     BYTE      ?_i2c_mpu_readBits?BYTE
      01000EDAH   PUBLIC    CODE     ---       _i2c_mpu_readBits
      0000004BH   PUBLIC    DATA     BYTE      ?_i2c_mpu_readBit?BYTE
      010012A4H   PUBLIC    CODE     ---       _i2c_mpu_readBit
      00000022H   PUBLIC    DATA     BYTE      ?_i2c_mpu_writeBits?BYTE
      01000E1AH   PUBLIC    CODE     ---       _i2c_mpu_writeBits
      00000022H   PUBLIC    DATA     BYTE      ?_i2c_mpu_writeBit?BYTE
      01000FDEH   PUBLIC    CODE     ---       _i2c_mpu_writeBit
      0000002EH   PUBLIC    DATA     BYTE      ?_i2c_mpu_readBytes?BYTE
      01000E7DH   PUBLIC    CODE     ---       _i2c_mpu_readBytes
      0100144EH   PUBLIC    CODE     ---       _i2c_mpu_readByte
      0000002AH   PUBLIC    DATA     BYTE      ?_i2c_mpu_writeBytes?BYTE
      010010EEH   PUBLIC    CODE     ---       _i2c_mpu_writeBytes
      01001482H   PUBLIC    CODE     ---       _i2c_mpu_writeByte
      01000DA7H   PUBLIC    CODE     ---       hal_w2_soft_reset
      00000058H   PUBLIC    DATA     BYTE      ?_hal_w2_read?BYTE
      01001071H   PUBLIC    CODE     ---       _hal_w2_read
      00000052H   PUBLIC    DATA     BYTE      ?_hal_w2_write?BYTE
      01001128H   PUBLIC    CODE     ---       _hal_w2_write
      0100143CH   PUBLIC    CODE     ---       _hal_w2_init_transfer
      0100127DH   PUBLIC    CODE     ---       hal_w2_wait_data_ready
      010012E9H   PUBLIC    CODE     ---       _hal_w2_configure_master
      010015B4H   PUBLIC    CODE     ---       _hal_w2_all_irq_enable
      010015A9H   PUBLIC    CODE     ---       _hal_w2_enable
      0100159EH   PUBLIC    CODE     ---       _hal_w2_set_op_mode
      01001505H   PUBLIC    CODE     ---       _hal_w2_set_clk_freq
      01001621H   PUBLIC    CODE     ---       _hal_w2_set_slave_address
      01001593H   PUBLIC    CODE     ---       _hal_w2_irq_adr_match_enable
      01001588H   PUBLIC    CODE     ---       _hal_w2_irq_stop_cond_enable
      0100157DH   PUBLIC    CODE     ---       _hal_w2_alter_clock
      01001572H   PUBLIC    CODE     ---       _hal_w2_respond_to_gen_adr
      010015E7H   PUBLIC    CODE     ---       I2C_IRQ_handler
      010015DDH   PUBLIC    CODE     ---       hal_w2_wait_data_ready_ISR
      00000098H.3 SFRSYM    DATA     BIT       TB80
      000000BEH   SFRSYM    DATA     BYTE      SPISSTAT
      000000C8H   SFRSYM    DATA     BIT       T2I0
      000000C3H   SFRSYM    DATA     BYTE      CCH1
      00000080H   SFRSYM    DATA     BYTE      P0
      000000C8H.1 SFRSYM    DATA     BIT       T2I1
      000000DFH   SFRSYM    DATA     BYTE      CCPDATO
      000000C5H   SFRSYM    DATA     BYTE      CCH2
      00000090H   SFRSYM    DATA     BYTE      P1
      000000C7H   SFRSYM    DATA     BYTE      CCH3
      000000A0H   SFRSYM    DATA     BYTE      P2
      00000098H.5 SFRSYM    DATA     BIT       SM20
      000000B0H   SFRSYM    DATA     BYTE      P3
      000000D0H.6 SFRSYM    DATA     BIT       AC
      000000C2H   SFRSYM    DATA     BYTE      CCL1
      000000C4H   SFRSYM    DATA     BYTE      CCL2
LX51 LINKER/LOCATER V4.66.62.0                                                        11/16/2016  10:35:37  PAGE 30


      000000D8H.7 SFRSYM    DATA     BIT       BD
      000000B8H   SFRSYM    DATA     BIT       RFSPI
      000000A8H.7 SFRSYM    DATA     BIT       EA
      000000CCH   SFRSYM    DATA     WORD      T2
      000000C6H   SFRSYM    DATA     BYTE      CCL3
      000000B7H   SFRSYM    DATA     BYTE      SPISRDSZ
      000000C8H.3 SFRSYM    DATA     BIT       T2R0
      000000C8H.4 SFRSYM    DATA     BIT       T2R1
      000000A8H   SFRSYM    DATA     BYTE      IEN0
      000000B8H   SFRSYM    DATA     BYTE      IEN1
      000000A5H   SFRSYM    DATA     BYTE      WUCON
      00000085H   SFRSYM    DATA     BYTE      DPH1
      000000DBH   SFRSYM    DATA     BYTE      COMPCON
      000000A3H   SFRSYM    DATA     BYTE      CLKCTRL
      00000084H   SFRSYM    DATA     BYTE      DPL1
      000000C8H.5 SFRSYM    DATA     BIT       I2FR
      000000B8H.3 SFRSYM    DATA     BIT       WUPIN
      000000C8H.6 SFRSYM    DATA     BIT       I3FR
      000000FFH   SFRSYM    DATA     BYTE      SPIMDAT
      000000C0H.7 SFRSYM    DATA     BIT       EXF2
      00000098H.4 SFRSYM    DATA     BIT       REN0
      000000C8H.2 SFRSYM    DATA     BIT       T2CM
      000000B8H.1 SFRSYM    DATA     BIT       RF
      000000B8H.5 SFRSYM    DATA     BIT       WUIRQ
      000000E7H   SFRSYM    DATA     BYTE      SPIRDAT
      000000C1H   SFRSYM    DATA     BYTE      CCEN
      000000E2H   SFRSYM    DATA     BYTE      W2CON0
      000000BFH   SFRSYM    DATA     BYTE      SPISDAT
      000000D0H.7 SFRSYM    DATA     BIT       CY
      000000E1H   SFRSYM    DATA     BYTE      W2CON1
      000000FBH   SFRSYM    DATA     BYTE      FDCR
      000000E8H   SFRSYM    DATA     BIT       RFCE
      000000CBH   SFRSYM    DATA     BYTE      CRCH
      00000081H   SFRSYM    DATA     BYTE      SP
      000000D0H.2 SFRSYM    DATA     BIT       OV
      000000CAH   SFRSYM    DATA     BYTE      CRCL
      000000ADH   SFRSYM    DATA     BYTE      CLKLFCTRL
      000000B1H   SFRSYM    DATA     BYTE      RSTREAS
      000000C8H.7 SFRSYM    DATA     BIT       T2PS
      000000F9H   SFRSYM    DATA     BYTE      FPCR
      000000B8H.4 SFRSYM    DATA     BIT       MISC
      000000A1H   SFRSYM    DATA     BYTE      PWMDC0
      000000B4H   SFRSYM    DATA     BYTE      RTC2CMP0
      000000A2H   SFRSYM    DATA     BYTE      PWMDC1
      000000B5H   SFRSYM    DATA     BYTE      RTC2CMP1
      00000080H   SFRSYM    DATA     BIT       P00
      000000BAH   SFRSYM    DATA     BYTE      S0RELH
      00000090H   SFRSYM    DATA     BIT       P10
      00000080H.1 SFRSYM    DATA     BIT       P01
      00000087H   SFRSYM    DATA     BYTE      PCON
      000000A0H   SFRSYM    DATA     BIT       P20
      00000090H.1 SFRSYM    DATA     BIT       P11
      00000080H.2 SFRSYM    DATA     BIT       P02
      000000B0H   SFRSYM    DATA     BIT       P30
      000000A0H.1 SFRSYM    DATA     BIT       P21
      00000090H.2 SFRSYM    DATA     BIT       P12
      00000080H.3 SFRSYM    DATA     BIT       P03
      000000C0H.2 SFRSYM    DATA     BIT       SPIF
      000000F8H.2 SFRSYM    DATA     BIT       RDIS
      000000B0H.1 SFRSYM    DATA     BIT       P31
      000000A0H.2 SFRSYM    DATA     BIT       P22
      00000090H.3 SFRSYM    DATA     BIT       P13
      00000080H.4 SFRSYM    DATA     BIT       P04
      000000AAH   SFRSYM    DATA     BYTE      S0RELL
      000000B0H.2 SFRSYM    DATA     BIT       P32
LX51 LINKER/LOCATER V4.66.62.0                                                        11/16/2016  10:35:37  PAGE 31


      000000A0H.3 SFRSYM    DATA     BIT       P23
      00000090H.4 SFRSYM    DATA     BIT       P14
      00000080H.5 SFRSYM    DATA     BIT       P05
      000000D9H   SFRSYM    DATA     BYTE      W2SADR
      00000089H   SFRSYM    DATA     BYTE      TMOD
      00000088H   SFRSYM    DATA     BYTE      TCON
      000000B0H.3 SFRSYM    DATA     BIT       P33
      000000A0H.4 SFRSYM    DATA     BIT       P24
      00000090H.5 SFRSYM    DATA     BIT       P15
      00000080H.6 SFRSYM    DATA     BIT       P06
      000000B0H.4 SFRSYM    DATA     BIT       P34
      000000A0H.5 SFRSYM    DATA     BIT       P25
      00000090H.6 SFRSYM    DATA     BIT       P16
      00000080H.7 SFRSYM    DATA     BIT       P07
      000000C2H   SFRSYM    DATA     WORD      CC1
      000000B0H.5 SFRSYM    DATA     BIT       P35
      000000A0H.6 SFRSYM    DATA     BIT       P26
      00000090H.7 SFRSYM    DATA     BIT       P17
      000000C4H   SFRSYM    DATA     WORD      CC2
      000000B0H.6 SFRSYM    DATA     BIT       P36
      000000A0H.7 SFRSYM    DATA     BIT       P27
      000000C6H   SFRSYM    DATA     WORD      CC3
      000000B0H.7 SFRSYM    DATA     BIT       P37
      000000E8H.2 SFRSYM    DATA     BIT       RFCKEN
      000000F8H   SFRSYM    DATA     BIT       WPEN
      000000DDH   SFRSYM    DATA     BYTE      CCPDATIA
      000000DEH   SFRSYM    DATA     BYTE      CCPDATIB
      00000088H.1 SFRSYM    DATA     BIT       IE0
      000000F8H.4 SFRSYM    DATA     BIT       RDYN
      00000088H.3 SFRSYM    DATA     BIT       IE1
      000000CFH   SFRSYM    DATA     BYTE      WUOPC0
      000000F0H   SFRSYM    DATA     BYTE      B
      000000E9H   SFRSYM    DATA     BYTE      MD0
      000000CEH   SFRSYM    DATA     BYTE      WUOPC1
      000000A7H   SFRSYM    DATA     BYTE      MEMCON
      000000EAH   SFRSYM    DATA     BYTE      MD1
      000000D7H   SFRSYM    DATA     BYTE      RNGDAT
      000000EBH   SFRSYM    DATA     BYTE      MD2
      000000ECH   SFRSYM    DATA     BYTE      MD3
      000000EDH   SFRSYM    DATA     BYTE      MD4
      000000AFH   SFRSYM    DATA     BYTE      WDSV
      000000EEH   SFRSYM    DATA     BYTE      MD5
      000000E0H   SFRSYM    DATA     BYTE      ACC
      000000DCH   SFRSYM    DATA     BYTE      POFCON
      000000A8H.4 SFRSYM    DATA     BIT       ES0
      000000A8H.1 SFRSYM    DATA     BIT       ET0
      000000A9H   SFRSYM    DATA     BYTE      IP0
      000000A8H.3 SFRSYM    DATA     BIT       ET1
      00000088H.5 SFRSYM    DATA     BIT       TF0
      000000B9H   SFRSYM    DATA     BYTE      IP1
      000000A8H.5 SFRSYM    DATA     BIT       ET2
      00000098H   SFRSYM    DATA     BIT       RI0
      00000088H.7 SFRSYM    DATA     BIT       TF1
      000000C0H   SFRSYM    DATA     BIT       RFSPIF
      000000C0H.6 SFRSYM    DATA     BIT       TF2
      000000FCH   SFRSYM    DATA     BYTE      SPIMCON0
      000000D6H   SFRSYM    DATA     BYTE      RNGCTL
      0000008CH   SFRSYM    DATA     BYTE      TH0
      000000A8H   SFRSYM    DATA     BIT       EX0
      00000098H.1 SFRSYM    DATA     BIT       TI0
      00000088H   SFRSYM    DATA     BIT       IT0
      000000FDH   SFRSYM    DATA     BYTE      SPIMCON1
      0000008DH   SFRSYM    DATA     BYTE      TH1
      000000A8H.2 SFRSYM    DATA     BIT       EX1
      00000088H.2 SFRSYM    DATA     BIT       IT1
LX51 LINKER/LOCATER V4.66.62.0                                                        11/16/2016  10:35:37  PAGE 32


      000000CDH   SFRSYM    DATA     BYTE      TH2
      000000AEH   SFRSYM    DATA     BYTE      OPMCON
      000000D0H   SFRSYM    DATA     BIT       P
      00000098H.7 SFRSYM    DATA     BIT       SM0
      0000008AH   SFRSYM    DATA     BYTE      TL0
      00000098H.6 SFRSYM    DATA     BIT       SM1
      000000E4H   SFRSYM    DATA     BYTE      SPIRCON0
      0000008BH   SFRSYM    DATA     BYTE      TL1
      000000E5H   SFRSYM    DATA     BYTE      SPIRCON1
      000000CCH   SFRSYM    DATA     BYTE      TL2
      000000BCH   SFRSYM    DATA     BYTE      SPISCON0
      000000BDH   SFRSYM    DATA     BYTE      SPISCON1
      000000D0H.3 SFRSYM    DATA     BIT       RS0
      00000088H.4 SFRSYM    DATA     BIT       TR0
      000000D0H.4 SFRSYM    DATA     BIT       RS1
      000000B2H   SFRSYM    DATA     BYTE      PWMCON
      00000088H.6 SFRSYM    DATA     BIT       TR1
      000000CAH   SFRSYM    DATA     WORD      CRC
      000000A6H   SFRSYM    DATA     BYTE      INTEXP
      000000C0H.3 SFRSYM    DATA     BIT       WUPINF
      000000FAH   SFRSYM    DATA     BYTE      FCR
      000000D3H   SFRSYM    DATA     BYTE      ADCCON1
      000000D2H   SFRSYM    DATA     BYTE      ADCCON2
      00000083H   SFRSYM    DATA     BYTE      DPH
      000000D1H   SFRSYM    DATA     BYTE      ADCCON3
      000000C0H.1 SFRSYM    DATA     BIT       RFF
      00000093H   SFRSYM    DATA     BYTE      P0DIR
      00000082H   SFRSYM    DATA     BYTE      DPL
      0000009EH   SFRSYM    DATA     BYTE      P0CON
      00000099H   SFRSYM    DATA     BYTE      S0BUF
      00000094H   SFRSYM    DATA     BYTE      P1DIR
      0000009FH   SFRSYM    DATA     BYTE      P1CON
      00000095H   SFRSYM    DATA     BYTE      P2DIR
      000000B8H.7 SFRSYM    DATA     BIT       EXEN2
      000000DAH   SFRSYM    DATA     BYTE      W2DAT
      00000097H   SFRSYM    DATA     BYTE      P2CON
      00000096H   SFRSYM    DATA     BYTE      P3DIR
      000000A4H   SFRSYM    DATA     BYTE      PWRDWN
      00000098H   SFRSYM    DATA     BYTE      S0CON
      0000008FH   SFRSYM    DATA     BYTE      P3CON
      000000B6H   SFRSYM    DATA     BYTE      RTC2CPT00
      000000D8H   SFRSYM    DATA     BYTE      ADCON
      000000ACH   SFRSYM    DATA     BYTE      RTC2CPT10
      000000ABH   SFRSYM    DATA     BYTE      RTC2CPT01
      000000C8H   SFRSYM    DATA     BYTE      T2CON
      00000092H   SFRSYM    DATA     BYTE      DPS
      000000F8H.5 SFRSYM    DATA     BIT       WEN
      000000F8H   SFRSYM    DATA     BYTE      FSR
      000000D4H   SFRSYM    DATA     BYTE      ADCDATH
      000000C9H   SFRSYM    DATA     BYTE      MPAGE
      000000B8H.2 SFRSYM    DATA     BIT       SPI
      000000F8H.1 SFRSYM    DATA     BIT       RDEND
      000000D5H   SFRSYM    DATA     BYTE      ADCDATL
      000000F8H.3 SFRSYM    DATA     BIT       INFEN
      000000F8H.7 SFRSYM    DATA     BIT       MCDIS
      000000C0H.5 SFRSYM    DATA     BIT       WUF
      000000C0H.4 SFRSYM    DATA     BIT       MISCF
      000000EFH   SFRSYM    DATA     BYTE      ARCON
      000000D0H.5 SFRSYM    DATA     BIT       F0
      000000F8H.6 SFRSYM    DATA     BIT       STP
      000000FEH   SFRSYM    DATA     BYTE      SPIMSTAT
      000000E8H   SFRSYM    DATA     BYTE      RFCON
      000000D0H   SFRSYM    DATA     BYTE      PSW
      00000098H.2 SFRSYM    DATA     BIT       RB80
      000000C0H   SFRSYM    DATA     BYTE      IRCON
LX51 LINKER/LOCATER V4.66.62.0                                                        11/16/2016  10:35:37  PAGE 33


      000000E8H.1 SFRSYM    DATA     BIT       RFCSN
      000000E6H   SFRSYM    DATA     BYTE      SPIRSTAT
      000000B3H   SFRSYM    DATA     BYTE      RTC2CON

      01001513H   BLOCK     CODE     ---       LVL=0
      ---         BLOCKEND  ---      ---       LVL=0

      010015DDH   BLOCK     CODE     ---       LVL=0
      010015DDH   LINE      CODE     ---       #39
      010015DDH   LINE      CODE     ---       #40
      010015DDH   LINE      CODE     ---       #41
      010015E0H   LINE      CODE     ---       #42
      010015E4H   LINE      CODE     ---       #43
      010015E6H   LINE      CODE     ---       #44
      ---         BLOCKEND  ---      ---       LVL=0

      010015E7H   BLOCK     CODE     ---       LVL=0
      010015E7H   LINE      CODE     ---       #45
      010015E7H   LINE      CODE     ---       #46
      010015E7H   LINE      CODE     ---       #48
      010015EAH   LINE      CODE     ---       #49
      010015F0H   LINE      CODE     ---       #51
      ---         BLOCKEND  ---      ---       LVL=0

      01001572H   BLOCK     CODE     ---       LVL=0
      00000007H   SYMBOL    DATA     BYTE      resp_gen
      01001572H   LINE      CODE     ---       #52
      01001572H   LINE      CODE     ---       #53
      01001572H   LINE      CODE     ---       #54
      01001575H   LINE      CODE     ---       #55
      01001575H   LINE      CODE     ---       #56
      01001578H   LINE      CODE     ---       #57
      01001579H   LINE      CODE     ---       #59
      01001579H   LINE      CODE     ---       #60
      0100157CH   LINE      CODE     ---       #61
      0100157CH   LINE      CODE     ---       #62
      ---         BLOCKEND  ---      ---       LVL=0

      0100157DH   BLOCK     CODE     ---       LVL=0
      00000007H   SYMBOL    DATA     BYTE      alt_clk
      0100157DH   LINE      CODE     ---       #64
      0100157DH   LINE      CODE     ---       #65
      0100157DH   LINE      CODE     ---       #66
      01001580H   LINE      CODE     ---       #67
      01001580H   LINE      CODE     ---       #68
      01001583H   LINE      CODE     ---       #69
      01001584H   LINE      CODE     ---       #71
      01001584H   LINE      CODE     ---       #72
      01001587H   LINE      CODE     ---       #73
      01001587H   LINE      CODE     ---       #74
      ---         BLOCKEND  ---      ---       LVL=0

      01001588H   BLOCK     CODE     ---       LVL=0
      00000007H   SYMBOL    DATA     BYTE      stop_cond
      01001588H   LINE      CODE     ---       #76
      01001588H   LINE      CODE     ---       #77
      01001588H   LINE      CODE     ---       #78
      0100158BH   LINE      CODE     ---       #79
      0100158BH   LINE      CODE     ---       #80
      0100158EH   LINE      CODE     ---       #81
      0100158FH   LINE      CODE     ---       #83
      0100158FH   LINE      CODE     ---       #84
      01001592H   LINE      CODE     ---       #85
      01001592H   LINE      CODE     ---       #86
      ---         BLOCKEND  ---      ---       LVL=0
LX51 LINKER/LOCATER V4.66.62.0                                                        11/16/2016  10:35:37  PAGE 34



      01001593H   BLOCK     CODE     ---       LVL=0
      00000007H   SYMBOL    DATA     BYTE      addr_match
      01001593H   LINE      CODE     ---       #88
      01001593H   LINE      CODE     ---       #89
      01001593H   LINE      CODE     ---       #90
      01001596H   LINE      CODE     ---       #91
      01001596H   LINE      CODE     ---       #92
      01001599H   LINE      CODE     ---       #93
      0100159AH   LINE      CODE     ---       #95
      0100159AH   LINE      CODE     ---       #96
      0100159DH   LINE      CODE     ---       #97
      0100159DH   LINE      CODE     ---       #98
      ---         BLOCKEND  ---      ---       LVL=0

      01001621H   BLOCK     CODE     ---       LVL=0
      00000007H   SYMBOL    DATA     BYTE      address
      01001621H   LINE      CODE     ---       #100
      01001621H   LINE      CODE     ---       #101
      01001621H   LINE      CODE     ---       #102
      01001626H   LINE      CODE     ---       #103
      ---         BLOCKEND  ---      ---       LVL=0

      01001505H   BLOCK     CODE     ---       LVL=0
      00000007H   SYMBOL    DATA     BYTE      freq
      01001505H   LINE      CODE     ---       #107
      01001505H   LINE      CODE     ---       #108
      01001505H   LINE      CODE     ---       #109
      01001512H   LINE      CODE     ---       #110
      ---         BLOCKEND  ---      ---       LVL=0

      0100159EH   BLOCK     CODE     ---       LVL=0
      00000007H   SYMBOL    DATA     BYTE      mode
      0100159EH   LINE      CODE     ---       #112
      0100159EH   LINE      CODE     ---       #113
      0100159EH   LINE      CODE     ---       #114
      010015A1H   LINE      CODE     ---       #115
      010015A1H   LINE      CODE     ---       #116
      010015A4H   LINE      CODE     ---       #117
      010015A5H   LINE      CODE     ---       #119
      010015A5H   LINE      CODE     ---       #120
      010015A8H   LINE      CODE     ---       #121
      010015A8H   LINE      CODE     ---       #122
      ---         BLOCKEND  ---      ---       LVL=0

      010015A9H   BLOCK     CODE     ---       LVL=0
      00000007H   SYMBOL    DATA     BYTE      en
      010015A9H   LINE      CODE     ---       #124
      010015A9H   LINE      CODE     ---       #125
      010015A9H   LINE      CODE     ---       #126
      010015ACH   LINE      CODE     ---       #127
      010015ACH   LINE      CODE     ---       #128
      010015AFH   LINE      CODE     ---       #129
      010015B0H   LINE      CODE     ---       #131
      010015B0H   LINE      CODE     ---       #132
      010015B3H   LINE      CODE     ---       #133
      010015B3H   LINE      CODE     ---       #134
      ---         BLOCKEND  ---      ---       LVL=0

      010015B4H   BLOCK     CODE     ---       LVL=0
      00000007H   SYMBOL    DATA     BYTE      irq
      010015B4H   LINE      CODE     ---       #136
      010015B4H   LINE      CODE     ---       #137
      010015B4H   LINE      CODE     ---       #140
      010015B7H   LINE      CODE     ---       #141
LX51 LINKER/LOCATER V4.66.62.0                                                        11/16/2016  10:35:37  PAGE 35


      010015B7H   LINE      CODE     ---       #142
      010015BAH   LINE      CODE     ---       #143
      010015BBH   LINE      CODE     ---       #145
      010015BBH   LINE      CODE     ---       #146
      010015BEH   LINE      CODE     ---       #147
      010015BEH   LINE      CODE     ---       #148
      ---         BLOCKEND  ---      ---       LVL=0

      010012E9H   BLOCK     CODE     ---       LVL=0
      00000006H   SYMBOL    DATA     BYTE      mode
      010012E9H   LINE      CODE     ---       #150
      010012EBH   LINE      CODE     ---       #151
      010012EBH   LINE      CODE     ---       #152
      010012F0H   LINE      CODE     ---       #153
      010012F5H   LINE      CODE     ---       #154
      010012FAH   LINE      CODE     ---       #156
      010012FDH   LINE      CODE     ---       #157
      01001300H   LINE      CODE     ---       #158
      01001303H   LINE      CODE     ---       #160
      01001307H   LINE      CODE     ---       #161
      01001309H   LINE      CODE     ---       #162
      ---         BLOCKEND  ---      ---       LVL=0

      0100127DH   BLOCK     CODE     ---       LVL=0
      0100127DH   BLOCK     CODE     NEAR LAB  LVL=1
      00000044H   SYMBOL    DATA     DWORD     timeout_counter
      00000048H   SYMBOL    DATA     BYTE      w2_status
      00000049H   SYMBOL    DATA     BYTE      data_ready
      0000004AH   SYMBOL    DATA     BYTE      nack_received
      ---         BLOCKEND  ---      ---       LVL=1
      0100127DH   LINE      CODE     ---       #164
      0100127DH   LINE      CODE     ---       #165
      0100127DH   LINE      CODE     ---       #166
      01001287H   LINE      CODE     ---       #172
      01001287H   LINE      CODE     ---       #173
      0100128AH   LINE      CODE     ---       #174
      01001290H   LINE      CODE     ---       #175
      01001296H   LINE      CODE     ---       #176
      0100129DH   LINE      CODE     ---       #177
      010012A1H   LINE      CODE     ---       #180
      010012A3H   LINE      CODE     ---       #181
      ---         BLOCKEND  ---      ---       LVL=0

      0100143CH   BLOCK     CODE     ---       LVL=0
      00000007H   SYMBOL    DATA     BYTE      address
      00000005H   SYMBOL    DATA     BYTE      direction
      0100143CH   BLOCK     CODE     NEAR LAB  LVL=1
      00000007H   SYMBOL    DATA     BYTE      w2_status
      ---         BLOCKEND  ---      ---       LVL=1
      0100143CH   LINE      CODE     ---       #183
      0100143CH   LINE      CODE     ---       #184
      0100143CH   LINE      CODE     ---       #187
      0100143FH   LINE      CODE     ---       #188
      01001443H   LINE      CODE     ---       #190
      01001443H   LINE      CODE     ---       #192
      0100144BH   LINE      CODE     ---       #193
      0100144BH   LINE      CODE     ---       #194
      0100144DH   LINE      CODE     ---       #195
      0100144DH   LINE      CODE     ---       #197
      0100144DH   LINE      CODE     ---       #198
      0100144DH   LINE      CODE     ---       #199
      0100144DH   LINE      CODE     ---       #200
      ---         BLOCKEND  ---      ---       LVL=0

      01001128H   BLOCK     CODE     ---       LVL=0
LX51 LINKER/LOCATER V4.66.62.0                                                        11/16/2016  10:35:37  PAGE 36


      00000007H   SYMBOL    DATA     BYTE      address
      00000053H   SYMBOL    DATA     ---       data_ptr
      00000056H   SYMBOL    DATA     BYTE      data_len
      0100112EH   BLOCK     CODE     NEAR LAB  LVL=1
      00000006H   SYMBOL    DATA     BYTE      ack_received
      01001142H   BLOCK     CODE     NEAR LAB  LVL=2
      00000057H   SYMBOL    DATA     BYTE      w2_status
      ---         BLOCKEND  ---      ---       LVL=2
      ---         BLOCKEND  ---      ---       LVL=1
      01001128H   LINE      CODE     ---       #202
      0100112EH   LINE      CODE     ---       #203
      0100112EH   LINE      CODE     ---       #205
      01001135H   LINE      CODE     ---       #207
      01001142H   LINE      CODE     ---       #208
      01001142H   LINE      CODE     ---       #210
      0100114CH   LINE      CODE     ---       #211
      01001151H   LINE      CODE     ---       #212
      01001156H   LINE      CODE     ---       #213
      01001156H   LINE      CODE     ---       #214
      01001158H   LINE      CODE     ---       #215
      01001158H   LINE      CODE     ---       #216
      0100115AH   LINE      CODE     ---       #218
      0100115DH   LINE      CODE     ---       #220
      0100115FH   LINE      CODE     ---       #221
      ---         BLOCKEND  ---      ---       LVL=0

      01001071H   BLOCK     CODE     ---       LVL=0
      00000007H   SYMBOL    DATA     BYTE      address
      00000059H   SYMBOL    DATA     ---       data_ptr
      0000005CH   SYMBOL    DATA     BYTE      data_len
      01001077H   BLOCK     CODE     NEAR LAB  LVL=1
      00000007H   SYMBOL    DATA     BYTE      w2_status
      0000005DH   SYMBOL    DATA     BYTE      ack_received
      ---         BLOCKEND  ---      ---       LVL=1
      01001071H   LINE      CODE     ---       #223
      01001077H   LINE      CODE     ---       #224
      01001077H   LINE      CODE     ---       #228
      0100107EH   LINE      CODE     ---       #230
      01001082H   LINE      CODE     ---       #231
      01001082H   LINE      CODE     ---       #233
      01001085H   LINE      CODE     ---       #234
      01001085H   LINE      CODE     ---       #237
      01001090H   LINE      CODE     ---       #238
      01001090H   LINE      CODE     ---       #239
      01001094H   LINE      CODE     ---       #240
      01001094H   LINE      CODE     ---       #241
      01001097H   LINE      CODE     ---       #242
      01001097H   LINE      CODE     ---       #244
      0100109AH   LINE      CODE     ---       #246
      010010A4H   LINE      CODE     ---       #247
      010010AEH   LINE      CODE     ---       #248
      010010B0H   LINE      CODE     ---       #250
      010010B2H   LINE      CODE     ---       #251
      ---         BLOCKEND  ---      ---       LVL=0

      01000DA7H   BLOCK     CODE     ---       LVL=0
      01000DA7H   BLOCK     CODE     NEAR LAB  LVL=1
      00000036H   SYMBOL    DATA     BYTE      pulsecount
      00000037H   SYMBOL    DATA     BYTE      w2_freq
      ---         BLOCKEND  ---      ---       LVL=1
      01000DA7H   LINE      CODE     ---       #253
      01000DA7H   LINE      CODE     ---       #254
      01000DA7H   LINE      CODE     ---       #259
      01000DADH   LINE      CODE     ---       #261
      01000DB0H   LINE      CODE     ---       #262
LX51 LINKER/LOCATER V4.66.62.0                                                        11/16/2016  10:35:37  PAGE 37


      01000DB8H   LINE      CODE     ---       #266
      01000DBBH   LINE      CODE     ---       #267
      01000DBEH   LINE      CODE     ---       #270
      01000DC1H   LINE      CODE     ---       #275
      01000DC7H   LINE      CODE     ---       #278
      01000DC7H   LINE      CODE     ---       #280
      01000DC7H   LINE      CODE     ---       #284
      01000DCAH   LINE      CODE     ---       #285
      01000DCDH   LINE      CODE     ---       #286
      01000DCDH   LINE      CODE     ---       #288
      01000DD3H   LINE      CODE     ---       #289
      01000DD3H   LINE      CODE     ---       #291
      01000DD3H   LINE      CODE     ---       #292
      01000DD6H   LINE      CODE     ---       #293
      01000DDFH   LINE      CODE     ---       #296
      01000DDFH   LINE      CODE     ---       #298
      01000DE6H   LINE      CODE     ---       #301
      01000DE6H   LINE      CODE     ---       #303
      01000DEDH   LINE      CODE     ---       #306
      01000DF0H   LINE      CODE     ---       #309
      01000DF3H   LINE      CODE     ---       #310
      01000DF9H   LINE      CODE     ---       #312
      ---         BLOCKEND  ---      ---       LVL=0

      01001482H   BLOCK     CODE     ---       LVL=0
      00000007H   SYMBOL    DATA     BYTE      devAddr
      00000005H   SYMBOL    DATA     BYTE      regAddr
      00000029H   SYMBOL    DATA     BYTE      data_to_write
      01001482H   LINE      CODE     ---       #317
      01001484H   LINE      CODE     ---       #318
      01001492H   LINE      CODE     ---       #319
      ---         BLOCKEND  ---      ---       LVL=0

      010010EEH   BLOCK     CODE     ---       LVL=0
      00000007H   SYMBOL    DATA     BYTE      devAddr
      00000004H   SYMBOL    DATA     BYTE      regAddr
      00000006H   SYMBOL    DATA     BYTE      data_len
      0000002DH   SYMBOL    DATA     ---       data_ptr
      010010F2H   BLOCK     CODE     NEAR LAB  LVL=1
      00000007H   SYMBOL    DATA     BYTE      w2_status
      00000005H   SYMBOL    DATA     BYTE      ack_received
      ---         BLOCKEND  ---      ---       LVL=1
      010010EEH   LINE      CODE     ---       #321
      010010F2H   LINE      CODE     ---       #326
      010010F9H   LINE      CODE     ---       #327
      010010FBH   LINE      CODE     ---       #328
      010010FEH   LINE      CODE     ---       #329
      01001102H   LINE      CODE     ---       #330
      01001102H   LINE      CODE     ---       #331
      01001104H   LINE      CODE     ---       #332
      01001104H   LINE      CODE     ---       #334
      01001110H   LINE      CODE     ---       #335
      01001110H   LINE      CODE     ---       #336
      01001118H   LINE      CODE     ---       #337
      01001118H   LINE      CODE     ---       #338
      0100111EH   LINE      CODE     ---       #339
      0100111EH   LINE      CODE     ---       #340
      01001120H   LINE      CODE     ---       #341
      01001120H   LINE      CODE     ---       #342
      01001122H   LINE      CODE     ---       #343
      01001125H   LINE      CODE     ---       #345
      01001127H   LINE      CODE     ---       #346
      ---         BLOCKEND  ---      ---       LVL=0

      0100144EH   BLOCK     CODE     ---       LVL=0
LX51 LINKER/LOCATER V4.66.62.0                                                        11/16/2016  10:35:37  PAGE 38


      00000007H   SYMBOL    DATA     BYTE      devAddr
      00000005H   SYMBOL    DATA     BYTE      regAddr
      0000002BH   SYMBOL    DATA     ---       data_ptr
      0100144EH   LINE      CODE     ---       #348
      01001454H   LINE      CODE     ---       #349
      0100145FH   LINE      CODE     ---       #350
      ---         BLOCKEND  ---      ---       LVL=0

      01000E7DH   BLOCK     CODE     ---       LVL=0
      00000006H   SYMBOL    DATA     BYTE      devAddr
      00000004H   SYMBOL    DATA     BYTE      regAddr
      00000030H   SYMBOL    DATA     BYTE      data_len
      00000031H   SYMBOL    DATA     ---       data_ptr
      01000E83H   BLOCK     CODE     NEAR LAB  LVL=1
      00000034H   SYMBOL    DATA     BYTE      w2_status
      00000035H   SYMBOL    DATA     BYTE      ack_received
      ---         BLOCKEND  ---      ---       LVL=1
      01000E7DH   LINE      CODE     ---       #352
      01000E83H   LINE      CODE     ---       #357
      01000E8AH   LINE      CODE     ---       #358
      01000E8CH   LINE      CODE     ---       #359
      01000E91H   LINE      CODE     ---       #360
      01000E96H   LINE      CODE     ---       #361
      01000E96H   LINE      CODE     ---       #362
      01000E99H   LINE      CODE     ---       #363
      01000E99H   LINE      CODE     ---       #367
      01000EA2H   LINE      CODE     ---       #369
      01000EA6H   LINE      CODE     ---       #370
      01000EA6H   LINE      CODE     ---       #372
      01000EA9H   LINE      CODE     ---       #374
      01000EA9H   LINE      CODE     ---       #376
      01000EB4H   LINE      CODE     ---       #377
      01000EB4H   LINE      CODE     ---       #378
      01000EB8H   LINE      CODE     ---       #379
      01000EB8H   LINE      CODE     ---       #380
      01000EBBH   LINE      CODE     ---       #381
      01000EBBH   LINE      CODE     ---       #383
      01000EC0H   LINE      CODE     ---       #385
      01000ECAH   LINE      CODE     ---       #386
      01000ED5H   LINE      CODE     ---       #387
      01000ED7H   LINE      CODE     ---       #389
      01000ED9H   LINE      CODE     ---       #390
      ---         BLOCKEND  ---      ---       LVL=0

      01000FDEH   BLOCK     CODE     ---       LVL=0
      00000022H   SYMBOL    DATA     BYTE      devAddr
      00000023H   SYMBOL    DATA     BYTE      regAddr
      00000024H   SYMBOL    DATA     BYTE      bitNum
      00000025H   SYMBOL    DATA     BYTE      data_to_write
      01000FE4H   BLOCK     CODE     NEAR LAB  LVL=1
      00000026H   SYMBOL    DATA     BYTE      b
      ---         BLOCKEND  ---      ---       LVL=1
      01000FDEH   LINE      CODE     ---       #393
      01000FE4H   LINE      CODE     ---       #395
      01000FEDH   LINE      CODE     ---       #396
      01001022H   LINE      CODE     ---       #397
      0100102BH   LINE      CODE     ---       #398
      ---         BLOCKEND  ---      ---       LVL=0

      01000E1AH   BLOCK     CODE     ---       LVL=0
      00000022H   SYMBOL    DATA     BYTE      devAddr
      00000023H   SYMBOL    DATA     BYTE      regAddr
      00000024H   SYMBOL    DATA     BYTE      bitStart
      00000025H   SYMBOL    DATA     BYTE      data_length
      00000026H   SYMBOL    DATA     BYTE      data_to_write
LX51 LINKER/LOCATER V4.66.62.0                                                        11/16/2016  10:35:37  PAGE 39


      01000E20H   BLOCK     CODE     NEAR LAB  LVL=1
      00000027H   SYMBOL    DATA     BYTE      b
      01000E2CH   BLOCK     CODE     NEAR LAB  LVL=2
      00000028H   SYMBOL    DATA     BYTE      mask
      ---         BLOCKEND  ---      ---       LVL=2
      ---         BLOCKEND  ---      ---       LVL=1
      01000E1AH   LINE      CODE     ---       #399
      01000E20H   LINE      CODE     ---       #408
      01000E2CH   LINE      CODE     ---       #409
      01000E59H   LINE      CODE     ---       #410
      01000E66H   LINE      CODE     ---       #411
      01000E6AH   LINE      CODE     ---       #412
      01000E6DH   LINE      CODE     ---       #413
      01000E71H   LINE      CODE     ---       #414
      01000E7AH   LINE      CODE     ---       #415
      01000E7AH   LINE      CODE     ---       #416
      01000E7CH   LINE      CODE     ---       #417
      01000E7CH   LINE      CODE     ---       #418
      ---         BLOCKEND  ---      ---       LVL=0

      010012A4H   BLOCK     CODE     ---       LVL=0
      00000007H   SYMBOL    DATA     BYTE      devAddr
      00000005H   SYMBOL    DATA     BYTE      regAddr
      0000004DH   SYMBOL    DATA     BYTE      bitNum
      0000004EH   SYMBOL    DATA     ---       data_ptr
      010012A6H   BLOCK     CODE     NEAR LAB  LVL=1
      00000051H   SYMBOL    DATA     BYTE      b
      00000007H   SYMBOL    DATA     BYTE      count
      ---         BLOCKEND  ---      ---       LVL=1
      010012A4H   LINE      CODE     ---       #419
      010012A6H   LINE      CODE     ---       #421
      010012AFH   LINE      CODE     ---       #422
      010012C7H   LINE      CODE     ---       #423
      010012C7H   LINE      CODE     ---       #424
      ---         BLOCKEND  ---      ---       LVL=0

      01000EDAH   BLOCK     CODE     ---       LVL=0
      00000007H   SYMBOL    DATA     BYTE      devAddr
      00000005H   SYMBOL    DATA     BYTE      regAddr
      00000024H   SYMBOL    DATA     BYTE      bitStart
      00000025H   SYMBOL    DATA     BYTE      data_length
      00000026H   SYMBOL    DATA     ---       data_ptr
      01000EDCH   BLOCK     CODE     NEAR LAB  LVL=1
      00000005H   SYMBOL    DATA     BYTE      count
      00000029H   SYMBOL    DATA     BYTE      b
      01000EEAH   BLOCK     CODE     NEAR LAB  LVL=2
      0000002AH   SYMBOL    DATA     BYTE      mask
      ---         BLOCKEND  ---      ---       LVL=2
      ---         BLOCKEND  ---      ---       LVL=1
      01000EDAH   LINE      CODE     ---       #425
      01000EDCH   LINE      CODE     ---       #432
      01000EEAH   LINE      CODE     ---       #433
      01000F17H   LINE      CODE     ---       #434
      01000F19H   LINE      CODE     ---       #435
      01000F26H   LINE      CODE     ---       #436
      01000F2FH   LINE      CODE     ---       #437
      01000F2FH   LINE      CODE     ---       #438
      01000F31H   LINE      CODE     ---       #439
      ---         BLOCKEND  ---      ---       LVL=0

      01001405H   BLOCK     CODE     ---       LVL=0
      00000007H   SYMBOL    DATA     BYTE      devAddr
      00000005H   SYMBOL    DATA     BYTE      regAddr
      00000022H   SYMBOL    DATA     WORD      data_to_write
      01001405H   LINE      CODE     ---       #442
LX51 LINKER/LOCATER V4.66.62.0                                                        11/16/2016  10:35:37  PAGE 40


      01001409H   LINE      CODE     ---       #443
      01001417H   LINE      CODE     ---       #444
      ---         BLOCKEND  ---      ---       LVL=0

      01000F88H   BLOCK     CODE     ---       LVL=0
      00000007H   SYMBOL    DATA     BYTE      devAddr
      00000006H   SYMBOL    DATA     BYTE      regAddr
      00000004H   SYMBOL    DATA     BYTE      data_length
      00000027H   SYMBOL    DATA     ---       data_ptr
      01000F8CH   BLOCK     CODE     NEAR LAB  LVL=1
      00000007H   SYMBOL    DATA     BYTE      w2_status
      00000005H   SYMBOL    DATA     BYTE      ack_received
      ---         BLOCKEND  ---      ---       LVL=1
      01000F88H   LINE      CODE     ---       #445
      01000F8CH   LINE      CODE     ---       #456
      01000F93H   LINE      CODE     ---       #457
      01000F95H   LINE      CODE     ---       #458
      01000F98H   LINE      CODE     ---       #459
      01000F9CH   LINE      CODE     ---       #460
      01000F9CH   LINE      CODE     ---       #461
      01000F9EH   LINE      CODE     ---       #462
      01000F9EH   LINE      CODE     ---       #464
      01000FACH   LINE      CODE     ---       #465
      01000FACH   LINE      CODE     ---       #466
      01000FB7H   LINE      CODE     ---       #467
      01000FB7H   LINE      CODE     ---       #468
      01000FBDH   LINE      CODE     ---       #469
      01000FBDH   LINE      CODE     ---       #470
      01000FBFH   LINE      CODE     ---       #471
      01000FBFH   LINE      CODE     ---       #472
      01000FC2H   LINE      CODE     ---       #473
      01000FCEH   LINE      CODE     ---       #474
      01000FCEH   LINE      CODE     ---       #475
      01000FD4H   LINE      CODE     ---       #476
      01000FD4H   LINE      CODE     ---       #477
      01000FD6H   LINE      CODE     ---       #478
      01000FD6H   LINE      CODE     ---       #479
      01000FD8H   LINE      CODE     ---       #480
      01000FD8H   LINE      CODE     ---       #481
      01000FD8H   LINE      CODE     ---       #482
      01000FD8H   LINE      CODE     ---       #483
      01000FDBH   LINE      CODE     ---       #485
      01000FDDH   LINE      CODE     ---       #486
      ---         BLOCKEND  ---      ---       LVL=0

      ---         MODULE    ---      ---       HAL_DELAY
      010013CBH   PUBLIC    CODE     ---       _delay_ms
      010013A4H   PUBLIC    CODE     ---       _delay_us

      01001399H   BLOCK     CODE     ---       LVL=0
      ---         BLOCKEND  ---      ---       LVL=0

      010013A4H   BLOCK     CODE     ---       LVL=0
      00000006H   SYMBOL    DATA     WORD      us
      010013A4H   LINE      CODE     ---       #37
      010013A4H   LINE      CODE     ---       #38
      010013A4H   LINE      CODE     ---       #40
      010013A4H   LINE      CODE     ---       #41
      010013A5H   LINE      CODE     ---       #42
      010013A6H   LINE      CODE     ---       #43
      010013A7H   LINE      CODE     ---       #44
      010013A8H   LINE      CODE     ---       #45
      010013A9H   LINE      CODE     ---       #46
      010013B2H   LINE      CODE     ---       #47
      ---         BLOCKEND  ---      ---       LVL=0
LX51 LINKER/LOCATER V4.66.62.0                                                        11/16/2016  10:35:37  PAGE 41



      010013CBH   BLOCK     CODE     ---       LVL=0
      00000004H   SYMBOL    DATA     WORD      ms
      010013CBH   LINE      CODE     ---       #49
      010013CFH   LINE      CODE     ---       #50
      010013CFH   LINE      CODE     ---       #52
      010013CFH   LINE      CODE     ---       #53
      010013CFH   LINE      CODE     ---       #54
      010013D2H   LINE      CODE     ---       #55
      010013D2H   LINE      CODE     ---       #56
      010013D5H   LINE      CODE     ---       #57
      010013DEH   LINE      CODE     ---       #58
      ---         BLOCKEND  ---      ---       LVL=0

      ---         MODULE    ---      ---       ?C_INIT
      01000B54H   PUBLIC    CODE     ---       ?C_START

      ---         MODULE    ---      ---       ?C?CLDPTR
      01000056H   PUBLIC    CODE     ---       ?C?CLDPTR

      ---         MODULE    ---      ---       ?C?CLDOPTR
      0100006FH   PUBLIC    CODE     ---       ?C?CLDOPTR

      ---         MODULE    ---      ---       ?C?CSTPTR
      0100009CH   PUBLIC    CODE     ---       ?C?CSTPTR

      ---         MODULE    ---      ---       ?C?CSTOPTR
      010000AEH   PUBLIC    CODE     ---       ?C?CSTOPTR

      ---         MODULE    ---      ---       ?C?IILDX
      010000D0H   PUBLIC    CODE     ---       ?C?IILDX

      ---         MODULE    ---      ---       ?C?ILDIX
      010000E6H   PUBLIC    CODE     ---       ?C?ILDIX

      ---         MODULE    ---      ---       ?C?ILDPTR
      010000FCH   PUBLIC    CODE     ---       ?C?ILDPTR

      ---         MODULE    ---      ---       ?C?PLDIIDATA
      01000127H   PUBLIC    CODE     ---       ?C?PLDIIDATA

      ---         MODULE    ---      ---       ?C?MEMCMP
      010002BDH   PUBLIC    CODE     ---       ?C?MEMCMP

      ---         MODULE    ---      ---       MALLOC
      010009D8H   PUBLIC    CODE     ---       _MALLOC

      ---         MODULE    ---      ---       INIT_MEM
      02000269H   PUBLIC    XDATA    ---       __MEM_AVAIL__
      0100000EH   PUBLIC    CODE     ---       _INIT_MEMPOOL

      ---         MODULE    ---      ---       REALLOC
      01000D2FH   PUBLIC    CODE     ---       _REALLOC

      ---         MODULE    ---      ---       FREE
      0100074CH   PUBLIC    CODE     ---       _FREE

      ---         MODULE    ---      ---       ?C?COPY
      010003B1H   PUBLIC    CODE     ---       ?C?COPY



*** WARNING L57: UNCALLED FUNCTION, IGNORED FOR OVERLAY PROCESS
    NAME:    GETXACCELOFFSET/MAIN

LX51 LINKER/LOCATER V4.66.62.0                                                        11/16/2016  10:35:37  PAGE 42


*** WARNING L57: UNCALLED FUNCTION, IGNORED FOR OVERLAY PROCESS
    NAME:    GETYACCELOFFSET/MAIN

*** WARNING L57: UNCALLED FUNCTION, IGNORED FOR OVERLAY PROCESS
    NAME:    GETZACCELOFFSET/MAIN

*** WARNING L57: UNCALLED FUNCTION, IGNORED FOR OVERLAY PROCESS
    NAME:    GETXGYROOFFSET/MAIN

*** WARNING L57: UNCALLED FUNCTION, IGNORED FOR OVERLAY PROCESS
    NAME:    GETYGYROOFFSET/MAIN

*** WARNING L57: UNCALLED FUNCTION, IGNORED FOR OVERLAY PROCESS
    NAME:    GETZGYROOFFSET/MAIN

*** WARNING L57: UNCALLED FUNCTION, IGNORED FOR OVERLAY PROCESS
    NAME:    GETFIFOCOUNT/MAIN

*** WARNING L57: UNCALLED FUNCTION, IGNORED FOR OVERLAY PROCESS
    NAME:    GETINTSTATUS/MAIN

*** WARNING L57: UNCALLED FUNCTION, IGNORED FOR OVERLAY PROCESS
    NAME:    _SETDMPENABLED/MAIN

*** WARNING L57: UNCALLED FUNCTION, IGNORED FOR OVERLAY PROCESS
    NAME:    RESETFIFO/MAIN

*** WARNING L57: UNCALLED FUNCTION, IGNORED FOR OVERLAY PROCESS
    NAME:    DMPGETFIFOPACKETSIZE/MAIN

*** WARNING L57: UNCALLED FUNCTION, IGNORED FOR OVERLAY PROCESS
    NAME:    _GETFIFOBYTES/MAIN

*** WARNING L57: UNCALLED FUNCTION, IGNORED FOR OVERLAY PROCESS
    NAME:    _READMEMORYBLOCK/MAIN

*** WARNING L57: UNCALLED FUNCTION, IGNORED FOR OVERLAY PROCESS
    NAME:    _WRITEPROGDMPCONFIGURATIONSET/MAIN

*** WARNING L57: UNCALLED FUNCTION, IGNORED FOR OVERLAY PROCESS
    NAME:    _WRITEPROGMEMORYBLOCK/MAIN

*** WARNING L57: UNCALLED FUNCTION, IGNORED FOR OVERLAY PROCESS
    NAME:    UART_INIT/MAIN

*** WARNING L57: UNCALLED FUNCTION, IGNORED FOR OVERLAY PROCESS
    NAME:    _PUTSTRING/MAIN

*** WARNING L57: UNCALLED FUNCTION, IGNORED FOR OVERLAY PROCESS
    NAME:    _SEND_PACKET_TO_COMPUTER/MAIN

*** WARNING L57: UNCALLED FUNCTION, IGNORED FOR OVERLAY PROCESS
    NAME:    _SEND_PACKET_FROM_HOST_TO_COMPUTER/MAIN

*** WARNING L57: UNCALLED FUNCTION, IGNORED FOR OVERLAY PROCESS
    NAME:    _HAL_W2_RESPOND_TO_GEN_ADR/HAL_W2_ISR

*** WARNING L57: UNCALLED FUNCTION, IGNORED FOR OVERLAY PROCESS
    NAME:    _HAL_W2_ALTER_CLOCK/HAL_W2_ISR

*** WARNING L57: UNCALLED FUNCTION, IGNORED FOR OVERLAY PROCESS
    NAME:    _HAL_W2_IRQ_STOP_COND_ENABLE/HAL_W2_ISR

*** WARNING L57: UNCALLED FUNCTION, IGNORED FOR OVERLAY PROCESS
    NAME:    _HAL_W2_IRQ_ADR_MATCH_ENABLE/HAL_W2_ISR
LX51 LINKER/LOCATER V4.66.62.0                                                        11/16/2016  10:35:37  PAGE 43



*** WARNING L57: UNCALLED FUNCTION, IGNORED FOR OVERLAY PROCESS
    NAME:    _HAL_W2_SET_SLAVE_ADDRESS/HAL_W2_ISR

*** WARNING L57: UNCALLED FUNCTION, IGNORED FOR OVERLAY PROCESS
    NAME:    HAL_W2_WAIT_DATA_READY/HAL_W2_ISR

*** WARNING L57: UNCALLED FUNCTION, IGNORED FOR OVERLAY PROCESS
    NAME:    _HAL_W2_WRITE/HAL_W2_ISR

*** WARNING L57: UNCALLED FUNCTION, IGNORED FOR OVERLAY PROCESS
    NAME:    _HAL_W2_READ/HAL_W2_ISR

*** WARNING L57: UNCALLED FUNCTION, IGNORED FOR OVERLAY PROCESS
    NAME:    _I2C_MPU_READBIT/HAL_W2_ISR

Program Size: data=125.1 xdata=625 const=2261 code=5665
LX51 RUN COMPLETE.  28 WARNING(S),  0 ERROR(S)
