LX51 LINKER/LOCATER V4.66.62.0                                                          12/09/2016  09:53:08  PAGE 1


LX51 LINKER/LOCATER V4.66.62.0, INVOKED BY:
C:\KEIL_V5\C51\BIN\LX51.EXE STARTUP.obj, main.obj, .\hal_w2_isr.obj, .\hal_delay.obj TO FProject DISABLEWARNING (16)


CPU MODE:     8051 MODE
MEMORY MODEL: SMALL


INPUT MODULES INCLUDED:
  STARTUP.obj (?C_STARTUP)
         COMMENT TYPE 1: A51 / ASM51 Assembler
  main.obj (MAIN)
         COMMENT TYPE 0: C51 V9.55
  .\hal_w2_isr.obj (HAL_W2_ISR)
         COMMENT TYPE 0: C51 V9.55
  .\hal_delay.obj (HAL_DELAY)
         COMMENT TYPE 0: C51 V9.55
  C:\KEIL_V5\C51\LIB\C51S.LIB (?C_INIT)
         COMMENT TYPE 1: A51 / ASM51 Assembler
  C:\KEIL_V5\C51\LIB\C51S.LIB (?C?CLDPTR)
         COMMENT TYPE 1: A51 / ASM51 Assembler
  C:\KEIL_V5\C51\LIB\C51S.LIB (?C?CLDOPTR)
         COMMENT TYPE 1: A51 / ASM51 Assembler
  C:\KEIL_V5\C51\LIB\C51S.LIB (?C?CSTPTR)
         COMMENT TYPE 1: A51 / ASM51 Assembler
  C:\KEIL_V5\C51\LIB\C51S.LIB (?C?CSTOPTR)
         COMMENT TYPE 1: A51 / ASM51 Assembler
  C:\KEIL_V5\C51\LIB\C51S.LIB (?C?IILDX)
         COMMENT TYPE 1: A51 / ASM51 Assembler
  C:\KEIL_V5\C51\LIB\C51S.LIB (?C?ILDIX)
         COMMENT TYPE 1: A51 / ASM51 Assembler
  C:\KEIL_V5\C51\LIB\C51S.LIB (?C?ILDPTR)
         COMMENT TYPE 1: A51 / ASM51 Assembler
  C:\KEIL_V5\C51\LIB\C51S.LIB (?C?ISTPTR)
         COMMENT TYPE 1: A51 / ASM51 Assembler
  C:\KEIL_V5\C51\LIB\C51S.LIB (?C?ISTOPTR)
         COMMENT TYPE 1: A51 / ASM51 Assembler
  C:\KEIL_V5\C51\LIB\C51S.LIB (?C?PLDIIDATA)
         COMMENT TYPE 1: A51 / ASM51 Assembler
  C:\KEIL_V5\C51\LIB\C51S.LIB (?C?PLDXDATA)
         COMMENT TYPE 1: A51 / ASM51 Assembler
  C:\KEIL_V5\C51\LIB\C51S.LIB (?C?PSTXDATA)
         COMMENT TYPE 1: A51 / ASM51 Assembler
  C:\KEIL_V5\C51\LIB\C51S.LIB (?C?MEMCMP)
         COMMENT TYPE 1: A51 / ASM51 Assembler
  C:\KEIL_V5\C51\LIB\C51S.LIB (MALLOC)
         COMMENT TYPE 1: C51 Compiler
  C:\KEIL_V5\C51\LIB\C51S.LIB (INIT_MEM)
         COMMENT TYPE 1: C51 Compiler
  C:\KEIL_V5\C51\LIB\C51S.LIB (REALLOC)
         COMMENT TYPE 1: C51 Compiler
  C:\KEIL_V5\C51\LIB\C51S.LIB (FREE)
         COMMENT TYPE 1: C51 Compiler
  C:\KEIL_V5\C51\LIB\C51S.LIB (?C?COPY)
         COMMENT TYPE 1: A51 / ASM51 Assembler


ACTIVE MEMORY CLASSES OF MODULE:  FProject (?C_STARTUP)

BASE        START       END         USED      MEMORY CLASS
==========================================================
C:000000H   C:000000H   C:00FFFFH   0023F4H   CODE
I:000000H   I:000000H   I:0000FFH   000001H   IDATA
I:000000H   I:000000H   I:00007FH   000051H   DATA
X:000000H   X:000000H   X:00FFFFH   000380H   XDATA
C:000000H   C:000000H   C:00FFFFH   000BFAH   CONST
LX51 LINKER/LOCATER V4.66.62.0                                                        12/09/2016  09:53:08  PAGE 2


I:000020H.0 I:000020H.0 I:00002FH.7 000000H.1 BIT


MEMORY MAP OF MODULE:  FProject (?C_STARTUP)


START     STOP      LENGTH    ALIGN  RELOC    MEMORY CLASS   SEGMENT NAME
=========================================================================

* * * * * * * * * * *   D A T A   M E M O R Y   * * * * * * * * * * * * *
000000H   000007H   000008H   ---    AT..     DATA           "REG BANK 0"
000008H   00000EH   000007H   BYTE   UNIT     DATA           ?DT?HAL_W2_WAIT_DATA_READY?HAL_W2_ISR
00000FH   000015H   000007H   BYTE   UNIT     DATA           ?DT?_I2C_MPU_READBIT?HAL_W2_ISR
000016H   00001BH   000006H   BYTE   UNIT     DATA           ?DT?_HAL_W2_WRITE?HAL_W2_ISR
00001CH   00001FH   000004H   BYTE   UNIT     DATA           ?DT?MAIN
000020H   000020H   000001H   BYTE   BITADDR  DATA           ?BA?MAIN
000021H.0 000021H.0 000000H.1 BIT    UNIT     BIT            ?BI?MAIN
000021H.1 000021H   000000H.7 ---    ---      **GAP**
000022H   00003CH   00001BH   BYTE   UNIT     DATA           _DATA_GROUP_
00003DH   000042H   000006H   BYTE   UNIT     DATA           ?DT?_HAL_W2_READ?HAL_W2_ISR
000043H   000047H   000005H   BYTE   UNIT     DATA           ?DT?_SEND_PACKET_TO_COMPUTER?MAIN
000048H   00004CH   000005H   BYTE   UNIT     DATA           ?DT?_SEND_PACKET_FROM_HOST_TO_COMPUTER?MAIN
00004DH   00004FH   000003H   BYTE   UNIT     DATA           ?DT?_PUTSTRING?MAIN
000050H   000051H   000002H   BYTE   UNIT     DATA           ?DT?HAL_W2_ISR
000052H   000052H   000001H   BYTE   UNIT     IDATA          ?STACK

* * * * * * * * * * *   C O D E   M E M O R Y   * * * * * * * * * * * * *
000000H   000002H   000003H   ---    OFFS..   CODE           ?CO??C_STARTUP?0
000003H   000005H   000003H   BYTE   OFFS..   CODE           ?MAIN?00003
000006H   000009H   000004H   BYTE   UNIT     CODE           ?PR?EXT0_IRQ?MAIN
00000AH   00000AH   000001H   ---    ---      **GAP**
00000BH   00000DH   000003H   BYTE   OFFS..   CODE           ?MAIN?0000B
00000EH   000049H   00003CH   BYTE   UNIT     CODE           ?PR?_INIT_MEMPOOL?INIT_MEM
00004AH   00004AH   000001H   ---    ---      **GAP**
00004BH   00004DH   000003H   BYTE   OFFS..   CODE           ?MAIN?0004B
00004EH   000052H   000005H   ---    ---      **GAP**
000053H   000055H   000003H   BYTE   OFFS..   CODE           ?MAIN?00053
000056H   000779H   000724H   BYTE   UNIT     CODE           ?PR?DMPINITIALIZE?MAIN
00077AH   000B58H   0003DFH   BYTE   UNIT     CODE           ?C?LIB_CODE
000B59H   000D80H   000228H   BYTE   UNIT     CODE           ?PR?MAIN
000D81H   000F24H   0001A4H   BYTE   UNIT     CODE           ?PR?_WRITEMEMORYBLOCK?MAIN
000F25H   0010B3H   00018FH   BYTE   UNIT     CODE           ?PR?_WRITEDMPCONFIGURATIONSET?MAIN
0010B4H   0011C7H   000114H   BYTE   UNIT     CODE           ?PR?LER_DMP?MAIN
0011C8H   0012CBH   000104H   BYTE   UNIT     CODE           ?PR?_FREE?FREE
0012CCH   0013C9H   0000FEH   BYTE   UNIT     CODE           ?PR?_DMPGETPACKET16BITS?MAIN
0013CAH   0014B0H   0000E7H   BYTE   UNIT     CODE           ?PR?CONFIGURA_DMP?MAIN
0014B1H   001578H   0000C8H   BYTE   UNIT     CODE           ?PR?SETUP?MAIN
001579H   001633H   0000BBH   BYTE   UNIT     CODE           ?PR?_READMEMORYBLOCK?MAIN
001634H   0016D1H   00009EH   BYTE   UNIT     CODE           ?PR?_GETMOTION6_PACKET?MAIN
0016D2H   00176DH   00009CH   BYTE   UNIT     CODE           ?PR?_MALLOC?MALLOC
00176EH   0017F9H   00008CH   BYTE   UNIT     CODE           ?C_C51STARTUP
0017FAH   00187EH   000085H   BYTE   UNIT     CODE           ?PR?RF_IRQ?MAIN
00187FH   0018F6H   000078H   BYTE   UNIT     CODE           ?PR?_REALLOC?REALLOC
0018F7H   001969H   000073H   BYTE   UNIT     CODE           ?PR?HAL_W2_SOFT_RESET?HAL_W2_ISR
00196AH   0019DBH   000072H   BYTE   UNIT     CODE           ?PR?_DMPGETQUATERNION_INT16?MAIN
0019DCH   001A40H   000065H   BYTE   UNIT     CODE           ?PR?MAIN?MAIN
001A41H   001AA3H   000063H   BYTE   UNIT     CODE           ?PR?_I2C_MPU_WRITEBITS?HAL_W2_ISR
001AA4H   001B00H   00005DH   BYTE   UNIT     CODE           ?PR?_I2C_MPU_READBYTES?HAL_W2_ISR
001B01H   001B58H   000058H   BYTE   UNIT     CODE           ?PR?_I2C_MPU_READBITS?HAL_W2_ISR
001B59H   001BAEH   000056H   BYTE   UNIT     CODE           ?PR?_I2C_MPU_WRITEWORDS?HAL_W2_ISR
001BAFH   001C01H   000053H   BYTE   UNIT     CODE           ?PR?_SEND_PACKET_TO_HOST?MAIN
001C02H   001C4FH   00004EH   BYTE   UNIT     CODE           ?PR?_I2C_MPU_WRITEBIT?HAL_W2_ISR
001C50H   001C94H   000045H   BYTE   UNIT     CODE           ?PR?RF_INIT?MAIN
001C95H   001CD6H   000042H   BYTE   UNIT     CODE           ?PR?_HAL_W2_READ?HAL_W2_ISR
001CD7H   001D11H   00003BH   BYTE   UNIT     CODE           ?PR?I2C_IRQ?MAIN
LX51 LINKER/LOCATER V4.66.62.0                                                        12/09/2016  09:53:08  PAGE 3


001D12H   001D4BH   00003AH   BYTE   UNIT     CODE           ?PR?_I2C_MPU_WRITEBYTES?HAL_W2_ISR
001D4CH   001D83H   000038H   BYTE   UNIT     CODE           ?PR?_HAL_W2_WRITE?HAL_W2_ISR
001D84H   001DB8H   000035H   BYTE   UNIT     CODE           ?PR?_SEND_PACKET_TO_COMPUTER?MAIN
001DB9H   001DEDH   000035H   BYTE   UNIT     CODE           ?PR?_SEND_PACKET_FROM_HOST_TO_COMPUTER?MAIN
001DEEH   001E19H   00002CH   BYTE   UNIT     CODE           ?PR?_TX_MODE_NOACK?MAIN
001E1AH   001E45H   00002CH   BYTE   UNIT     CODE           ?PR?_GETFIFOBYTES?MAIN
001E46H   001E70H   00002BH   BYTE   UNIT     CODE           ?PR?_SPI_READ_BUF?MAIN
001E71H   001E97H   000027H   BYTE   UNIT     CODE           ?PR?HAL_W2_WAIT_DATA_READY?HAL_W2_ISR
001E98H   001EBBH   000024H   BYTE   UNIT     CODE           ?PR?_I2C_MPU_READBIT?HAL_W2_ISR
001EBCH   001EDCH   000021H   BYTE   UNIT     CODE           ?PR?_HAL_W2_CONFIGURE_MASTER?HAL_W2_ISR
001EDDH   001EFCH   000020H   BYTE   UNIT     CODE           ?PR?_WRITEPROGMEMORYBLOCK?MAIN
001EFDH   001F1BH   00001FH   BYTE   UNIT     CODE           ?PR?_SPI_WRITE_BUF?MAIN
001F1CH   001F37H   00001CH   BYTE   UNIT     CODE           ?PR?_PUTSTRING?MAIN
001F38H   001F53H   00001CH   BYTE   UNIT     CODE           ?PR?LUZES_INICIAIS?MAIN
001F54H   001F6FH   00001CH   BYTE   UNIT     CODE           ?C_INITSEG
001F70H   001F8AH   00001BH   BYTE   UNIT     CODE           ?PR?_SETMEMORYBANK?MAIN
001F8BH   001FA4H   00001AH   BYTE   UNIT     CODE           ?PR?UART_INIT?MAIN
001FA5H   001FBEH   00001AH   BYTE   UNIT     CODE           ?PR?_SETSLAVEADDRESS?MAIN
001FBFH   001FD8H   00001AH   BYTE   UNIT     CODE           ?PR?_DELAY_US?HAL_DELAY
001FD9H   001FEEH   000016H   BYTE   UNIT     CODE           ?PR?MPU_TESTCONNECTION?MAIN
001FEFH   002002H   000014H   BYTE   UNIT     CODE           ?PR?MPU_INITIALIZE?MAIN
002003H   002016H   000014H   BYTE   UNIT     CODE           ?PR?_DELAY_MS?HAL_DELAY
002017H   002029H   000013H   BYTE   UNIT     CODE           ?PR?_SPI_RW_REG?MAIN
00202AH   00203CH   000013H   BYTE   UNIT     CODE           ?PR?GETZEROMOTIONDETECTIONDURATION?MAIN
00203DH   00204FH   000013H   BYTE   UNIT     CODE           ?PR?_I2C_MPU_WRITEWORD?HAL_W2_ISR
002050H   002061H   000012H   BYTE   UNIT     CODE           ?PR?GETFIFOENABLED?MAIN
002062H   002073H   000012H   BYTE   UNIT     CODE           ?PR?INICIARIO?MAIN
002074H   002085H   000012H   BYTE   UNIT     CODE           ?PR?_HAL_W2_INIT_TRANSFER?HAL_W2_ISR
002086H   002097H   000012H   BYTE   UNIT     CODE           ?PR?_I2C_MPU_READBYTE?HAL_W2_ISR
002098H   0020A8H   000011H   BYTE   UNIT     CODE           ?PR?_UART_PUTCHAR?MAIN
0020A9H   0020B9H   000011H   BYTE   UNIT     CODE           ?PR?RX_MODE?MAIN
0020BAH   0020CAH   000011H   BYTE   UNIT     CODE           ?PR?GETOTPBANKVALID?MAIN
0020CBH   0020DBH   000011H   BYTE   UNIT     CODE           ?PR?_I2C_MPU_WRITEBYTE?HAL_W2_ISR
0020DCH   0020EBH   000010H   BYTE   UNIT     CODE           ?PR?TMR0_IRQ?MAIN
0020ECH   0020FBH   000010H   BYTE   UNIT     CODE           ?PR?GETXGYROOFFSETTC?MAIN
0020FCH   00210BH   000010H   BYTE   UNIT     CODE           ?PR?GETYGYROOFFSETTC?MAIN
00210CH   00211BH   000010H   BYTE   UNIT     CODE           ?PR?GETZGYROOFFSETTC?MAIN
00211CH   002129H   00000EH   BYTE   UNIT     CODE           ?PR?_SETCLOCKSOURCE?MAIN
00212AH   002137H   00000EH   BYTE   UNIT     CODE           ?PR?_SETFULLSCALEGYRORANGE?MAIN
002138H   002145H   00000EH   BYTE   UNIT     CODE           ?PR?_SETFULLSCALEACCELRANGE?MAIN
002146H   002153H   00000EH   BYTE   UNIT     CODE           ?PR?GETXACCELOFFSET?MAIN
002154H   002161H   00000EH   BYTE   UNIT     CODE           ?PR?GETYACCELOFFSET?MAIN
002162H   00216FH   00000EH   BYTE   UNIT     CODE           ?PR?GETZACCELOFFSET?MAIN
002170H   00217DH   00000EH   BYTE   UNIT     CODE           ?PR?GETXGYROOFFSET?MAIN
00217EH   00218BH   00000EH   BYTE   UNIT     CODE           ?PR?GETYGYROOFFSET?MAIN
00218CH   002199H   00000EH   BYTE   UNIT     CODE           ?PR?GETZGYROOFFSET?MAIN
00219AH   0021A7H   00000EH   BYTE   UNIT     CODE           ?PR?GETFIFOCOUNT?MAIN
0021A8H   0021B5H   00000EH   BYTE   UNIT     CODE           ?PR?GETINTSTATUS?MAIN
0021B6H   0021C3H   00000EH   BYTE   UNIT     CODE           ?PR?_SETEXTERNALFRAMESYNC?MAIN
0021C4H   0021D1H   00000EH   BYTE   UNIT     CODE           ?PR?_SETDLPFMODE?MAIN
0021D2H   0021DFH   00000EH   BYTE   UNIT     CODE           ?PR?GETDMPCONFIG1?MAIN
0021E0H   0021EDH   00000EH   BYTE   UNIT     CODE           ?PR?GETDMPCONFIG2?MAIN
0021EEH   0021FBH   00000EH   BYTE   UNIT     CODE           ?PR?GETMOTIONDETECTIONTHRESHOLD?MAIN
0021FCH   002209H   00000EH   BYTE   UNIT     CODE           ?PR?GETZEROMOTIONDETECTIONTHRESHOLD?MAIN
00220AH   002217H   00000EH   BYTE   UNIT     CODE           ?PR?GETMOTIONDETECTIONDURATION?MAIN
002218H   002225H   00000EH   BYTE   UNIT     CODE           ?PR?_HAL_W2_SET_CLK_FREQ?HAL_W2_ISR
002226H   002233H   00000EH   BYTE   UNIT     CODE           ?PR?HAL_W2_ISR
002234H   002240H   00000DH   BYTE   UNIT     CODE           ?PR?_SPI_READ?MAIN
002241H   00224CH   00000CH   BYTE   UNIT     CODE           ?PR?INICIARRF?MAIN
00224DH   002258H   00000CH   BYTE   UNIT     CODE           ?PR?RESETFIFO?MAIN
002259H   002264H   00000CH   BYTE   UNIT     CODE           ?PR?I2C_MPU_RESET?MAIN
002265H   002270H   00000CH   BYTE   UNIT     CODE           ?PR?RESETI2CMASTER?MAIN
002271H   00227CH   00000CH   BYTE   UNIT     CODE           ?PR?RESETDMP?MAIN
00227DH   002287H   00000BH   BYTE   UNIT     CODE           ?PR?MPU_8051_MALLOC_SETUP?MAIN
002288H   002292H   00000BH   BYTE   UNIT     CODE           ?PR?_SETSLEEPENABLED?MAIN
LX51 LINKER/LOCATER V4.66.62.0                                                        12/09/2016  09:53:08  PAGE 4


002293H   00229DH   00000BH   BYTE   UNIT     CODE           ?PR?_SETYGYROOFFSET?MAIN
00229EH   0022A8H   00000BH   BYTE   UNIT     CODE           ?PR?_SETZGYROOFFSET?MAIN
0022A9H   0022B3H   00000BH   BYTE   UNIT     CODE           ?PR?_SETDMPENABLED?MAIN
0022B4H   0022BEH   00000BH   BYTE   UNIT     CODE           ?PR?_SETI2CMASTERMODEENABLED?MAIN
0022BFH   0022C9H   00000BH   BYTE   UNIT     CODE           ?PR?_SETFIFOENABLED?MAIN
0022CAH   0022D4H   00000BH   BYTE   UNIT     CODE           ?PR?_HAL_W2_RESPOND_TO_GEN_ADR?HAL_W2_ISR
0022D5H   0022DFH   00000BH   BYTE   UNIT     CODE           ?PR?_HAL_W2_ALTER_CLOCK?HAL_W2_ISR
0022E0H   0022EAH   00000BH   BYTE   UNIT     CODE           ?PR?_HAL_W2_IRQ_STOP_COND_ENABLE?HAL_W2_ISR
0022EBH   0022F5H   00000BH   BYTE   UNIT     CODE           ?PR?_HAL_W2_IRQ_ADR_MATCH_ENABLE?HAL_W2_ISR
0022F6H   002300H   00000BH   BYTE   UNIT     CODE           ?PR?_HAL_W2_SET_OP_MODE?HAL_W2_ISR
002301H   00230BH   00000BH   BYTE   UNIT     CODE           ?PR?_HAL_W2_ENABLE?HAL_W2_ISR
00230CH   002316H   00000BH   BYTE   UNIT     CODE           ?PR?_HAL_W2_ALL_IRQ_ENABLE?HAL_W2_ISR
002317H   002320H   00000AH   BYTE   UNIT     CODE           ?PR?_SPI_RW?MAIN
002321H   00232AH   00000AH   BYTE   UNIT     CODE           ?PR?START_T0?MAIN
00232BH   002334H   00000AH   BYTE   UNIT     CODE           ?PR?STOP_T0?MAIN
002335H   00233EH   00000AH   BYTE   UNIT     CODE           ?PR?_WRITEPROGDMPCONFIGURATIONSET?MAIN
00233FH   002348H   00000AH   BYTE   UNIT     CODE           ?PR?_SETOTPBANKVALID?MAIN
002349H   002352H   00000AH   BYTE   UNIT     CODE           ?PR?_SETXGYROOFFSETTC?MAIN
002353H   00235CH   00000AH   BYTE   UNIT     CODE           ?PR?_SETYGYROOFFSETTC?MAIN
00235DH   002366H   00000AH   BYTE   UNIT     CODE           ?PR?_SETZGYROOFFSETTC?MAIN
002367H   002370H   00000AH   BYTE   UNIT     CODE           ?PR?HAL_W2_WAIT_DATA_READY_ISR?HAL_W2_ISR
002371H   00237AH   00000AH   BYTE   UNIT     CODE           ?PR?I2C_IRQ_HANDLER?HAL_W2_ISR
00237BH   002383H   000009H   BYTE   UNIT     CODE           ?PR?DMPGETFIFOPACKETSIZE?MAIN
002384H   00238CH   000009H   BYTE   UNIT     CODE           ?PR?_SETMEMORYSTARTADDRESS?MAIN
00238DH   002395H   000009H   BYTE   UNIT     CODE           ?PR?_SETINTENABLED?MAIN
002396H   00239EH   000009H   BYTE   UNIT     CODE           ?PR?_SETRATE?MAIN
00239FH   0023A7H   000009H   BYTE   UNIT     CODE           ?PR?_SETDMPCONFIG1?MAIN
0023A8H   0023B0H   000009H   BYTE   UNIT     CODE           ?PR?_SETDMPCONFIG2?MAIN
0023B1H   0023B9H   000009H   BYTE   UNIT     CODE           ?PR?_SETMOTIONDETECTIONTHRESHOLD?MAIN
0023BAH   0023C2H   000009H   BYTE   UNIT     CODE           ?PR?_SETZEROMOTIONDETECTIONTHRESHOLD?MAIN
0023C3H   0023CBH   000009H   BYTE   UNIT     CODE           ?PR?_SETMOTIONDETECTIONDURATION?MAIN
0023CCH   0023D4H   000009H   BYTE   UNIT     CODE           ?PR?_SETZEROMOTIONDETECTIONDURATION?MAIN
0023D5H   0023DCH   000008H   BYTE   UNIT     CODE           ?PR?_SETXACCELOFFSET?MAIN
0023DDH   0023E4H   000008H   BYTE   UNIT     CODE           ?PR?_SETYACCELOFFSET?MAIN
0023E5H   0023ECH   000008H   BYTE   UNIT     CODE           ?PR?_SETZACCELOFFSET?MAIN
0023EDH   0023F4H   000008H   BYTE   UNIT     CODE           ?PR?_SETXGYROOFFSET?MAIN
0023F5H   0023FAH   000006H   BYTE   UNIT     CODE           ?PR?_HAL_W2_SET_SLAVE_ADDRESS?HAL_W2_ISR
0023FBH   002FF4H   000BFAH   BYTE   UNIT     CONST          ?CO?MAIN

* * * * * * * * * * *  X D A T A   M E M O R Y  * * * * * * * * * * * * *
000000H   0002B4H   0002B5H   BYTE   UNIT     XDATA          ?XD?MAIN
0002B5H   000371H   0000BDH   BYTE   UNIT     XDATA          _XDATA_GROUP_
000372H   000379H   000008H   BYTE   UNIT     XDATA          ?XD?INIT_MEM
00037AH   00037FH   000006H   BYTE   UNIT     XDATA          ?XD?_DMPGETQUATERNION_INT16?MAIN



OVERLAY MAP OF MODULE:   FProject (?C_STARTUP)


FUNCTION/MODULE                              DATA_GROUP   XDATA_GROUP
--> CALLED FUNCTION/MODULE                   START  STOP  START  STOP
=====================================================================
?C_C51STARTUP                                ----- -----  ----- -----
  +--> MAIN/MAIN
  +--> ?C_INITSEG

MAIN/MAIN                                    ----- -----  ----- -----
  +--> SETUP/MAIN
  +--> ?CO?MAIN
  +--> START_T0/MAIN
  +--> STOP_T0/MAIN
  +--> LER_DMP/MAIN
  +--> _SEND_PACKET_TO_HOST/MAIN
  +--> _DELAY_MS/HAL_DELAY
LX51 LINKER/LOCATER V4.66.62.0                                                        12/09/2016  09:53:08  PAGE 5



SETUP/MAIN                                   ----- -----  ----- -----
  +--> INICIARIO/MAIN
  +--> INICIARRF/MAIN
  +--> _HAL_W2_CONFIGURE_MASTER/HAL_W2_ISR
  +--> ?CO?MAIN
  +--> MPU_8051_MALLOC_SETUP/MAIN
  +--> MPU_INITIALIZE/MAIN
  +--> MPU_TESTCONNECTION/MAIN
  +--> _SETXACCELOFFSET/MAIN
  +--> _SETYACCELOFFSET/MAIN
  +--> _SETZACCELOFFSET/MAIN
  +--> _SETXGYROOFFSET/MAIN
  +--> _SETYGYROOFFSET/MAIN
  +--> _SETZGYROOFFSET/MAIN
  +--> CONFIGURA_DMP/MAIN
  +--> LUZES_INICIAIS/MAIN
  +--> _SEND_PACKET_TO_HOST/MAIN
  +--> _DELAY_MS/HAL_DELAY

INICIARIO/MAIN                               ----- -----  ----- -----

INICIARRF/MAIN                               ----- -----  ----- -----
  +--> RF_INIT/MAIN
  +--> RX_MODE/MAIN

RF_INIT/MAIN                                 ----- -----  ----- -----
  +--> MAIN
  +--> _SPI_WRITE_BUF/MAIN
  +--> _SPI_RW_REG/MAIN

MAIN                                         ----- -----  ----- -----
  +--> ?CO?MAIN
  +--> _UART_PUTCHAR/MAIN
  +--> _SPI_RW/MAIN

?CO?MAIN                                     ----- -----  ----- -----

_UART_PUTCHAR/MAIN                           ----- -----  ----- -----

_SPI_RW/MAIN                                 ----- -----  ----- -----

_SPI_WRITE_BUF/MAIN                          0029H 002DH  ----- -----
  +--> MAIN
  +--> _SPI_RW/MAIN

_SPI_RW_REG/MAIN                             ----- -----  ----- -----
  +--> _SPI_RW/MAIN

RX_MODE/MAIN                                 ----- -----  ----- -----
  +--> _SPI_RW_REG/MAIN

_HAL_W2_CONFIGURE_MASTER/HAL_W2_ISR          ----- -----  ----- -----
  +--> _HAL_W2_ENABLE/HAL_W2_ISR
  +--> _HAL_W2_SET_CLK_FREQ/HAL_W2_ISR
  +--> _HAL_W2_SET_OP_MODE/HAL_W2_ISR
  +--> _HAL_W2_ALL_IRQ_ENABLE/HAL_W2_ISR

_HAL_W2_ENABLE/HAL_W2_ISR                    ----- -----  ----- -----

_HAL_W2_SET_CLK_FREQ/HAL_W2_ISR              ----- -----  ----- -----

_HAL_W2_SET_OP_MODE/HAL_W2_ISR               ----- -----  ----- -----

_HAL_W2_ALL_IRQ_ENABLE/HAL_W2_ISR            ----- -----  ----- -----
LX51 LINKER/LOCATER V4.66.62.0                                                        12/09/2016  09:53:08  PAGE 6



MPU_8051_MALLOC_SETUP/MAIN                   ----- -----  ----- -----
  +--> _INIT_MEMPOOL/INIT_MEM

_INIT_MEMPOOL/INIT_MEM                       ----- -----  ----- -----

MPU_INITIALIZE/MAIN                          ----- -----  ----- -----
  +--> _SETCLOCKSOURCE/MAIN
  +--> _SETFULLSCALEGYRORANGE/MAIN
  +--> _SETFULLSCALEACCELRANGE/MAIN
  +--> _SETSLEEPENABLED/MAIN

_SETCLOCKSOURCE/MAIN                         ----- -----  ----- -----
  +--> _I2C_MPU_WRITEBITS/HAL_W2_ISR

_I2C_MPU_WRITEBITS/HAL_W2_ISR                0022H 0028H  ----- -----
  +--> _I2C_MPU_READBYTE/HAL_W2_ISR
  +--> _I2C_MPU_WRITEBYTE/HAL_W2_ISR

_I2C_MPU_READBYTE/HAL_W2_ISR                 002BH 002DH  ----- -----
  +--> _I2C_MPU_READBYTES/HAL_W2_ISR

_I2C_MPU_READBYTES/HAL_W2_ISR                002EH 0035H  ----- -----
  +--> _HAL_W2_INIT_TRANSFER/HAL_W2_ISR
  +--> HAL_W2_WAIT_DATA_READY_ISR/HAL_W2_ISR
  +--> HAL_W2_SOFT_RESET/HAL_W2_ISR
  +--> HAL_W2_ISR

_HAL_W2_INIT_TRANSFER/HAL_W2_ISR             ----- -----  ----- -----
  +--> HAL_W2_ISR

HAL_W2_ISR                                   ----- -----  ----- -----
  +--> HAL_W2_WAIT_DATA_READY_ISR/HAL_W2_ISR

HAL_W2_WAIT_DATA_READY_ISR/HAL_W2_ISR        ----- -----  ----- -----

HAL_W2_SOFT_RESET/HAL_W2_ISR                 0036H 0037H  ----- -----
  +--> _DELAY_US/HAL_DELAY

_DELAY_US/HAL_DELAY                          ----- -----  ----- -----

_I2C_MPU_WRITEBYTE/HAL_W2_ISR                0029H 0029H  ----- -----
  +--> _I2C_MPU_WRITEBYTES/HAL_W2_ISR

_I2C_MPU_WRITEBYTES/HAL_W2_ISR               002AH 002FH  ----- -----
  +--> _HAL_W2_INIT_TRANSFER/HAL_W2_ISR
  +--> HAL_W2_WAIT_DATA_READY_ISR/HAL_W2_ISR
  +--> HAL_W2_ISR

_SETFULLSCALEGYRORANGE/MAIN                  ----- -----  ----- -----
  +--> _I2C_MPU_WRITEBITS/HAL_W2_ISR

_SETFULLSCALEACCELRANGE/MAIN                 ----- -----  ----- -----
  +--> _I2C_MPU_WRITEBITS/HAL_W2_ISR

_SETSLEEPENABLED/MAIN                        ----- -----  ----- -----
  +--> _I2C_MPU_WRITEBIT/HAL_W2_ISR

_I2C_MPU_WRITEBIT/HAL_W2_ISR                 0022H 0026H  ----- -----
  +--> _I2C_MPU_READBYTE/HAL_W2_ISR
  +--> _I2C_MPU_WRITEBYTE/HAL_W2_ISR

MPU_TESTCONNECTION/MAIN                      ----- -----  ----- -----
  +--> MAIN
  +--> _I2C_MPU_READBITS/HAL_W2_ISR
LX51 LINKER/LOCATER V4.66.62.0                                                        12/09/2016  09:53:08  PAGE 7



_I2C_MPU_READBITS/HAL_W2_ISR                 0022H 002AH  ----- -----
  +--> _I2C_MPU_READBYTE/HAL_W2_ISR

_SETXACCELOFFSET/MAIN                        ----- -----  ----- -----
  +--> MAIN
  +--> _I2C_MPU_WRITEWORD/HAL_W2_ISR

_I2C_MPU_WRITEWORD/HAL_W2_ISR                0022H 0023H  ----- -----
  +--> _I2C_MPU_WRITEWORDS/HAL_W2_ISR

_I2C_MPU_WRITEWORDS/HAL_W2_ISR               0024H 0029H  ----- -----
  +--> _HAL_W2_INIT_TRANSFER/HAL_W2_ISR
  +--> HAL_W2_WAIT_DATA_READY_ISR/HAL_W2_ISR
  +--> HAL_W2_ISR

_SETYACCELOFFSET/MAIN                        ----- -----  ----- -----
  +--> MAIN
  +--> _I2C_MPU_WRITEWORD/HAL_W2_ISR

_SETZACCELOFFSET/MAIN                        ----- -----  ----- -----
  +--> MAIN
  +--> _I2C_MPU_WRITEWORD/HAL_W2_ISR

_SETXGYROOFFSET/MAIN                         ----- -----  ----- -----
  +--> MAIN
  +--> _I2C_MPU_WRITEWORD/HAL_W2_ISR

_SETYGYROOFFSET/MAIN                         ----- -----  ----- -----
  +--> _I2C_MPU_WRITEWORD/HAL_W2_ISR

_SETZGYROOFFSET/MAIN                         ----- -----  ----- -----
  +--> _I2C_MPU_WRITEWORD/HAL_W2_ISR

CONFIGURA_DMP/MAIN                           ----- -----  ----- -----
  +--> _DELAY_MS/HAL_DELAY
  +--> ?CO?MAIN
  +--> DMPINITIALIZE/MAIN
  +--> _SETXACCELOFFSET/MAIN
  +--> _SETYACCELOFFSET/MAIN
  +--> _SETZACCELOFFSET/MAIN
  +--> _SETXGYROOFFSET/MAIN
  +--> _SETYGYROOFFSET/MAIN
  +--> _SETZGYROOFFSET/MAIN
  +--> _SETDMPENABLED/MAIN
  +--> GETINTSTATUS/MAIN
  +--> DMPGETFIFOPACKETSIZE/MAIN
  +--> _SEND_PACKET_TO_HOST/MAIN

_DELAY_MS/HAL_DELAY                          ----- -----  ----- -----
  +--> _DELAY_US/HAL_DELAY

DMPINITIALIZE/MAIN                           ----- -----  02B5H 034FH
  +--> ?CO?MAIN
  +--> I2C_MPU_RESET/MAIN
  +--> _DELAY_MS/HAL_DELAY
  +--> _SETSLEEPENABLED/MAIN
  +--> _SETMEMORYBANK/MAIN
  +--> _SETMEMORYSTARTADDRESS/MAIN
  +--> GETXGYROOFFSETTC/MAIN
  +--> GETYGYROOFFSETTC/MAIN
  +--> GETZGYROOFFSETTC/MAIN
  +--> _SETSLAVEADDRESS/MAIN
  +--> _SETI2CMASTERMODEENABLED/MAIN
  +--> RESETI2CMASTER/MAIN
LX51 LINKER/LOCATER V4.66.62.0                                                        12/09/2016  09:53:08  PAGE 8


  +--> _WRITEPROGMEMORYBLOCK/MAIN
  +--> _WRITEPROGDMPCONFIGURATIONSET/MAIN
  +--> _SETCLOCKSOURCE/MAIN
  +--> _SETINTENABLED/MAIN
  +--> _SETRATE/MAIN
  +--> MAIN
  +--> _SETDLPFMODE/MAIN
  +--> _SETFULLSCALEGYRORANGE/MAIN
  +--> _SETDMPCONFIG1/MAIN
  +--> _SETDMPCONFIG2/MAIN
  +--> _SETOTPBANKVALID/MAIN
  +--> _I2C_MPU_READBYTE/HAL_W2_ISR
  +--> _I2C_MPU_WRITEBYTE/HAL_W2_ISR
  +--> RESETFIFO/MAIN
  +--> _SETMOTIONDETECTIONTHRESHOLD/MAIN
  +--> _SETZEROMOTIONDETECTIONTHRESHOLD/MAIN
  +--> _SETMOTIONDETECTIONDURATION/MAIN
  +--> _SETZEROMOTIONDETECTIONDURATION/MAIN
  +--> _SETFIFOENABLED/MAIN
  +--> _SETDMPENABLED/MAIN
  +--> RESETDMP/MAIN
  +--> _SEND_PACKET_TO_HOST/MAIN
  +--> _READMEMORYBLOCK/MAIN
  +--> GETFIFOCOUNT/MAIN
  +--> _GETFIFOBYTES/MAIN
  +--> GETINTSTATUS/MAIN
  +--> _WRITEMEMORYBLOCK/MAIN

I2C_MPU_RESET/MAIN                           ----- -----  ----- -----
  +--> _I2C_MPU_WRITEBIT/HAL_W2_ISR

_SETMEMORYBANK/MAIN                          ----- -----  ----- -----
  +--> _I2C_MPU_WRITEBYTE/HAL_W2_ISR

_SETMEMORYSTARTADDRESS/MAIN                  ----- -----  ----- -----
  +--> _I2C_MPU_WRITEBYTE/HAL_W2_ISR

GETXGYROOFFSETTC/MAIN                        ----- -----  ----- -----
  +--> MAIN
  +--> _I2C_MPU_READBITS/HAL_W2_ISR

GETYGYROOFFSETTC/MAIN                        ----- -----  ----- -----
  +--> MAIN
  +--> _I2C_MPU_READBITS/HAL_W2_ISR

GETZGYROOFFSETTC/MAIN                        ----- -----  ----- -----
  +--> MAIN
  +--> _I2C_MPU_READBITS/HAL_W2_ISR

_SETSLAVEADDRESS/MAIN                        ----- -----  ----- -----
  +--> _I2C_MPU_WRITEBYTE/HAL_W2_ISR

_SETI2CMASTERMODEENABLED/MAIN                ----- -----  ----- -----
  +--> _I2C_MPU_WRITEBIT/HAL_W2_ISR

RESETI2CMASTER/MAIN                          ----- -----  ----- -----
  +--> _I2C_MPU_WRITEBIT/HAL_W2_ISR

_WRITEPROGMEMORYBLOCK/MAIN                   ----- -----  0350H 0357H
  +--> _WRITEMEMORYBLOCK/MAIN

_WRITEMEMORYBLOCK/MAIN                       ----- -----  0360H 0371H
  +--> MAIN
  +--> _SETMEMORYBANK/MAIN
  +--> _SETMEMORYSTARTADDRESS/MAIN
LX51 LINKER/LOCATER V4.66.62.0                                                        12/09/2016  09:53:08  PAGE 9


  +--> _MALLOC/MALLOC
  +--> _I2C_MPU_WRITEBYTES/HAL_W2_ISR
  +--> _I2C_MPU_READBYTES/HAL_W2_ISR
  +--> _FREE/FREE

_MALLOC/MALLOC                               002AH 002DH  ----- -----

_FREE/FREE                                   002AH 002DH  ----- -----

_WRITEPROGDMPCONFIGURATIONSET/MAIN           ----- -----  ----- -----
  +--> _WRITEDMPCONFIGURATIONSET/MAIN

_WRITEDMPCONFIGURATIONSET/MAIN               ----- -----  0350H 035FH
  +--> MAIN
  +--> _MALLOC/MALLOC
  +--> _REALLOC/REALLOC
  +--> _WRITEMEMORYBLOCK/MAIN
  +--> _I2C_MPU_WRITEBYTE/HAL_W2_ISR
  +--> _FREE/FREE

_REALLOC/REALLOC                             0022H 0029H  ----- -----
  +--> _MALLOC/MALLOC
  +--> _FREE/FREE

_SETINTENABLED/MAIN                          ----- -----  ----- -----
  +--> _I2C_MPU_WRITEBYTE/HAL_W2_ISR

_SETRATE/MAIN                                ----- -----  ----- -----
  +--> _I2C_MPU_WRITEBYTE/HAL_W2_ISR

_SETDLPFMODE/MAIN                            ----- -----  ----- -----
  +--> _I2C_MPU_WRITEBITS/HAL_W2_ISR

_SETDMPCONFIG1/MAIN                          ----- -----  ----- -----
  +--> _I2C_MPU_WRITEBYTE/HAL_W2_ISR

_SETDMPCONFIG2/MAIN                          ----- -----  ----- -----
  +--> _I2C_MPU_WRITEBYTE/HAL_W2_ISR

_SETOTPBANKVALID/MAIN                        ----- -----  ----- -----
  +--> _I2C_MPU_WRITEBIT/HAL_W2_ISR

RESETFIFO/MAIN                               ----- -----  ----- -----
  +--> _I2C_MPU_WRITEBIT/HAL_W2_ISR

_SETMOTIONDETECTIONTHRESHOLD/MAIN            ----- -----  ----- -----
  +--> _I2C_MPU_WRITEBYTE/HAL_W2_ISR

_SETZEROMOTIONDETECTIONTHRESHOLD/MAIN        ----- -----  ----- -----
  +--> _I2C_MPU_WRITEBYTE/HAL_W2_ISR

_SETMOTIONDETECTIONDURATION/MAIN             ----- -----  ----- -----
  +--> _I2C_MPU_WRITEBYTE/HAL_W2_ISR

_SETZEROMOTIONDETECTIONDURATION/MAIN         ----- -----  ----- -----
  +--> _I2C_MPU_WRITEBYTE/HAL_W2_ISR

_SETFIFOENABLED/MAIN                         ----- -----  ----- -----
  +--> _I2C_MPU_WRITEBIT/HAL_W2_ISR

_SETDMPENABLED/MAIN                          ----- -----  ----- -----
  +--> _I2C_MPU_WRITEBIT/HAL_W2_ISR

RESETDMP/MAIN                                ----- -----  ----- -----
  +--> _I2C_MPU_WRITEBIT/HAL_W2_ISR
LX51 LINKER/LOCATER V4.66.62.0                                                        12/09/2016  09:53:08  PAGE 10



_SEND_PACKET_TO_HOST/MAIN                    0022H 0026H  ----- -----
  +--> MAIN
  +--> _TX_MODE_NOACK/MAIN
  +--> RX_MODE/MAIN

_TX_MODE_NOACK/MAIN                          0027H 0028H  ----- -----
  +--> _SPI_RW_REG/MAIN
  +--> MAIN
  +--> _SPI_WRITE_BUF/MAIN

_READMEMORYBLOCK/MAIN                        ----- -----  0350H 0359H
  +--> MAIN
  +--> _I2C_MPU_READBYTES/HAL_W2_ISR
  +--> _SETMEMORYBANK/MAIN
  +--> _SETMEMORYSTARTADDRESS/MAIN

GETFIFOCOUNT/MAIN                            ----- -----  ----- -----
  +--> MAIN
  +--> _I2C_MPU_READBYTES/HAL_W2_ISR

_GETFIFOBYTES/MAIN                           ----- -----  0350H 0352H
  +--> MAIN
  +--> _I2C_MPU_READBYTES/HAL_W2_ISR

GETINTSTATUS/MAIN                            ----- -----  ----- -----
  +--> MAIN
  +--> _I2C_MPU_READBYTE/HAL_W2_ISR

DMPGETFIFOPACKETSIZE/MAIN                    ----- -----  ----- -----

LUZES_INICIAIS/MAIN                          ----- -----  ----- -----
  +--> _DELAY_MS/HAL_DELAY

START_T0/MAIN                                ----- -----  ----- -----
  +--> MAIN

STOP_T0/MAIN                                 ----- -----  ----- -----
  +--> MAIN

LER_DMP/MAIN                                 ----- -----  ----- -----
  +--> MAIN
  +--> GETINTSTATUS/MAIN
  +--> RESETFIFO/MAIN
  +--> ?CO?MAIN
  +--> _SEND_PACKET_TO_HOST/MAIN
  +--> GETFIFOCOUNT/MAIN
  +--> _GETFIFOBYTES/MAIN
  +--> _DMPGETPACKET16BITS/MAIN
  +--> _GETMOTION6_PACKET/MAIN

_DMPGETPACKET16BITS/MAIN                     ----- -----  02B5H 02BAH
  +--> MAIN

_GETMOTION6_PACKET/MAIN                      ----- -----  02B5H 02B6H
  +--> _I2C_MPU_READBYTES/HAL_W2_ISR
  +--> MAIN

?C_INITSEG                                   ----- -----  ----- -----

*** NEW ROOT *******************************

RF_IRQ/MAIN                                  ----- -----  ----- -----
  +--> _SPI_READ/MAIN
  +--> _SPI_READ_BUF/MAIN
LX51 LINKER/LOCATER V4.66.62.0                                                        12/09/2016  09:53:08  PAGE 11


  +--> _SPI_RW_REG/MAIN

_SPI_READ/MAIN                               ----- -----  ----- -----
  +--> _SPI_RW/MAIN

_SPI_READ_BUF/MAIN                           0038H 003CH  ----- -----
  +--> MAIN
  +--> _SPI_RW/MAIN

*** NEW ROOT *******************************

TMR0_IRQ/MAIN                                ----- -----  ----- -----
  +--> MAIN

*** NEW ROOT *******************************

EXT0_IRQ/MAIN                                ----- -----  ----- -----

*** NEW ROOT *******************************

I2C_IRQ/MAIN                                 ----- -----  ----- -----
  +--> I2C_IRQ_HANDLER/HAL_W2_ISR

I2C_IRQ_HANDLER/HAL_W2_ISR                   ----- -----  ----- -----



PUBLIC SYMBOLS OF MODULE:  FProject (?C_STARTUP)


      VALUE       CLASS    TYPE      PUBLIC SYMBOL NAME
      =================================================
      020002B5H   XDATA    BYTE      ?_dmpGetPacket16bits?BYTE
      0200037AH   XDATA    BYTE      ?_dmpGetQuaternion_int16?BYTE
      0000003DH   DATA     BYTE      ?_hal_w2_read?BYTE
      00000016H   DATA     BYTE      ?_hal_w2_write?BYTE
      0000000FH   DATA     BYTE      ?_i2c_mpu_readBit?BYTE
      00000022H   DATA     BYTE      ?_i2c_mpu_readBits?BYTE
      0000002EH   DATA     BYTE      ?_i2c_mpu_readBytes?BYTE
      00000022H   DATA     BYTE      ?_i2c_mpu_writeBit?BYTE
      00000022H   DATA     BYTE      ?_i2c_mpu_writeBits?BYTE
      0000002AH   DATA     BYTE      ?_i2c_mpu_writeBytes?BYTE
      00000024H   DATA     BYTE      ?_i2c_mpu_writeWords?BYTE
      02000350H   XDATA    BYTE      ?_readMemoryBlock?BYTE
      00000048H   DATA     BYTE      ?_send_packet_from_host_to_computer?BYTE
      00000043H   DATA     BYTE      ?_send_packet_to_computer?BYTE
      00000022H   DATA     BYTE      ?_send_packet_to_host?BYTE
      00000038H   DATA     BYTE      ?_SPI_Read_Buf?BYTE
      00000029H   DATA     BYTE      ?_SPI_Write_Buf?BYTE
      02000350H   XDATA    BYTE      ?_writeDMPConfigurationSet?BYTE
      02000360H   XDATA    BYTE      ?_writeMemoryBlock?BYTE
      02000350H   XDATA    BYTE      ?_writeProgMemoryBlock?BYTE
      01000793H   CODE     ---       ?C?CLDOPTR
      0100077AH   CODE     ---       ?C?CLDPTR
      00000000H   NUMBER   ---       ?C?CODESEG
      01000B33H   CODE     ---       ?C?COPY
      010007D2H   CODE     ---       ?C?CSTOPTR
      010007C0H   CODE     ---       ?C?CSTPTR
      010007F4H   CODE     ---       ?C?IILDX
      0100080AH   CODE     ---       ?C?ILDIX
      01000820H   CODE     ---       ?C?ILDPTR
      0100086AH   CODE     ---       ?C?ISTOPTR
      0100084BH   CODE     ---       ?C?ISTPTR
      01000A3FH   CODE     ---       ?C?MEMCMP
      01000897H   CODE     ---       ?C?PLDIIDATA
LX51 LINKER/LOCATER V4.66.62.0                                                        12/09/2016  09:53:08  PAGE 12


      010008A7H   CODE     ---       ?C?PLDXDATA
      010008B0H   CODE     ---       ?C?PSTXDATA
      00000000H   NUMBER   ---       ?C?XDATASEG
      010017B5H   CODE     ---       ?C_START
      01000000H   CODE     ---       ?C_STARTUP
      02000372H   XDATA    ---       __mem_avail__
      01002003H   CODE     ---       _delay_ms
      01001FCAH   CODE     ---       _delay_us
      010012CCH   CODE     ---       _dmpGetPacket16bits
      0100196AH   CODE     ---       _dmpGetQuaternion_int16
      010011C8H   CODE     ---       _free
      01001E1AH   CODE     ---       _getFIFOBytes
      01001634H   CODE     ---       _getMotion6_packet
      0100230CH   CODE     ---       _hal_w2_all_irq_enable
      010022D5H   CODE     ---       _hal_w2_alter_clock
      01001EBCH   CODE     ---       _hal_w2_configure_master
      01002301H   CODE     ---       _hal_w2_enable
      01002074H   CODE     ---       _hal_w2_init_transfer
      010022EBH   CODE     ---       _hal_w2_irq_adr_match_enable
      010022E0H   CODE     ---       _hal_w2_irq_stop_cond_enable
      01001C95H   CODE     ---       _hal_w2_read
      010022CAH   CODE     ---       _hal_w2_respond_to_gen_adr
      01002218H   CODE     ---       _hal_w2_set_clk_freq
      010022F6H   CODE     ---       _hal_w2_set_op_mode
      010023F5H   CODE     ---       _hal_w2_set_slave_address
      01001D4CH   CODE     ---       _hal_w2_write
      01001E98H   CODE     ---       _i2c_mpu_readBit
      01001B01H   CODE     ---       _i2c_mpu_readBits
      01002086H   CODE     ---       _i2c_mpu_readByte
      01001AA4H   CODE     ---       _i2c_mpu_readBytes
      01001C02H   CODE     ---       _i2c_mpu_writeBit
      01001A41H   CODE     ---       _i2c_mpu_writeBits
      010020CBH   CODE     ---       _i2c_mpu_writeByte
      01001D12H   CODE     ---       _i2c_mpu_writeBytes
      0100203DH   CODE     ---       _i2c_mpu_writeWord
      01001B59H   CODE     ---       _i2c_mpu_writeWords
      0100000EH   CODE     ---       _init_mempool
      010016D2H   CODE     ---       _malloc
      01001F1CH   CODE     ---       _putstring
      01001579H   CODE     ---       _readMemoryBlock
      0100187FH   CODE     ---       _realloc
      01001DB9H   CODE     ---       _send_packet_from_host_to_computer
      01001D84H   CODE     ---       _send_packet_to_computer
      01001BAFH   CODE     ---       _send_packet_to_host
      0100211CH   CODE     ---       _setClockSource
      010021C4H   CODE     ---       _setDLPFMode
      0100239FH   CODE     ---       _setDMPConfig1
      010023A8H   CODE     ---       _setDMPConfig2
      010022A9H   CODE     ---       _setDMPEnabled
      010021B6H   CODE     ---       _setExternalFrameSync
      010022BFH   CODE     ---       _setFIFOEnabled
      01002138H   CODE     ---       _setFullScaleAccelRange
      0100212AH   CODE     ---       _setFullScaleGyroRange
      010022B4H   CODE     ---       _setI2CMasterModeEnabled
      0100238DH   CODE     ---       _setIntEnabled
      01001F70H   CODE     ---       _setMemoryBank
      01002384H   CODE     ---       _setMemoryStartAddress
      010023C3H   CODE     ---       _setMotionDetectionDuration
      010023B1H   CODE     ---       _setMotionDetectionThreshold
      0100233FH   CODE     ---       _setOTPBankValid
      01002396H   CODE     ---       _setRate
      01001FA5H   CODE     ---       _setSlaveAddress
      01002288H   CODE     ---       _setSleepEnabled
      010023D5H   CODE     ---       _setXAccelOffset
      010023EDH   CODE     ---       _setXGyroOffset
LX51 LINKER/LOCATER V4.66.62.0                                                        12/09/2016  09:53:08  PAGE 13


      01002349H   CODE     ---       _setXGyroOffsetTC
      010023DDH   CODE     ---       _setYAccelOffset
      01002293H   CODE     ---       _setYGyroOffset
      01002353H   CODE     ---       _setYGyroOffsetTC
      010023E5H   CODE     ---       _setZAccelOffset
      010023CCH   CODE     ---       _setZeroMotionDetectionDuration
      010023BAH   CODE     ---       _setZeroMotionDetectionThreshold
      0100229EH   CODE     ---       _setZGyroOffset
      0100235DH   CODE     ---       _setZGyroOffsetTC
      01002234H   CODE     ---       _SPI_Read
      01001E46H   CODE     ---       _SPI_Read_Buf
      01002317H   CODE     ---       _SPI_RW
      01002017H   CODE     ---       _SPI_RW_Reg
      01001EFDH   CODE     ---       _SPI_Write_Buf
      01001DEEH   CODE     ---       _TX_Mode_NOACK
      010020A1H   CODE     ---       _uart_putchar
      01000F25H   CODE     ---       _writeDMPConfigurationSet
      01000D81H   CODE     ---       _writeMemoryBlock
      01002335H   CODE     ---       _writeProgDMPConfigurationSet
      01001EDDH   CODE     ---       _writeProgMemoryBlock
*SFR* 000000D0H.6 DATA     BIT       AC
*SFR* 000000E0H   DATA     BYTE      ACC
*SFR* 000000D3H   DATA     BYTE      ADCCON1
*SFR* 000000D2H   DATA     BYTE      ADCCON2
*SFR* 000000D1H   DATA     BYTE      ADCCON3
*SFR* 000000D4H   DATA     BYTE      ADCDATH
*SFR* 000000D5H   DATA     BYTE      ADCDATL
*SFR* 000000D8H   DATA     BYTE      ADCON
      01002778H   CONST    ---       ADDR_HOST
*SFR* 000000EFH   DATA     BYTE      ARCON
*SFR* 000000F0H   DATA     BYTE      B
*SFR* 000000D8H.7 DATA     BIT       BD
      020002A7H   XDATA    ---       buffer
*SFR* 000000C2H   DATA     WORD      CC1
*SFR* 000000C4H   DATA     WORD      CC2
*SFR* 000000C6H   DATA     WORD      CC3
*SFR* 000000C1H   DATA     BYTE      CCEN
*SFR* 000000C3H   DATA     BYTE      CCH1
*SFR* 000000C5H   DATA     BYTE      CCH2
*SFR* 000000C7H   DATA     BYTE      CCH3
*SFR* 000000C2H   DATA     BYTE      CCL1
*SFR* 000000C4H   DATA     BYTE      CCL2
*SFR* 000000C6H   DATA     BYTE      CCL3
*SFR* 000000DDH   DATA     BYTE      CCPDATIA
*SFR* 000000DEH   DATA     BYTE      CCPDATIB
*SFR* 000000DFH   DATA     BYTE      CCPDATO
*SFR* 000000A3H   DATA     BYTE      CLKCTRL
*SFR* 000000ADH   DATA     BYTE      CLKLFCTRL
*SFR* 000000DBH   DATA     BYTE      COMPCON
      010013CAH   CODE     ---       configura_dmp
*SFR* 000000CAH   DATA     WORD      CRC
*SFR* 000000CBH   DATA     BYTE      CRCH
*SFR* 000000CAH   DATA     BYTE      CRCL
*SFR* 000000D0H.7 DATA     BIT       CY
      00000050H   DATA     BYTE      data_ready
      0200028FH   XDATA    BYTE      devStatus
      01002F06H   CONST    ---       dmpConfig
      0100237BH   CODE     ---       dmpGetFIFOPacketSize
      01000056H   CODE     ---       dmpInitialize
      0100277DH   CONST    ---       dmpMemory
      020002A5H   XDATA    ---       dmpPacketBuffer
      0200028DH   XDATA    WORD      dmpPacketSize
      0000001FH   DATA     BYTE      dmpReady
      01002FC6H   CONST    ---       dmpUpdates
*SFR* 00000083H   DATA     BYTE      DPH
LX51 LINKER/LOCATER V4.66.62.0                                                        12/09/2016  09:53:08  PAGE 14


*SFR* 00000085H   DATA     BYTE      DPH1
*SFR* 00000082H   DATA     BYTE      DPL
*SFR* 00000084H   DATA     BYTE      DPL1
*SFR* 00000092H   DATA     BYTE      DPS
*SFR* 000000A8H.7 DATA     BIT       EA
*SFR* 000000A8H.4 DATA     BIT       ES0
*SFR* 000000A8H.1 DATA     BIT       ET0
*SFR* 000000A8H.3 DATA     BIT       ET1
*SFR* 000000A8H.5 DATA     BIT       ET2
*SFR* 000000A8H   DATA     BIT       EX0
*SFR* 000000A8H.2 DATA     BIT       EX1
*SFR* 000000B8H.7 DATA     BIT       EXEN2
*SFR* 000000C0H.7 DATA     BIT       EXF2
      01000006H   CODE     ---       ext0_irq
*SFR* 000000D0H.5 DATA     BIT       F0
*SFR* 000000FAH   DATA     BYTE      FCR
*SFR* 000000FBH   DATA     BYTE      FDCR
      02000000H   XDATA    ---       fifoBuffer
      0200028BH   XDATA    WORD      fifoCount
*SFR* 000000F9H   DATA     BYTE      FPCR
*SFR* 000000F8H   DATA     BYTE      FSR
      010021D2H   CODE     ---       getDMPConfig1
      010021E0H   CODE     ---       getDMPConfig2
      0100219AH   CODE     ---       getFIFOCount
      01002050H   CODE     ---       getFIFOEnabled
      010021A8H   CODE     ---       getIntStatus
      0100220AH   CODE     ---       getMotionDetectionDuration
      010021EEH   CODE     ---       getMotionDetectionThreshold
      010020BAH   CODE     ---       getOTPBankValid
      01002146H   CODE     ---       getXAccelOffset
      01002170H   CODE     ---       getXGyroOffset
      010020ECH   CODE     ---       getXGyroOffsetTC
      01002154H   CODE     ---       getYAccelOffset
      0100217EH   CODE     ---       getYGyroOffset
      010020FCH   CODE     ---       getYGyroOffsetTC
      01002162H   CODE     ---       getZAccelOffset
      0100202AH   CODE     ---       getZeroMotionDetectionDuration
      010021FCH   CODE     ---       getZeroMotionDetectionThreshold
      0100218CH   CODE     ---       getZGyroOffset
      0100210CH   CODE     ---       getZGyroOffsetTC
      010018F7H   CODE     ---       hal_w2_soft_reset
      01001E71H   CODE     ---       hal_w2_wait_data_ready
      01002367H   CODE     ---       hal_w2_wait_data_ready_ISR
      01001CD7H   CODE     ---       I2C_IRQ
      01002371H   CODE     ---       I2C_IRQ_handler
      01002259H   CODE     ---       i2c_mpu_reset
*SFR* 000000C8H.5 DATA     BIT       I2FR
*SFR* 000000C8H.6 DATA     BIT       I3FR
*SFR* 00000088H.1 DATA     BIT       IE0
*SFR* 00000088H.3 DATA     BIT       IE1
*SFR* 000000A8H   DATA     BYTE      IEN0
*SFR* 000000B8H   DATA     BYTE      IEN1
*SFR* 000000F8H.3 DATA     BIT       INFEN
      01002062H   CODE     ---       iniciarIO
      01002241H   CODE     ---       iniciarRF
*SFR* 000000A6H   DATA     BYTE      INTEXP
*SFR* 000000A9H   DATA     BYTE      IP0
*SFR* 000000B9H   DATA     BYTE      IP1
*SFR* 000000C0H   DATA     BYTE      IRCON
*SFR* 00000088H   DATA     BIT       IT0
*SFR* 00000088H.2 DATA     BIT       IT1
*SFR* 00000080H.3 DATA     BIT       LED
      010010B4H   CODE     ---       ler_dmp
      01001F38H   CODE     ---       luzes_iniciais
      010019DCH   CODE     ---       main
LX51 LINKER/LOCATER V4.66.62.0                                                        12/09/2016  09:53:08  PAGE 15


      02000081H   XDATA    ---       malloc_memory_pool
      00000020H.4 DATA     BIT       MAX_RT
*SFR* 000000F8H.7 DATA     BIT       MCDIS
*SFR* 000000E9H   DATA     BYTE      MD0
*SFR* 000000EAH   DATA     BYTE      MD1
*SFR* 000000EBH   DATA     BYTE      MD2
*SFR* 000000ECH   DATA     BYTE      MD3
*SFR* 000000EDH   DATA     BYTE      MD4
*SFR* 000000EEH   DATA     BYTE      MD5
*SFR* 000000A7H   DATA     BYTE      MEMCON
*SFR* 000000B8H.4 DATA     BIT       MISC
*SFR* 000000C0H.4 DATA     BIT       MISCF
*SFR* 000000C9H   DATA     BYTE      MPAGE
      0100227DH   CODE     ---       mpu_8051_malloc_setup
      01001FEFH   CODE     ---       mpu_initialize
      01001FD9H   CODE     ---       mpu_testConnection
      0000001EH   DATA     BYTE      mpuInterrupt
      02000040H   XDATA    BYTE      mpuIntStatus
      00000021H.0 BIT      BIT       newPayload
*SFR* 000000AEH   DATA     BYTE      OPMCON
*SFR* 000000D0H.2 DATA     BIT       OV
*SFR* 000000D0H   DATA     BIT       P
*SFR* 00000080H   DATA     BYTE      P0
*SFR* 00000080H   DATA     BIT       P00
*SFR* 00000080H.1 DATA     BIT       P01
*SFR* 00000080H.2 DATA     BIT       P02
*SFR* 00000080H.3 DATA     BIT       P03
*SFR* 00000080H.4 DATA     BIT       P04
*SFR* 00000080H.5 DATA     BIT       P05
*SFR* 00000080H.6 DATA     BIT       P06
*SFR* 00000080H.7 DATA     BIT       P07
*SFR* 0000009EH   DATA     BYTE      P0CON
*SFR* 00000093H   DATA     BYTE      P0DIR
*SFR* 00000090H   DATA     BYTE      P1
*SFR* 00000090H   DATA     BIT       P10
*SFR* 00000090H.1 DATA     BIT       P11
*SFR* 00000090H.2 DATA     BIT       P12
*SFR* 00000090H.3 DATA     BIT       P13
*SFR* 00000090H.4 DATA     BIT       P14
*SFR* 00000090H.5 DATA     BIT       P15
*SFR* 00000090H.6 DATA     BIT       P16
*SFR* 00000090H.7 DATA     BIT       P17
*SFR* 0000009FH   DATA     BYTE      P1CON
*SFR* 00000094H   DATA     BYTE      P1DIR
*SFR* 000000A0H   DATA     BYTE      P2
*SFR* 000000A0H   DATA     BIT       P20
*SFR* 000000A0H.1 DATA     BIT       P21
*SFR* 000000A0H.2 DATA     BIT       P22
*SFR* 000000A0H.3 DATA     BIT       P23
*SFR* 000000A0H.4 DATA     BIT       P24
*SFR* 000000A0H.5 DATA     BIT       P25
*SFR* 000000A0H.6 DATA     BIT       P26
*SFR* 000000A0H.7 DATA     BIT       P27
*SFR* 00000097H   DATA     BYTE      P2CON
*SFR* 00000095H   DATA     BYTE      P2DIR
*SFR* 000000B0H   DATA     BYTE      P3
*SFR* 000000B0H   DATA     BIT       P30
*SFR* 000000B0H.1 DATA     BIT       P31
*SFR* 000000B0H.2 DATA     BIT       P32
*SFR* 000000B0H.3 DATA     BIT       P33
*SFR* 000000B0H.4 DATA     BIT       P34
*SFR* 000000B0H.5 DATA     BIT       P35
*SFR* 000000B0H.6 DATA     BIT       P36
*SFR* 000000B0H.7 DATA     BIT       P37
*SFR* 0000008FH   DATA     BYTE      P3CON
LX51 LINKER/LOCATER V4.66.62.0                                                        12/09/2016  09:53:08  PAGE 16


*SFR* 00000096H   DATA     BYTE      P3DIR
      02000291H   XDATA    ---       packet_16bits
      0200027FH   XDATA    ---       packet_motion6
      02000277H   XDATA    ---       packet_quat
      02000275H   XDATA    WORD      packetSize
      02000290H   XDATA    BYTE      payloadWidth
*SFR* 00000087H   DATA     BYTE      PCON
*SFR* 000000DCH   DATA     BYTE      POFCON
*SFR* 000000D0H   DATA     BYTE      PSW
*SFR* 000000B2H   DATA     BYTE      PWMCON
*SFR* 000000A1H   DATA     BYTE      PWMDC0
*SFR* 000000A2H   DATA     BYTE      PWMDC1
*SFR* 000000A4H   DATA     BYTE      PWRDWN
*SFR* 00000098H.2 DATA     BIT       RB80
*SFR* 000000F8H.1 DATA     BIT       RDEND
*SFR* 000000F8H.2 DATA     BIT       RDIS
*SFR* 000000F8H.4 DATA     BIT       RDYN
*SFR* 00000098H.4 DATA     BIT       REN0
      01002271H   CODE     ---       resetDMP
      0100224DH   CODE     ---       resetFIFO
      01002265H   CODE     ---       resetI2CMaster
*SFR* 000000B8H.1 DATA     BIT       RF
      01001C50H   CODE     ---       rf_init
      010017FAH   CODE     ---       RF_IRQ
*SFR* 000000E8H   DATA     BIT       RFCE
*SFR* 000000E8H.2 DATA     BIT       RFCKEN
*SFR* 000000E8H   DATA     BYTE      RFCON
*SFR* 000000E8H.1 DATA     BIT       RFCSN
*SFR* 000000C0H.1 DATA     BIT       RFF
*SFR* 000000B8H   DATA     BIT       RFSPI
*SFR* 000000C0H   DATA     BIT       RFSPIF
*SFR* 00000098H   DATA     BIT       RI0
*SFR* 000000D6H   DATA     BYTE      RNGCTL
*SFR* 000000D7H   DATA     BYTE      RNGDAT
*SFR* 000000D0H.3 DATA     BIT       RS0
*SFR* 000000D0H.4 DATA     BIT       RS1
*SFR* 000000B1H   DATA     BYTE      RSTREAS
*SFR* 000000B4H   DATA     BYTE      RTC2CMP0
*SFR* 000000B5H   DATA     BYTE      RTC2CMP1
*SFR* 000000B3H   DATA     BYTE      RTC2CON
*SFR* 000000B6H   DATA     BYTE      RTC2CPT00
*SFR* 000000ABH   DATA     BYTE      RTC2CPT01
*SFR* 000000ACH   DATA     BYTE      RTC2CPT10
      02000041H   XDATA    ---       rx_buf
      00000020H.6 DATA     BIT       RX_DR
      010020A9H   CODE     ---       RX_Mode
*SFR* 00000099H   DATA     BYTE      S0BUF
*SFR* 00000098H   DATA     BYTE      S0CON
*SFR* 000000BAH   DATA     BYTE      S0RELH
*SFR* 000000AAH   DATA     BYTE      S0RELL
      010014B1H   CODE     ---       setup
*SFR* 00000098H.7 DATA     BIT       SM0
*SFR* 00000098H.6 DATA     BIT       SM1
*SFR* 00000098H.5 DATA     BIT       SM20
*SFR* 00000081H   DATA     BYTE      SP
*SFR* 000000B8H.2 DATA     BIT       SPI
*SFR* 000000C0H.2 DATA     BIT       SPIF
*SFR* 000000FCH   DATA     BYTE      SPIMCON0
*SFR* 000000FDH   DATA     BYTE      SPIMCON1
*SFR* 000000FFH   DATA     BYTE      SPIMDAT
*SFR* 000000FEH   DATA     BYTE      SPIMSTAT
*SFR* 000000E4H   DATA     BYTE      SPIRCON0
*SFR* 000000E5H   DATA     BYTE      SPIRCON1
*SFR* 000000E7H   DATA     BYTE      SPIRDAT
*SFR* 000000E6H   DATA     BYTE      SPIRSTAT
LX51 LINKER/LOCATER V4.66.62.0                                                        12/09/2016  09:53:08  PAGE 17


*SFR* 000000BCH   DATA     BYTE      SPISCON0
*SFR* 000000BDH   DATA     BYTE      SPISCON1
*SFR* 000000BFH   DATA     BYTE      SPISDAT
*SFR* 000000B7H   DATA     BYTE      SPISRDSZ
*SFR* 000000BEH   DATA     BYTE      SPISSTAT
      00000020H   DATA     BYTE      sta
      01002321H   CODE     ---       start_T0
      0100232BH   CODE     ---       stop_T0
*SFR* 000000F8H.6 DATA     BIT       STP
*SFR* 000000CCH   DATA     WORD      T2
*SFR* 000000C8H.2 DATA     BIT       T2CM
*SFR* 000000C8H   DATA     BYTE      T2CON
*SFR* 000000C8H   DATA     BIT       T2I0
*SFR* 000000C8H.1 DATA     BIT       T2I1
*SFR* 000000C8H.7 DATA     BIT       T2PS
*SFR* 000000C8H.3 DATA     BIT       T2R0
*SFR* 000000C8H.4 DATA     BIT       T2R1
*SFR* 00000098H.3 DATA     BIT       TB80
*SFR* 00000088H   DATA     BYTE      TCON
*SFR* 00000088H.5 DATA     BIT       TF0
*SFR* 00000088H.7 DATA     BIT       TF1
*SFR* 000000C0H.6 DATA     BIT       TF2
*SFR* 0000008CH   DATA     BYTE      TH0
*SFR* 0000008DH   DATA     BYTE      TH1
*SFR* 000000CDH   DATA     BYTE      TH2
*SFR* 00000098H.1 DATA     BIT       TI0
      0000001CH   DATA     INT       timer_flag
*SFR* 0000008AH   DATA     BYTE      TL0
*SFR* 0000008BH   DATA     BYTE      TL1
*SFR* 000000CCH   DATA     BYTE      TL2
*SFR* 00000089H   DATA     BYTE      TMOD
      010020DCH   CODE     ---       TMR0_IRQ
*SFR* 00000088H.4 DATA     BIT       TR0
*SFR* 00000088H.6 DATA     BIT       TR1
      02000061H   XDATA    ---       tx_buf
      00000020H.5 DATA     BIT       TX_DS
      01001F8BH   CODE     ---       uart_init
      00000051H   DATA     BYTE      w2_status
*SFR* 000000E2H   DATA     BYTE      W2CON0
*SFR* 000000E1H   DATA     BYTE      W2CON1
*SFR* 000000DAH   DATA     BYTE      W2DAT
*SFR* 000000D9H   DATA     BYTE      W2SADR
*SFR* 000000AFH   DATA     BYTE      WDSV
*SFR* 000000F8H.5 DATA     BIT       WEN
*SFR* 000000F8H   DATA     BIT       WPEN
*SFR* 000000A5H   DATA     BYTE      WUCON
*SFR* 000000C0H.5 DATA     BIT       WUF
*SFR* 000000B8H.5 DATA     BIT       WUIRQ
*SFR* 000000CFH   DATA     BYTE      WUOPC0
*SFR* 000000CEH   DATA     BYTE      WUOPC1
*SFR* 000000B8H.3 DATA     BIT       WUPIN
*SFR* 000000C0H.3 DATA     BIT       WUPINF



SYMBOL TABLE OF MODULE:  FProject (?C_STARTUP)

      VALUE       REP       CLASS    TYPE      SYMBOL NAME
      ====================================================
      ---         MODULE    ---      ---       ?C_STARTUP
      01000000H   PUBLIC    CODE     ---       ?C_STARTUP
      000000E0H   SYMBOL    DATA     ---       ACC
      000000F0H   SYMBOL    DATA     ---       B
      00000083H   SYMBOL    DATA     ---       DPH
      00000082H   SYMBOL    DATA     ---       DPL
LX51 LINKER/LOCATER V4.66.62.0                                                        12/09/2016  09:53:08  PAGE 18


      00000000H   SYMBOL    NUMBER   ---       IBPSTACK
      00000100H   SYMBOL    NUMBER   ---       IBPSTACKTOP
      00000080H   SYMBOL    NUMBER   ---       IDATALEN
      01001771H   SYMBOL    CODE     ---       IDATALOOP
      00000000H   SYMBOL    NUMBER   ---       PBPSTACK
      00000100H   SYMBOL    NUMBER   ---       PBPSTACKTOP
      00000000H   SYMBOL    NUMBER   ---       PDATALEN
      00000000H   SYMBOL    NUMBER   ---       PDATASTART
      00000000H   SYMBOL    NUMBER   ---       PPAGE
      00000000H   SYMBOL    NUMBER   ---       PPAGEENABLE
      000000A0H   SYMBOL    DATA     ---       PPAGE_SFR
      00000081H   SYMBOL    DATA     ---       SP
      0100176EH   SYMBOL    CODE     ---       STARTUP1
      00000000H   SYMBOL    NUMBER   ---       XBPSTACK
      00000000H   SYMBOL    NUMBER   ---       XBPSTACKTOP
      00000000H   SYMBOL    NUMBER   ---       XDATALEN
      00000000H   SYMBOL    NUMBER   ---       XDATASTART
      01000000H   LINE      CODE     ---       #126
      0100176EH   LINE      CODE     ---       #133
      01001770H   LINE      CODE     ---       #134
      01001771H   LINE      CODE     ---       #135
      01001772H   LINE      CODE     ---       #136
      01001774H   LINE      CODE     ---       #185
      01001777H   LINE      CODE     ---       #196

      ---         MODULE    ---      ---       MAIN
      020002A7H   PUBLIC    XDATA    ---       buffer
      020002A5H   PUBLIC    XDATA    ---       dmpPacketBuffer
      02000291H   PUBLIC    XDATA    ---       packet_16bits
      02000290H   PUBLIC    XDATA    BYTE      payloadWidth
      00000020H.4 PUBLIC    DATA     BIT       MAX_RT
      0200028FH   PUBLIC    XDATA    BYTE      devStatus
      0200028DH   PUBLIC    XDATA    WORD      dmpPacketSize
      0000001FH   PUBLIC    DATA     BYTE      dmpReady
      0200028BH   PUBLIC    XDATA    WORD      fifoCount
      0200027FH   PUBLIC    XDATA    ---       packet_motion6
      0000001EH   PUBLIC    DATA     BYTE      mpuInterrupt
      00000020H.5 PUBLIC    DATA     BIT       TX_DS
      00000020H.6 PUBLIC    DATA     BIT       RX_DR
      00000020H   PUBLIC    DATA     BYTE      sta
      0000001CH   PUBLIC    DATA     INT       timer_flag
      00000021H.0 PUBLIC    BIT      BIT       newPayload
      02000277H   PUBLIC    XDATA    ---       packet_quat
      02000275H   PUBLIC    XDATA    WORD      packetSize
      02000081H   PUBLIC    XDATA    ---       malloc_memory_pool
      02000061H   PUBLIC    XDATA    ---       tx_buf
      02000041H   PUBLIC    XDATA    ---       rx_buf
      02000040H   PUBLIC    XDATA    BYTE      mpuIntStatus
      02000000H   PUBLIC    XDATA    ---       fifoBuffer
      01002FC6H   PUBLIC    CONST    ---       dmpUpdates
      01002F06H   PUBLIC    CONST    ---       dmpConfig
      0100277DH   PUBLIC    CONST    ---       dmpMemory
      01002778H   PUBLIC    CONST    ---       ADDR_HOST
      01001CD7H   PUBLIC    CODE     ---       I2C_IRQ
      010019DCH   PUBLIC    CODE     ---       main
      010010B4H   PUBLIC    CODE     ---       ler_dmp
      010014B1H   PUBLIC    CODE     ---       setup
      010013CAH   PUBLIC    CODE     ---       configura_dmp
      01002062H   PUBLIC    CODE     ---       iniciarIO
      01001F38H   PUBLIC    CODE     ---       luzes_iniciais
      01000006H   PUBLIC    CODE     ---       ext0_irq
      020002B5H   PUBLIC    XDATA    BYTE      ?_dmpGetPacket16bits?BYTE
      010012CCH   PUBLIC    CODE     ---       _dmpGetPacket16bits
      0200037AH   PUBLIC    XDATA    BYTE      ?_dmpGetQuaternion_int16?BYTE
      0100196AH   PUBLIC    CODE     ---       _dmpGetQuaternion_int16
LX51 LINKER/LOCATER V4.66.62.0                                                        12/09/2016  09:53:08  PAGE 19


      01000056H   PUBLIC    CODE     ---       dmpInitialize
      01002271H   PUBLIC    CODE     ---       resetDMP
      010022BFH   PUBLIC    CODE     ---       _setFIFOEnabled
      01002050H   PUBLIC    CODE     ---       getFIFOEnabled
      010023CCH   PUBLIC    CODE     ---       _setZeroMotionDetectionDuration
      0100202AH   PUBLIC    CODE     ---       getZeroMotionDetectionDuration
      010023C3H   PUBLIC    CODE     ---       _setMotionDetectionDuration
      0100220AH   PUBLIC    CODE     ---       getMotionDetectionDuration
      010023BAH   PUBLIC    CODE     ---       _setZeroMotionDetectionThreshold
      010021FCH   PUBLIC    CODE     ---       getZeroMotionDetectionThreshold
      010023B1H   PUBLIC    CODE     ---       _setMotionDetectionThreshold
      010021EEH   PUBLIC    CODE     ---       getMotionDetectionThreshold
      0100235DH   PUBLIC    CODE     ---       _setZGyroOffsetTC
      0100210CH   PUBLIC    CODE     ---       getZGyroOffsetTC
      01002353H   PUBLIC    CODE     ---       _setYGyroOffsetTC
      010020FCH   PUBLIC    CODE     ---       getYGyroOffsetTC
      01002349H   PUBLIC    CODE     ---       _setXGyroOffsetTC
      010020ECH   PUBLIC    CODE     ---       getXGyroOffsetTC
      0100233FH   PUBLIC    CODE     ---       _setOTPBankValid
      010020BAH   PUBLIC    CODE     ---       getOTPBankValid
      010023A8H   PUBLIC    CODE     ---       _setDMPConfig2
      010021E0H   PUBLIC    CODE     ---       getDMPConfig2
      0100239FH   PUBLIC    CODE     ---       _setDMPConfig1
      010021D2H   PUBLIC    CODE     ---       getDMPConfig1
      010021C4H   PUBLIC    CODE     ---       _setDLPFMode
      010021B6H   PUBLIC    CODE     ---       _setExternalFrameSync
      01002396H   PUBLIC    CODE     ---       _setRate
      0100238DH   PUBLIC    CODE     ---       _setIntEnabled
      01002265H   PUBLIC    CODE     ---       resetI2CMaster
      010022B4H   PUBLIC    CODE     ---       _setI2CMasterModeEnabled
      01001FA5H   PUBLIC    CODE     ---       _setSlaveAddress
      01002259H   PUBLIC    CODE     ---       i2c_mpu_reset
      02000350H   PUBLIC    XDATA    BYTE      ?_writeProgMemoryBlock?BYTE
      01001EDDH   PUBLIC    CODE     ---       _writeProgMemoryBlock
      01002335H   PUBLIC    CODE     ---       _writeProgDMPConfigurationSet
      02000350H   PUBLIC    XDATA    BYTE      ?_readMemoryBlock?BYTE
      01001579H   PUBLIC    CODE     ---       _readMemoryBlock
      02000350H   PUBLIC    XDATA    BYTE      ?_writeDMPConfigurationSet?BYTE
      01000F25H   PUBLIC    CODE     ---       _writeDMPConfigurationSet
      02000360H   PUBLIC    XDATA    BYTE      ?_writeMemoryBlock?BYTE
      01000D81H   PUBLIC    CODE     ---       _writeMemoryBlock
      01002384H   PUBLIC    CODE     ---       _setMemoryStartAddress
      01001E1AH   PUBLIC    CODE     ---       _getFIFOBytes
      0100237BH   PUBLIC    CODE     ---       dmpGetFIFOPacketSize
      0100224DH   PUBLIC    CODE     ---       resetFIFO
      010022A9H   PUBLIC    CODE     ---       _setDMPEnabled
      010021A8H   PUBLIC    CODE     ---       getIntStatus
      0100219AH   PUBLIC    CODE     ---       getFIFOCount
      01001F70H   PUBLIC    CODE     ---       _setMemoryBank
      0100218CH   PUBLIC    CODE     ---       getZGyroOffset
      0100217EH   PUBLIC    CODE     ---       getYGyroOffset
      01002170H   PUBLIC    CODE     ---       getXGyroOffset
      01002162H   PUBLIC    CODE     ---       getZAccelOffset
      01002154H   PUBLIC    CODE     ---       getYAccelOffset
      01002146H   PUBLIC    CODE     ---       getXAccelOffset
      0100229EH   PUBLIC    CODE     ---       _setZGyroOffset
      01002293H   PUBLIC    CODE     ---       _setYGyroOffset
      010023EDH   PUBLIC    CODE     ---       _setXGyroOffset
      010023E5H   PUBLIC    CODE     ---       _setZAccelOffset
      010023DDH   PUBLIC    CODE     ---       _setYAccelOffset
      010023D5H   PUBLIC    CODE     ---       _setXAccelOffset
      01001634H   PUBLIC    CODE     ---       _getMotion6_packet
      01001FD9H   PUBLIC    CODE     ---       mpu_testConnection
      01001FEFH   PUBLIC    CODE     ---       mpu_initialize
      01002288H   PUBLIC    CODE     ---       _setSleepEnabled
LX51 LINKER/LOCATER V4.66.62.0                                                        12/09/2016  09:53:08  PAGE 20


      01002138H   PUBLIC    CODE     ---       _setFullScaleAccelRange
      0100212AH   PUBLIC    CODE     ---       _setFullScaleGyroRange
      0100211CH   PUBLIC    CODE     ---       _setClockSource
      0100227DH   PUBLIC    CODE     ---       mpu_8051_malloc_setup
      0100232BH   PUBLIC    CODE     ---       stop_T0
      01002321H   PUBLIC    CODE     ---       start_T0
      010020DCH   PUBLIC    CODE     ---       TMR0_IRQ
      00000048H   PUBLIC    DATA     BYTE      ?_send_packet_from_host_to_computer?BYTE
      01001DB9H   PUBLIC    CODE     ---       _send_packet_from_host_to_computer
      00000043H   PUBLIC    DATA     BYTE      ?_send_packet_to_computer?BYTE
      01001D84H   PUBLIC    CODE     ---       _send_packet_to_computer
      00000022H   PUBLIC    DATA     BYTE      ?_send_packet_to_host?BYTE
      01001BAFH   PUBLIC    CODE     ---       _send_packet_to_host
      01002241H   PUBLIC    CODE     ---       iniciarRF
      01001C50H   PUBLIC    CODE     ---       rf_init
      010017FAH   PUBLIC    CODE     ---       RF_IRQ
      01001DEEH   PUBLIC    CODE     ---       _TX_Mode_NOACK
      010020A9H   PUBLIC    CODE     ---       RX_Mode
      00000029H   PUBLIC    DATA     BYTE      ?_SPI_Write_Buf?BYTE
      01001EFDH   PUBLIC    CODE     ---       _SPI_Write_Buf
      00000038H   PUBLIC    DATA     BYTE      ?_SPI_Read_Buf?BYTE
      01001E46H   PUBLIC    CODE     ---       _SPI_Read_Buf
      01002234H   PUBLIC    CODE     ---       _SPI_Read
      01002017H   PUBLIC    CODE     ---       _SPI_RW_Reg
      01002317H   PUBLIC    CODE     ---       _SPI_RW
      01001F1CH   PUBLIC    CODE     ---       _putstring
      010020A1H   PUBLIC    CODE     ---       _uart_putchar
      01001F8BH   PUBLIC    CODE     ---       uart_init
      00000098H.3 SFRSYM    DATA     BIT       TB80
      000000BEH   SFRSYM    DATA     BYTE      SPISSTAT
      000000C8H   SFRSYM    DATA     BIT       T2I0
      000000C3H   SFRSYM    DATA     BYTE      CCH1
      00000080H   SFRSYM    DATA     BYTE      P0
      000000C8H.1 SFRSYM    DATA     BIT       T2I1
      000000DFH   SFRSYM    DATA     BYTE      CCPDATO
      000000C5H   SFRSYM    DATA     BYTE      CCH2
      00000090H   SFRSYM    DATA     BYTE      P1
      000000C7H   SFRSYM    DATA     BYTE      CCH3
      000000A0H   SFRSYM    DATA     BYTE      P2
      00000098H.5 SFRSYM    DATA     BIT       SM20
      000000B0H   SFRSYM    DATA     BYTE      P3
      000000D0H.6 SFRSYM    DATA     BIT       AC
      000000C2H   SFRSYM    DATA     BYTE      CCL1
      000000C4H   SFRSYM    DATA     BYTE      CCL2
      000000D8H.7 SFRSYM    DATA     BIT       BD
      000000B8H   SFRSYM    DATA     BIT       RFSPI
      000000A8H.7 SFRSYM    DATA     BIT       EA
      000000CCH   SFRSYM    DATA     WORD      T2
      000000C6H   SFRSYM    DATA     BYTE      CCL3
      000000B7H   SFRSYM    DATA     BYTE      SPISRDSZ
      000000C8H.3 SFRSYM    DATA     BIT       T2R0
      000000C8H.4 SFRSYM    DATA     BIT       T2R1
      000000A8H   SFRSYM    DATA     BYTE      IEN0
      000000B8H   SFRSYM    DATA     BYTE      IEN1
      000000A5H   SFRSYM    DATA     BYTE      WUCON
      00000085H   SFRSYM    DATA     BYTE      DPH1
      000000DBH   SFRSYM    DATA     BYTE      COMPCON
      000000A3H   SFRSYM    DATA     BYTE      CLKCTRL
      00000084H   SFRSYM    DATA     BYTE      DPL1
      000000C8H.5 SFRSYM    DATA     BIT       I2FR
      000000B8H.3 SFRSYM    DATA     BIT       WUPIN
      000000C8H.6 SFRSYM    DATA     BIT       I3FR
      000000FFH   SFRSYM    DATA     BYTE      SPIMDAT
      000000C0H.7 SFRSYM    DATA     BIT       EXF2
      00000098H.4 SFRSYM    DATA     BIT       REN0
LX51 LINKER/LOCATER V4.66.62.0                                                        12/09/2016  09:53:08  PAGE 21


      000000C8H.2 SFRSYM    DATA     BIT       T2CM
      000000B8H.1 SFRSYM    DATA     BIT       RF
      000000B8H.5 SFRSYM    DATA     BIT       WUIRQ
      000000E7H   SFRSYM    DATA     BYTE      SPIRDAT
      000000C1H   SFRSYM    DATA     BYTE      CCEN
      000000E2H   SFRSYM    DATA     BYTE      W2CON0
      000000BFH   SFRSYM    DATA     BYTE      SPISDAT
      000000D0H.7 SFRSYM    DATA     BIT       CY
      000000E1H   SFRSYM    DATA     BYTE      W2CON1
      000000FBH   SFRSYM    DATA     BYTE      FDCR
      000000E8H   SFRSYM    DATA     BIT       RFCE
      000000CBH   SFRSYM    DATA     BYTE      CRCH
      00000081H   SFRSYM    DATA     BYTE      SP
      000000D0H.2 SFRSYM    DATA     BIT       OV
      000000CAH   SFRSYM    DATA     BYTE      CRCL
      000000ADH   SFRSYM    DATA     BYTE      CLKLFCTRL
      000000B1H   SFRSYM    DATA     BYTE      RSTREAS
      000000C8H.7 SFRSYM    DATA     BIT       T2PS
      000000F9H   SFRSYM    DATA     BYTE      FPCR
      000000B8H.4 SFRSYM    DATA     BIT       MISC
      000000A1H   SFRSYM    DATA     BYTE      PWMDC0
      000000B4H   SFRSYM    DATA     BYTE      RTC2CMP0
      000000A2H   SFRSYM    DATA     BYTE      PWMDC1
      000000B5H   SFRSYM    DATA     BYTE      RTC2CMP1
      00000080H   SFRSYM    DATA     BIT       P00
      000000BAH   SFRSYM    DATA     BYTE      S0RELH
      00000090H   SFRSYM    DATA     BIT       P10
      00000080H.1 SFRSYM    DATA     BIT       P01
      00000087H   SFRSYM    DATA     BYTE      PCON
      000000A0H   SFRSYM    DATA     BIT       P20
      00000090H.1 SFRSYM    DATA     BIT       P11
      00000080H.2 SFRSYM    DATA     BIT       P02
      000000B0H   SFRSYM    DATA     BIT       P30
      000000A0H.1 SFRSYM    DATA     BIT       P21
      00000090H.2 SFRSYM    DATA     BIT       P12
      00000080H.3 SFRSYM    DATA     BIT       P03
      000000C0H.2 SFRSYM    DATA     BIT       SPIF
      000000F8H.2 SFRSYM    DATA     BIT       RDIS
      000000B0H.1 SFRSYM    DATA     BIT       P31
      000000A0H.2 SFRSYM    DATA     BIT       P22
      00000090H.3 SFRSYM    DATA     BIT       P13
      00000080H.4 SFRSYM    DATA     BIT       P04
      000000AAH   SFRSYM    DATA     BYTE      S0RELL
      000000B0H.2 SFRSYM    DATA     BIT       P32
      000000A0H.3 SFRSYM    DATA     BIT       P23
      00000090H.4 SFRSYM    DATA     BIT       P14
      00000080H.5 SFRSYM    DATA     BIT       P05
      000000D9H   SFRSYM    DATA     BYTE      W2SADR
      00000089H   SFRSYM    DATA     BYTE      TMOD
      00000088H   SFRSYM    DATA     BYTE      TCON
      000000B0H.3 SFRSYM    DATA     BIT       P33
      000000A0H.4 SFRSYM    DATA     BIT       P24
      00000090H.5 SFRSYM    DATA     BIT       P15
      00000080H.6 SFRSYM    DATA     BIT       P06
      000000B0H.4 SFRSYM    DATA     BIT       P34
      000000A0H.5 SFRSYM    DATA     BIT       P25
      00000090H.6 SFRSYM    DATA     BIT       P16
      00000080H.7 SFRSYM    DATA     BIT       P07
      000000C2H   SFRSYM    DATA     WORD      CC1
      000000B0H.5 SFRSYM    DATA     BIT       P35
      000000A0H.6 SFRSYM    DATA     BIT       P26
      00000090H.7 SFRSYM    DATA     BIT       P17
      000000C4H   SFRSYM    DATA     WORD      CC2
      000000B0H.6 SFRSYM    DATA     BIT       P36
      000000A0H.7 SFRSYM    DATA     BIT       P27
LX51 LINKER/LOCATER V4.66.62.0                                                        12/09/2016  09:53:08  PAGE 22


      000000C6H   SFRSYM    DATA     WORD      CC3
      000000B0H.7 SFRSYM    DATA     BIT       P37
      000000E8H.2 SFRSYM    DATA     BIT       RFCKEN
      000000F8H   SFRSYM    DATA     BIT       WPEN
      000000DDH   SFRSYM    DATA     BYTE      CCPDATIA
      000000DEH   SFRSYM    DATA     BYTE      CCPDATIB
      00000088H.1 SFRSYM    DATA     BIT       IE0
      000000F8H.4 SFRSYM    DATA     BIT       RDYN
      00000088H.3 SFRSYM    DATA     BIT       IE1
      000000CFH   SFRSYM    DATA     BYTE      WUOPC0
      000000F0H   SFRSYM    DATA     BYTE      B
      000000E9H   SFRSYM    DATA     BYTE      MD0
      000000CEH   SFRSYM    DATA     BYTE      WUOPC1
      000000A7H   SFRSYM    DATA     BYTE      MEMCON
      000000EAH   SFRSYM    DATA     BYTE      MD1
      000000D7H   SFRSYM    DATA     BYTE      RNGDAT
      000000EBH   SFRSYM    DATA     BYTE      MD2
      000000ECH   SFRSYM    DATA     BYTE      MD3
      000000EDH   SFRSYM    DATA     BYTE      MD4
      000000AFH   SFRSYM    DATA     BYTE      WDSV
      000000EEH   SFRSYM    DATA     BYTE      MD5
      000000E0H   SFRSYM    DATA     BYTE      ACC
      000000DCH   SFRSYM    DATA     BYTE      POFCON
      000000A8H.4 SFRSYM    DATA     BIT       ES0
      000000A8H.1 SFRSYM    DATA     BIT       ET0
      000000A9H   SFRSYM    DATA     BYTE      IP0
      000000A8H.3 SFRSYM    DATA     BIT       ET1
      00000088H.5 SFRSYM    DATA     BIT       TF0
      000000B9H   SFRSYM    DATA     BYTE      IP1
      000000A8H.5 SFRSYM    DATA     BIT       ET2
      00000098H   SFRSYM    DATA     BIT       RI0
      00000088H.7 SFRSYM    DATA     BIT       TF1
      000000C0H   SFRSYM    DATA     BIT       RFSPIF
      000000C0H.6 SFRSYM    DATA     BIT       TF2
      000000FCH   SFRSYM    DATA     BYTE      SPIMCON0
      000000D6H   SFRSYM    DATA     BYTE      RNGCTL
      0000008CH   SFRSYM    DATA     BYTE      TH0
      000000A8H   SFRSYM    DATA     BIT       EX0
      00000098H.1 SFRSYM    DATA     BIT       TI0
      00000088H   SFRSYM    DATA     BIT       IT0
      000000FDH   SFRSYM    DATA     BYTE      SPIMCON1
      0000008DH   SFRSYM    DATA     BYTE      TH1
      000000A8H.2 SFRSYM    DATA     BIT       EX1
      00000088H.2 SFRSYM    DATA     BIT       IT1
      000000CDH   SFRSYM    DATA     BYTE      TH2
      000000AEH   SFRSYM    DATA     BYTE      OPMCON
      000000D0H   SFRSYM    DATA     BIT       P
      00000098H.7 SFRSYM    DATA     BIT       SM0
      0000008AH   SFRSYM    DATA     BYTE      TL0
      00000098H.6 SFRSYM    DATA     BIT       SM1
      000000E4H   SFRSYM    DATA     BYTE      SPIRCON0
      0000008BH   SFRSYM    DATA     BYTE      TL1
      000000E5H   SFRSYM    DATA     BYTE      SPIRCON1
      000000CCH   SFRSYM    DATA     BYTE      TL2
      000000BCH   SFRSYM    DATA     BYTE      SPISCON0
      000000BDH   SFRSYM    DATA     BYTE      SPISCON1
      00000080H.3 SFRSYM    DATA     BIT       LED
      000000D0H.3 SFRSYM    DATA     BIT       RS0
      00000088H.4 SFRSYM    DATA     BIT       TR0
      000000D0H.4 SFRSYM    DATA     BIT       RS1
      000000B2H   SFRSYM    DATA     BYTE      PWMCON
      00000088H.6 SFRSYM    DATA     BIT       TR1
      000000CAH   SFRSYM    DATA     WORD      CRC
      000000A6H   SFRSYM    DATA     BYTE      INTEXP
      000000C0H.3 SFRSYM    DATA     BIT       WUPINF
LX51 LINKER/LOCATER V4.66.62.0                                                        12/09/2016  09:53:08  PAGE 23


      000000FAH   SFRSYM    DATA     BYTE      FCR
      000000D3H   SFRSYM    DATA     BYTE      ADCCON1
      000000D2H   SFRSYM    DATA     BYTE      ADCCON2
      00000083H   SFRSYM    DATA     BYTE      DPH
      000000D1H   SFRSYM    DATA     BYTE      ADCCON3
      000000C0H.1 SFRSYM    DATA     BIT       RFF
      00000093H   SFRSYM    DATA     BYTE      P0DIR
      00000082H   SFRSYM    DATA     BYTE      DPL
      0000009EH   SFRSYM    DATA     BYTE      P0CON
      00000099H   SFRSYM    DATA     BYTE      S0BUF
      00000094H   SFRSYM    DATA     BYTE      P1DIR
      0000009FH   SFRSYM    DATA     BYTE      P1CON
      00000095H   SFRSYM    DATA     BYTE      P2DIR
      000000B8H.7 SFRSYM    DATA     BIT       EXEN2
      000000DAH   SFRSYM    DATA     BYTE      W2DAT
      00000097H   SFRSYM    DATA     BYTE      P2CON
      00000096H   SFRSYM    DATA     BYTE      P3DIR
      000000A4H   SFRSYM    DATA     BYTE      PWRDWN
      00000098H   SFRSYM    DATA     BYTE      S0CON
      0000008FH   SFRSYM    DATA     BYTE      P3CON
      000000B6H   SFRSYM    DATA     BYTE      RTC2CPT00
      000000D8H   SFRSYM    DATA     BYTE      ADCON
      000000ACH   SFRSYM    DATA     BYTE      RTC2CPT10
      000000ABH   SFRSYM    DATA     BYTE      RTC2CPT01
      000000C8H   SFRSYM    DATA     BYTE      T2CON
      00000092H   SFRSYM    DATA     BYTE      DPS
      000000F8H.5 SFRSYM    DATA     BIT       WEN
      000000F8H   SFRSYM    DATA     BYTE      FSR
      000000D4H   SFRSYM    DATA     BYTE      ADCDATH
      000000C9H   SFRSYM    DATA     BYTE      MPAGE
      000000B8H.2 SFRSYM    DATA     BIT       SPI
      000000F8H.1 SFRSYM    DATA     BIT       RDEND
      000000D5H   SFRSYM    DATA     BYTE      ADCDATL
      000000F8H.3 SFRSYM    DATA     BIT       INFEN
      000000F8H.7 SFRSYM    DATA     BIT       MCDIS
      000000C0H.5 SFRSYM    DATA     BIT       WUF
      000000C0H.4 SFRSYM    DATA     BIT       MISCF
      000000EFH   SFRSYM    DATA     BYTE      ARCON
      000000D0H.5 SFRSYM    DATA     BIT       F0
      000000F8H.6 SFRSYM    DATA     BIT       STP
      000000FEH   SFRSYM    DATA     BYTE      SPIMSTAT
      000000E8H   SFRSYM    DATA     BYTE      RFCON
      000000D0H   SFRSYM    DATA     BYTE      PSW
      00000098H.2 SFRSYM    DATA     BIT       RB80
      000000C0H   SFRSYM    DATA     BYTE      IRCON
      000000E8H.1 SFRSYM    DATA     BIT       RFCSN
      000000E6H   SFRSYM    DATA     BYTE      SPIRSTAT
      000000B3H   SFRSYM    DATA     BYTE      RTC2CON

      01000B59H   BLOCK     CODE     ---       LVL=0
      ---         BLOCKEND  ---      ---       LVL=0

      01001F8BH   BLOCK     CODE     ---       LVL=0
      01001F8BH   LINE      CODE     ---       #8
      01001F8BH   LINE      CODE     ---       #9
      01001F8DH   LINE      CODE     ---       #10
      01001F8FH   LINE      CODE     ---       #11
      01001F91H   LINE      CODE     ---       #12
      01001F93H   LINE      CODE     ---       #13
      01001F96H   LINE      CODE     ---       #14
      01001F99H   LINE      CODE     ---       #16
      01001F9CH   LINE      CODE     ---       #17
      01001F9FH   LINE      CODE     ---       #18
      01001FA1H   LINE      CODE     ---       #19
      01001FA4H   LINE      CODE     ---       #20
LX51 LINKER/LOCATER V4.66.62.0                                                        12/09/2016  09:53:08  PAGE 24


      ---         BLOCKEND  ---      ---       LVL=0

      01002098H   BLOCK     CODE     VOID      LVL=0
      ---         BLOCKEND  ---      ---       LVL=0

      010020A1H   BLOCK     CODE     ---       LVL=0
      00000007H   SYMBOL    DATA     BYTE      x
      010020A1H   LINE      CODE     ---       #22
      010020A1H   LINE      CODE     ---       #23
      010020A4H   LINE      CODE     ---       #24
      010020A6H   LINE      CODE     ---       #25
      010020A8H   LINE      CODE     ---       #26
      ---         BLOCKEND  ---      ---       LVL=0

      01001F1CH   BLOCK     CODE     ---       LVL=0
      0000004DH   SYMBOL    DATA     ---       s
      01001F1CH   LINE      CODE     ---       #29
      01001F22H   LINE      CODE     ---       #30
      01001F2DH   LINE      CODE     ---       #31
      01001F37H   LINE      CODE     ---       #32
      ---         BLOCKEND  ---      ---       LVL=0

      01002317H   BLOCK     CODE     ---       LVL=0
      00000007H   SYMBOL    DATA     BYTE      value
      01002317H   LINE      CODE     ---       #32
      01002317H   LINE      CODE     ---       #33
      01002317H   LINE      CODE     ---       #34
      01002319H   LINE      CODE     ---       #36
      0100231EH   LINE      CODE     ---       #38
      01002320H   LINE      CODE     ---       #39
      ---         BLOCKEND  ---      ---       LVL=0

      01002017H   BLOCK     CODE     ---       LVL=0
      00000007H   SYMBOL    DATA     BYTE      reg
      00000006H   SYMBOL    DATA     BYTE      value
      01002019H   BLOCK     CODE     NEAR LAB  LVL=1
      00000005H   SYMBOL    DATA     BYTE      status
      ---         BLOCKEND  ---      ---       LVL=1
      01002017H   LINE      CODE     ---       #41
      01002019H   LINE      CODE     ---       #42
      01002019H   LINE      CODE     ---       #45
      0100201BH   LINE      CODE     ---       #46
      01002020H   LINE      CODE     ---       #47
      01002025H   LINE      CODE     ---       #48
      01002027H   LINE      CODE     ---       #50
      01002029H   LINE      CODE     ---       #51
      ---         BLOCKEND  ---      ---       LVL=0

      01002234H   BLOCK     CODE     ---       LVL=0
      00000007H   SYMBOL    DATA     BYTE      reg
      01002234H   BLOCK     CODE     NEAR LAB  LVL=1
      00000007H   SYMBOL    DATA     BYTE      reg_val
      ---         BLOCKEND  ---      ---       LVL=1
      01002234H   LINE      CODE     ---       #53
      01002234H   LINE      CODE     ---       #54
      01002234H   LINE      CODE     ---       #57
      01002236H   LINE      CODE     ---       #58
      01002239H   LINE      CODE     ---       #59
      0100223EH   LINE      CODE     ---       #60
      01002240H   LINE      CODE     ---       #62
      01002240H   LINE      CODE     ---       #63
      ---         BLOCKEND  ---      ---       LVL=0

      01001E46H   BLOCK     CODE     ---       LVL=0
      00000007H   SYMBOL    DATA     BYTE      reg
LX51 LINKER/LOCATER V4.66.62.0                                                        12/09/2016  09:53:08  PAGE 25


      00000039H   SYMBOL    DATA     ---       pBuf
      0000003CH   SYMBOL    DATA     BYTE      bytes
      01001E4CH   BLOCK     CODE     NEAR LAB  LVL=1
      00000006H   SYMBOL    DATA     BYTE      status
      00000005H   SYMBOL    DATA     BYTE      byte_ctr
      ---         BLOCKEND  ---      ---       LVL=1
      01001E46H   LINE      CODE     ---       #65
      01001E4CH   LINE      CODE     ---       #66
      01001E4CH   LINE      CODE     ---       #69
      01001E4CH   LINE      CODE     ---       #70
      01001E4CH   LINE      CODE     ---       #72
      01001E55H   LINE      CODE     ---       #73
      01001E6CH   LINE      CODE     ---       #75
      01001E6EH   LINE      CODE     ---       #77
      01001E70H   LINE      CODE     ---       #78
      ---         BLOCKEND  ---      ---       LVL=0

      01001EFDH   BLOCK     CODE     ---       LVL=0
      00000007H   SYMBOL    DATA     BYTE      reg
      0000002AH   SYMBOL    DATA     ---       pBuf
      0000002DH   SYMBOL    DATA     BYTE      bytes
      01001F03H   BLOCK     CODE     NEAR LAB  LVL=1
      00000006H   SYMBOL    DATA     BYTE      status
      00000005H   SYMBOL    DATA     BYTE      byte_ctr
      ---         BLOCKEND  ---      ---       LVL=1
      01001EFDH   LINE      CODE     ---       #80
      01001F03H   LINE      CODE     ---       #81
      01001F03H   LINE      CODE     ---       #84
      01001F03H   LINE      CODE     ---       #85
      01001F03H   LINE      CODE     ---       #86
      01001F0CH   LINE      CODE     ---       #87
      01001F17H   LINE      CODE     ---       #88
      01001F19H   LINE      CODE     ---       #89
      01001F1BH   LINE      CODE     ---       #90
      ---         BLOCKEND  ---      ---       LVL=0

      010020A9H   BLOCK     CODE     ---       LVL=0
      010020A9H   LINE      CODE     ---       #93
      010020A9H   LINE      CODE     ---       #94
      010020A9H   LINE      CODE     ---       #95
      010020ACH   LINE      CODE     ---       #96
      010020AEH   LINE      CODE     ---       #97
      010020B0H   LINE      CODE     ---       #98
      010020B7H   LINE      CODE     ---       #99
      010020B9H   LINE      CODE     ---       #100
      ---         BLOCKEND  ---      ---       LVL=0

      01001DEEH   BLOCK     CODE     ---       LVL=0
      00000027H   SYMBOL    DATA     INT       payloadLength
      01001DEEH   LINE      CODE     ---       #102
      01001DF2H   LINE      CODE     ---       #103
      01001DF2H   LINE      CODE     ---       #104
      01001DF4H   LINE      CODE     ---       #105
      01001DFBH   LINE      CODE     ---       #106
      01001E03H   LINE      CODE     ---       #107
      01001E11H   LINE      CODE     ---       #109
      01001E13H   LINE      CODE     ---       #110
      01001E19H   LINE      CODE     ---       #111
      ---         BLOCKEND  ---      ---       LVL=0

      010017FAH   BLOCK     CODE     ---       LVL=0
      010017FAH   LINE      CODE     ---       #114
      01001813H   LINE      CODE     ---       #116
      0100181AH   LINE      CODE     ---       #117
      0100181DH   LINE      CODE     ---       #118
LX51 LINKER/LOCATER V4.66.62.0                                                        12/09/2016  09:53:08  PAGE 26


      0100181DH   LINE      CODE     ---       #119
      0100182BH   LINE      CODE     ---       #120
      01001832H   LINE      CODE     ---       #121
      01001834H   LINE      CODE     ---       #122
      0100183EH   LINE      CODE     ---       #123
      01001843H   LINE      CODE     ---       #124
      01001843H   LINE      CODE     ---       #125
      01001845H   LINE      CODE     ---       #126
      0100184BH   LINE      CODE     ---       #127
      0100184DH   LINE      CODE     ---       #128
      0100184DH   LINE      CODE     ---       #129
      0100184DH   LINE      CODE     ---       #130
      01001850H   LINE      CODE     ---       #131
      01001857H   LINE      CODE     ---       #132
      0100185AH   LINE      CODE     ---       #133
      01001861H   LINE      CODE     ---       #134
      01001868H   LINE      CODE     ---       #135
      ---         BLOCKEND  ---      ---       LVL=0

      01001C50H   BLOCK     CODE     ---       LVL=0
      01001C50H   LINE      CODE     ---       #138
      01001C50H   LINE      CODE     ---       #139
      01001C50H   LINE      CODE     ---       #140
      01001C52H   LINE      CODE     ---       #141
      01001C54H   LINE      CODE     ---       #143
      01001C5CH   LINE      CODE     ---       #144
      01001C64H   LINE      CODE     ---       #145
      01001C6BH   LINE      CODE     ---       #147
      01001C72H   LINE      CODE     ---       #148
      01001C79H   LINE      CODE     ---       #149
      01001C80H   LINE      CODE     ---       #150
      01001C87H   LINE      CODE     ---       #152
      01001C8EH   LINE      CODE     ---       #153
      ---         BLOCKEND  ---      ---       LVL=0

      01002241H   BLOCK     CODE     ---       LVL=0
      01002241H   LINE      CODE     ---       #157
      01002241H   LINE      CODE     ---       #159
      01002243H   LINE      CODE     ---       #160
      01002245H   LINE      CODE     ---       #161
      01002247H   LINE      CODE     ---       #162
      0100224AH   LINE      CODE     ---       #163
      ---         BLOCKEND  ---      ---       LVL=0

      01001BAFH   BLOCK     CODE     ---       LVL=0
      00000007H   SYMBOL    DATA     BYTE      packet_type
      00000023H   SYMBOL    DATA     ---       data_to_send
      00000026H   SYMBOL    DATA     BYTE      data_len
      01001BB5H   BLOCK     CODE     NEAR LAB  LVL=1
      00000006H   SYMBOL    DATA     WORD      i
      ---         BLOCKEND  ---      ---       LVL=1
      01001BAFH   LINE      CODE     ---       #34
      01001BB5H   LINE      CODE     ---       #36
      01001BBAH   LINE      CODE     ---       #37
      01001BBEH   LINE      CODE     ---       #38
      01001BCDH   LINE      CODE     ---       #39
      01001BEDH   LINE      CODE     ---       #40
      01001BF4H   LINE      CODE     ---       #41
      01001BFFH   LINE      CODE     ---       #42
      ---         BLOCKEND  ---      ---       LVL=0

      01001D84H   BLOCK     CODE     ---       LVL=0
      00000006H   SYMBOL    DATA     BYTE      packet_type
      00000044H   SYMBOL    DATA     ---       data_to_send
      00000047H   SYMBOL    DATA     BYTE      data_len
LX51 LINKER/LOCATER V4.66.62.0                                                        12/09/2016  09:53:08  PAGE 27


      01001D8AH   BLOCK     CODE     NEAR LAB  LVL=1
      00000004H   SYMBOL    DATA     WORD      i
      ---         BLOCKEND  ---      ---       LVL=1
      01001D84H   LINE      CODE     ---       #47
      01001D8AH   LINE      CODE     ---       #49
      01001D8AH   LINE      CODE     ---       #50
      01001D8DH   LINE      CODE     ---       #51
      01001D92H   LINE      CODE     ---       #52
      01001DA5H   LINE      CODE     ---       #53
      01001DABH   LINE      CODE     ---       #54
      01001DB4H   LINE      CODE     ---       #55
      ---         BLOCKEND  ---      ---       LVL=0

      01001DB9H   BLOCK     CODE     ---       LVL=0
      00000006H   SYMBOL    DATA     BYTE      packet_type
      00000049H   SYMBOL    DATA     ---       data_to_send
      0000004CH   SYMBOL    DATA     BYTE      data_len
      01001DBFH   BLOCK     CODE     NEAR LAB  LVL=1
      00000004H   SYMBOL    DATA     WORD      i
      ---         BLOCKEND  ---      ---       LVL=1
      01001DB9H   LINE      CODE     ---       #59
      01001DBFH   LINE      CODE     ---       #61
      01001DBFH   LINE      CODE     ---       #62
      01001DC2H   LINE      CODE     ---       #63
      01001DC9H   LINE      CODE     ---       #64
      01001DCEH   LINE      CODE     ---       #65
      01001DDAH   LINE      CODE     ---       #66
      01001DE0H   LINE      CODE     ---       #67
      01001DE9H   LINE      CODE     ---       #68
      ---         BLOCKEND  ---      ---       LVL=0

      010020DCH   BLOCK     CODE     ---       LVL=0
      010020DCH   LINE      CODE     ---       #25
      010020DEH   LINE      CODE     ---       #27
      010020DEH   LINE      CODE     ---       #28
      010020DEH   LINE      CODE     ---       #29
      010020E6H   LINE      CODE     ---       #30
      010020E6H   LINE      CODE     ---       #31
      010020E9H   LINE      CODE     ---       #32
      010020E9H   LINE      CODE     ---       #33
      ---         BLOCKEND  ---      ---       LVL=0

      01002321H   BLOCK     CODE     ---       LVL=0
      01002321H   LINE      CODE     ---       #35
      01002321H   LINE      CODE     ---       #36
      01002321H   LINE      CODE     ---       #37
      01002321H   LINE      CODE     ---       #38
      01002321H   LINE      CODE     ---       #39
      01002324H   LINE      CODE     ---       #40
      01002326H   LINE      CODE     ---       #41
      01002328H   LINE      CODE     ---       #42
      0100232AH   LINE      CODE     ---       #43
      ---         BLOCKEND  ---      ---       LVL=0

      0100232BH   BLOCK     CODE     ---       LVL=0
      0100232BH   LINE      CODE     ---       #45
      0100232BH   LINE      CODE     ---       #46
      0100232BH   LINE      CODE     ---       #47
      0100232BH   LINE      CODE     ---       #48
      0100232BH   LINE      CODE     ---       #49
      0100232EH   LINE      CODE     ---       #50
      01002330H   LINE      CODE     ---       #51
      01002332H   LINE      CODE     ---       #52
      01002334H   LINE      CODE     ---       #53
      ---         BLOCKEND  ---      ---       LVL=0
LX51 LINKER/LOCATER V4.66.62.0                                                        12/09/2016  09:53:08  PAGE 28



      0100227DH   BLOCK     CODE     ---       LVL=0
      0100227DH   LINE      CODE     ---       #20
      0100227DH   LINE      CODE     ---       #21
      ---         BLOCKEND  ---      ---       LVL=0

      0100211CH   BLOCK     CODE     ---       LVL=0
      00000007H   SYMBOL    DATA     BYTE      source
      0100211CH   LINE      CODE     ---       #23
      0100211CH   LINE      CODE     ---       #24
      ---         BLOCKEND  ---      ---       LVL=0

      0100212AH   BLOCK     CODE     ---       LVL=0
      00000007H   SYMBOL    DATA     BYTE      range
      0100212AH   LINE      CODE     ---       #26
      0100212AH   LINE      CODE     ---       #27
      ---         BLOCKEND  ---      ---       LVL=0

      01002138H   BLOCK     CODE     ---       LVL=0
      00000007H   SYMBOL    DATA     BYTE      range
      01002138H   LINE      CODE     ---       #29
      01002138H   LINE      CODE     ---       #30
      ---         BLOCKEND  ---      ---       LVL=0

      01002288H   BLOCK     CODE     ---       LVL=0
      00000007H   SYMBOL    DATA     BYTE      enabled
      01002288H   LINE      CODE     ---       #32
      01002288H   LINE      CODE     ---       #33
      ---         BLOCKEND  ---      ---       LVL=0

      01001FEFH   BLOCK     CODE     ---       LVL=0
      01001FEFH   LINE      CODE     ---       #35
      01001FEFH   LINE      CODE     ---       #36
      01001FF4H   LINE      CODE     ---       #37
      01001FF9H   LINE      CODE     ---       #38
      01001FFEH   LINE      CODE     ---       #39
      ---         BLOCKEND  ---      ---       LVL=0

      01001FD9H   BLOCK     CODE     ---       LVL=0
      01001FD9H   LINE      CODE     ---       #41
      01001FD9H   LINE      CODE     ---       #42
      01001FE3H   LINE      CODE     ---       #43
      01001FEEH   LINE      CODE     ---       #44
      ---         BLOCKEND  ---      ---       LVL=0

      01001634H   BLOCK     CODE     ---       LVL=0
      020002B5H   SYMBOL    XDATA    ---       packet6
      01001634H   LINE      CODE     ---       #45
      0100163CH   LINE      CODE     ---       #46
      0100164EH   LINE      CODE     ---       #47
      01001661H   LINE      CODE     ---       #48
      01001668H   LINE      CODE     ---       #49
      01001670H   LINE      CODE     ---       #50
      01001679H   LINE      CODE     ---       #51
      01001684H   LINE      CODE     ---       #52
      0100168FH   LINE      CODE     ---       #53
      0100169AH   LINE      CODE     ---       #54
      010016A5H   LINE      CODE     ---       #55
      010016B0H   LINE      CODE     ---       #56
      010016BBH   LINE      CODE     ---       #57
      010016C6H   LINE      CODE     ---       #58
      010016D1H   LINE      CODE     ---       #59
      ---         BLOCKEND  ---      ---       LVL=0

      010023D5H   BLOCK     CODE     ---       LVL=0
LX51 LINKER/LOCATER V4.66.62.0                                                        12/09/2016  09:53:08  PAGE 29


      00000006H   SYMBOL    DATA     INT       offset
      010023D5H   LINE      CODE     ---       #60
      010023D5H   LINE      CODE     ---       #61
      ---         BLOCKEND  ---      ---       LVL=0

      010023DDH   BLOCK     CODE     ---       LVL=0
      00000006H   SYMBOL    DATA     INT       offset
      010023DDH   LINE      CODE     ---       #63
      010023DDH   LINE      CODE     ---       #64
      ---         BLOCKEND  ---      ---       LVL=0

      010023E5H   BLOCK     CODE     ---       LVL=0
      00000006H   SYMBOL    DATA     INT       offset
      010023E5H   LINE      CODE     ---       #66
      010023E5H   LINE      CODE     ---       #67
      ---         BLOCKEND  ---      ---       LVL=0

      010023EDH   BLOCK     CODE     ---       LVL=0
      00000006H   SYMBOL    DATA     INT       offset
      010023EDH   LINE      CODE     ---       #69
      010023EDH   LINE      CODE     ---       #70
      ---         BLOCKEND  ---      ---       LVL=0

      01002293H   BLOCK     CODE     ---       LVL=0
      00000006H   SYMBOL    DATA     INT       offset
      01002293H   LINE      CODE     ---       #72
      01002293H   LINE      CODE     ---       #73
      ---         BLOCKEND  ---      ---       LVL=0

      0100229EH   BLOCK     CODE     ---       LVL=0
      00000006H   SYMBOL    DATA     INT       offset
      0100229EH   LINE      CODE     ---       #75
      0100229EH   LINE      CODE     ---       #76
      ---         BLOCKEND  ---      ---       LVL=0

      01002146H   BLOCK     CODE     ---       LVL=0
      01002146H   LINE      CODE     ---       #79
      01002146H   LINE      CODE     ---       #80
      01002150H   LINE      CODE     ---       #81
      01002153H   LINE      CODE     ---       #82
      ---         BLOCKEND  ---      ---       LVL=0

      01002154H   BLOCK     CODE     ---       LVL=0
      01002154H   LINE      CODE     ---       #83
      01002154H   LINE      CODE     ---       #84
      0100215EH   LINE      CODE     ---       #85
      01002161H   LINE      CODE     ---       #86
      ---         BLOCKEND  ---      ---       LVL=0

      01002162H   BLOCK     CODE     ---       LVL=0
      01002162H   LINE      CODE     ---       #87
      01002162H   LINE      CODE     ---       #88
      0100216CH   LINE      CODE     ---       #89
      0100216FH   LINE      CODE     ---       #90
      ---         BLOCKEND  ---      ---       LVL=0

      01002170H   BLOCK     CODE     ---       LVL=0
      01002170H   LINE      CODE     ---       #91
      01002170H   LINE      CODE     ---       #92
      0100217AH   LINE      CODE     ---       #93
      0100217DH   LINE      CODE     ---       #94
      ---         BLOCKEND  ---      ---       LVL=0

      0100217EH   BLOCK     CODE     ---       LVL=0
      0100217EH   LINE      CODE     ---       #95
LX51 LINKER/LOCATER V4.66.62.0                                                        12/09/2016  09:53:08  PAGE 30


      0100217EH   LINE      CODE     ---       #96
      01002188H   LINE      CODE     ---       #97
      0100218BH   LINE      CODE     ---       #98
      ---         BLOCKEND  ---      ---       LVL=0

      0100218CH   BLOCK     CODE     ---       LVL=0
      0100218CH   LINE      CODE     ---       #99
      0100218CH   LINE      CODE     ---       #100
      01002196H   LINE      CODE     ---       #101
      01002199H   LINE      CODE     ---       #102
      ---         BLOCKEND  ---      ---       LVL=0

      01001F70H   BLOCK     CODE     ---       LVL=0
      00000007H   SYMBOL    DATA     BYTE      bank
      00000005H   SYMBOL    DATA     BYTE      prefetchEnabled
      00000003H   SYMBOL    DATA     BYTE      userBank
      01001F70H   LINE      CODE     ---       #104
      01001F70H   LINE      CODE     ---       #105
      01001F74H   LINE      CODE     ---       #106
      01001F7BH   LINE      CODE     ---       #107
      01001F82H   LINE      CODE     ---       #108
      ---         BLOCKEND  ---      ---       LVL=0

      0100219AH   BLOCK     CODE     ---       LVL=0
      0100219AH   LINE      CODE     ---       #111
      0100219AH   LINE      CODE     ---       #112
      010021A4H   LINE      CODE     ---       #113
      010021A7H   LINE      CODE     ---       #114
      ---         BLOCKEND  ---      ---       LVL=0

      010021A8H   BLOCK     CODE     ---       LVL=0
      010021A8H   LINE      CODE     ---       #116
      010021A8H   LINE      CODE     ---       #117
      010021B0H   LINE      CODE     ---       #118
      010021B5H   LINE      CODE     ---       #119
      ---         BLOCKEND  ---      ---       LVL=0

      010022A9H   BLOCK     CODE     ---       LVL=0
      00000007H   SYMBOL    DATA     BYTE      enabled
      010022A9H   LINE      CODE     ---       #121
      010022A9H   LINE      CODE     ---       #122
      ---         BLOCKEND  ---      ---       LVL=0

      0100224DH   BLOCK     CODE     ---       LVL=0
      0100224DH   LINE      CODE     ---       #125
      0100224DH   LINE      CODE     ---       #126
      ---         BLOCKEND  ---      ---       LVL=0

      0100237BH   BLOCK     CODE     ---       LVL=0
      0100237BH   LINE      CODE     ---       #129
      0100237BH   LINE      CODE     ---       #130
      01002383H   LINE      CODE     ---       #131
      ---         BLOCKEND  ---      ---       LVL=0

      01001E1AH   BLOCK     CODE     ---       LVL=0
      02000350H   SYMBOL    XDATA    ---       data_ptr
      00000005H   SYMBOL    DATA     BYTE      data_len
      01001E1AH   LINE      CODE     ---       #133
      01001E20H   LINE      CODE     ---       #134
      01001E26H   LINE      CODE     ---       #135
      01001E3BH   LINE      CODE     ---       #136
      01001E3BH   LINE      CODE     ---       #137
      01001E45H   LINE      CODE     ---       #138
      01001E45H   LINE      CODE     ---       #139
      ---         BLOCKEND  ---      ---       LVL=0
LX51 LINKER/LOCATER V4.66.62.0                                                        12/09/2016  09:53:08  PAGE 31



      01002384H   BLOCK     CODE     ---       LVL=0
      00000007H   SYMBOL    DATA     BYTE      address
      01002384H   LINE      CODE     ---       #140
      01002384H   LINE      CODE     ---       #141
      ---         BLOCKEND  ---      ---       LVL=0

      01000D81H   BLOCK     CODE     ---       LVL=0
      02000360H   SYMBOL    XDATA    ---       data_ptr
      02000363H   SYMBOL    XDATA    WORD      dataSize
      02000365H   SYMBOL    XDATA    BYTE      bank
      02000366H   SYMBOL    XDATA    BYTE      address
      02000367H   SYMBOL    XDATA    BYTE      verify
      02000368H   SYMBOL    XDATA    BYTE      useProgMem
      01000D8FH   BLOCK     CODE     NEAR LAB  LVL=1
      02000369H   SYMBOL    XDATA    BYTE      chunkSize_wmb
      0200036AH   SYMBOL    XDATA    ---       verifyBuffer_wmb
      0200036DH   SYMBOL    XDATA    ---       progBuffer_wmb
      02000370H   SYMBOL    XDATA    WORD      i_wmb
      00000007H   SYMBOL    DATA     BYTE      j_wmb
      ---         BLOCKEND  ---      ---       LVL=1
      01000D81H   LINE      CODE     ---       #145
      01000D8FH   LINE      CODE     ---       #149
      01000D95H   LINE      CODE     ---       #152
      01000D9FH   LINE      CODE     ---       #153
      01000DA7H   LINE      CODE     ---       #154
      01000DBAH   LINE      CODE     ---       #155
      01000DCFH   LINE      CODE     ---       #156
      01000DE8H   LINE      CODE     ---       #158
      01000DEBH   LINE      CODE     ---       #161
      01000E01H   LINE      CODE     ---       #164
      01000E15H   LINE      CODE     ---       #166
      01000E1BH   LINE      CODE     ---       #168
      01000E47H   LINE      CODE     ---       #169
      01000E47H   LINE      CODE     ---       #171
      01000E54H   LINE      CODE     ---       #172
      01000E54H   LINE      CODE     ---       #174
      01000E63H   LINE      CODE     ---       #177
      01000E74H   LINE      CODE     ---       #178
      01000E74H   LINE      CODE     ---       #179
      01000E77H   LINE      CODE     ---       #180
      01000E83H   LINE      CODE     ---       #181
      01000E9FH   LINE      CODE     ---       #182
      01000EA5H   LINE      CODE     ---       #183
      01000EB4H   LINE      CODE     ---       #184
      01000EB7H   LINE      CODE     ---       #185
      01000EB7H   LINE      CODE     ---       #186
      01000EB7H   LINE      CODE     ---       #189
      01000EC6H   LINE      CODE     ---       #192
      01000ECCH   LINE      CODE     ---       #195
      01000EE1H   LINE      CODE     ---       #196
      01000EEDH   LINE      CODE     ---       #197
      01000EEDH   LINE      CODE     ---       #198
      01000EF0H   LINE      CODE     ---       #199
      01000EF0H   LINE      CODE     ---       #200
      01000EF3H   LINE      CODE     ---       #201
      01000EFFH   LINE      CODE     ---       #202
      01000F0EH   LINE      CODE     ---       #203
      01000F10H   LINE      CODE     ---       #204
      ---         BLOCKEND  ---      ---       LVL=0

      01000F25H   BLOCK     CODE     ---       LVL=0
      02000350H   SYMBOL    XDATA    ---       data_ptr
      02000353H   SYMBOL    XDATA    WORD      dataSize
      02000355H   SYMBOL    XDATA    BYTE      useProgMem
LX51 LINKER/LOCATER V4.66.62.0                                                        12/09/2016  09:53:08  PAGE 32


      01000F33H   BLOCK     CODE     NEAR LAB  LVL=1
      02000356H   SYMBOL    XDATA    ---       progBuffer_wdcs
      02000359H   SYMBOL    XDATA    BYTE      success_wdcs
      0200035AH   SYMBOL    XDATA    BYTE      special_wdcs
      0200035BH   SYMBOL    XDATA    WORD      i_wdcs
      00000006H   SYMBOL    DATA     WORD      j_wdcs
      0200035DH   SYMBOL    XDATA    BYTE      bank_wdcs
      0200035EH   SYMBOL    XDATA    BYTE      offset_wdcs
      0200035FH   SYMBOL    XDATA    BYTE      length_wdcs
      ---         BLOCKEND  ---      ---       LVL=1
      01000F25H   LINE      CODE     ---       #209
      01000F33H   LINE      CODE     ---       #210
      01000F39H   LINE      CODE     ---       #214
      01000F3FH   LINE      CODE     ---       #215
      01000F49H   LINE      CODE     ---       #216
      01000F49H   LINE      CODE     ---       #221
      01000F65H   LINE      CODE     ---       #222
      01000F6FH   LINE      CODE     ---       #223
      01000F78H   LINE      CODE     ---       #224
      01000F81H   LINE      CODE     ---       #225
      01000F87H   LINE      CODE     ---       #226
      01000F89H   LINE      CODE     ---       #227
      01000F93H   LINE      CODE     ---       #228
      01000F9DH   LINE      CODE     ---       #229
      01000FA7H   LINE      CODE     ---       #230
      01000FA7H   LINE      CODE     ---       #233
      01000FB4H   LINE      CODE     ---       #235
      01000FB7H   LINE      CODE     ---       #236
      01000FCFH   LINE      CODE     ---       #237
      01001003H   LINE      CODE     ---       #238
      01001003H   LINE      CODE     ---       #239
      01001010H   LINE      CODE     ---       #240
      01001010H   LINE      CODE     ---       #241
      0100103CH   LINE      CODE     ---       #242
      0100104AH   LINE      CODE     ---       #243
      0100104CH   LINE      CODE     ---       #249
      01001055H   LINE      CODE     ---       #250
      01001062H   LINE      CODE     ---       #251
      01001064H   LINE      CODE     ---       #252
      0100106EH   LINE      CODE     ---       #253
      0100106EH   LINE      CODE     ---       #257
      01001075H   LINE      CODE     ---       #263
      0100107EH   LINE      CODE     ---       #265
      01001084H   LINE      CODE     ---       #266
      01001086H   LINE      CODE     ---       #268
      0100108BH   LINE      CODE     ---       #269
      0100108BH   LINE      CODE     ---       #270
      0100108BH   LINE      CODE     ---       #272
      01001094H   LINE      CODE     ---       #273
      010010A1H   LINE      CODE     ---       #274
      010010A4H   LINE      CODE     ---       #275
      010010A4H   LINE      CODE     ---       #276
      010010A4H   LINE      CODE     ---       #277
      010010B1H   LINE      CODE     ---       #278
      010010B3H   LINE      CODE     ---       #279
      ---         BLOCKEND  ---      ---       LVL=0

      01001579H   BLOCK     CODE     ---       LVL=0
      02000350H   SYMBOL    XDATA    ---       data_ptr
      02000353H   SYMBOL    XDATA    WORD      dataSize
      02000355H   SYMBOL    XDATA    BYTE      bank
      02000356H   SYMBOL    XDATA    BYTE      address
      01001587H   BLOCK     CODE     NEAR LAB  LVL=1
      02000357H   SYMBOL    XDATA    BYTE      chunkSize_rmb
      02000358H   SYMBOL    XDATA    WORD      i_rmb
LX51 LINKER/LOCATER V4.66.62.0                                                        12/09/2016  09:53:08  PAGE 33


      ---         BLOCKEND  ---      ---       LVL=1
      01001579H   LINE      CODE     ---       #283
      01001587H   LINE      CODE     ---       #286
      01001588H   LINE      CODE     ---       #287
      0100158BH   LINE      CODE     ---       #288
      010015A4H   LINE      CODE     ---       #290
      010015A7H   LINE      CODE     ---       #293
      010015BBH   LINE      CODE     ---       #296
      010015CDH   LINE      CODE     ---       #299
      010015E8H   LINE      CODE     ---       #302
      010015F5H   LINE      CODE     ---       #305
      010015FBH   LINE      CODE     ---       #308
      0100160DH   LINE      CODE     ---       #309
      01001619H   LINE      CODE     ---       #310
      0100161CH   LINE      CODE     ---       #311
      0100161FH   LINE      CODE     ---       #312
      0100161FH   LINE      CODE     ---       #313
      01001622H   LINE      CODE     ---       #314
      ---         BLOCKEND  ---      ---       LVL=0

      01002335H   BLOCK     CODE     ---       LVL=0
      00000001H   SYMBOL    DATA     ---       data_ptr
      00000004H   SYMBOL    DATA     WORD      dataSize
      01002335H   LINE      CODE     ---       #317
      01002335H   LINE      CODE     ---       #318
      0100233EH   LINE      CODE     ---       #319
      ---         BLOCKEND  ---      ---       LVL=0

      01001EDDH   BLOCK     CODE     ---       LVL=0
      00000001H   SYMBOL    DATA     ---       data_ptr
      00000004H   SYMBOL    DATA     WORD      dataSize
      02000355H   SYMBOL    XDATA    BYTE      bank
      02000356H   SYMBOL    XDATA    BYTE      address
      02000357H   SYMBOL    XDATA    BYTE      verify
      01001EDDH   LINE      CODE     ---       #320
      01001EDDH   LINE      CODE     ---       #321
      01001EFCH   LINE      CODE     ---       #322
      ---         BLOCKEND  ---      ---       LVL=0

      01002259H   BLOCK     CODE     ---       LVL=0
      01002259H   LINE      CODE     ---       #323
      01002259H   LINE      CODE     ---       #324
      ---         BLOCKEND  ---      ---       LVL=0

      01001FA5H   BLOCK     CODE     ---       LVL=0
      00000007H   SYMBOL    DATA     BYTE      num
      00000006H   SYMBOL    DATA     BYTE      address
      01001FA5H   LINE      CODE     ---       #326
      01001FA7H   LINE      CODE     ---       #327
      01001FADH   LINE      CODE     ---       #328
      01001FBEH   LINE      CODE     ---       #329
      ---         BLOCKEND  ---      ---       LVL=0

      010022B4H   BLOCK     CODE     ---       LVL=0
      00000007H   SYMBOL    DATA     BYTE      enabled
      010022B4H   LINE      CODE     ---       #330
      010022B4H   LINE      CODE     ---       #331
      ---         BLOCKEND  ---      ---       LVL=0

      01002265H   BLOCK     CODE     ---       LVL=0
      01002265H   LINE      CODE     ---       #333
      01002265H   LINE      CODE     ---       #334
      ---         BLOCKEND  ---      ---       LVL=0

      0100238DH   BLOCK     CODE     ---       LVL=0
LX51 LINKER/LOCATER V4.66.62.0                                                        12/09/2016  09:53:08  PAGE 34


      00000007H   SYMBOL    DATA     BYTE      enabled
      0100238DH   LINE      CODE     ---       #336
      0100238DH   LINE      CODE     ---       #337
      ---         BLOCKEND  ---      ---       LVL=0

      01002396H   BLOCK     CODE     ---       LVL=0
      00000007H   SYMBOL    DATA     BYTE      rate
      01002396H   LINE      CODE     ---       #339
      01002396H   LINE      CODE     ---       #340
      ---         BLOCKEND  ---      ---       LVL=0

      010021B6H   BLOCK     CODE     ---       LVL=0
      00000007H   SYMBOL    DATA     BYTE      sync_ext
      010021B6H   LINE      CODE     ---       #342
      010021B6H   LINE      CODE     ---       #343
      ---         BLOCKEND  ---      ---       LVL=0

      010021C4H   BLOCK     CODE     ---       LVL=0
      00000007H   SYMBOL    DATA     BYTE      mode
      010021C4H   LINE      CODE     ---       #345
      010021C4H   LINE      CODE     ---       #346
      ---         BLOCKEND  ---      ---       LVL=0

      010021D2H   BLOCK     CODE     ---       LVL=0
      010021D2H   LINE      CODE     ---       #350
      010021D2H   LINE      CODE     ---       #351
      010021DAH   LINE      CODE     ---       #352
      010021DFH   LINE      CODE     ---       #353
      ---         BLOCKEND  ---      ---       LVL=0

      0100239FH   BLOCK     CODE     ---       LVL=0
      00000007H   SYMBOL    DATA     BYTE      config
      0100239FH   LINE      CODE     ---       #354
      0100239FH   LINE      CODE     ---       #355
      ---         BLOCKEND  ---      ---       LVL=0

      010021E0H   BLOCK     CODE     ---       LVL=0
      010021E0H   LINE      CODE     ---       #360
      010021E0H   LINE      CODE     ---       #361
      010021E8H   LINE      CODE     ---       #362
      010021EDH   LINE      CODE     ---       #363
      ---         BLOCKEND  ---      ---       LVL=0

      010023A8H   BLOCK     CODE     ---       LVL=0
      00000007H   SYMBOL    DATA     BYTE      config
      010023A8H   LINE      CODE     ---       #364
      010023A8H   LINE      CODE     ---       #365
      ---         BLOCKEND  ---      ---       LVL=0

      010020BAH   BLOCK     CODE     ---       LVL=0
      010020BAH   LINE      CODE     ---       #367
      010020BAH   LINE      CODE     ---       #368
      010020C5H   LINE      CODE     ---       #369
      010020CAH   LINE      CODE     ---       #370
      ---         BLOCKEND  ---      ---       LVL=0

      0100233FH   BLOCK     CODE     ---       LVL=0
      00000007H   SYMBOL    DATA     BYTE      enabled
      0100233FH   LINE      CODE     ---       #371
      0100233FH   LINE      CODE     ---       #372
      ---         BLOCKEND  ---      ---       LVL=0

      010020ECH   BLOCK     CODE     ---       LVL=0
      010020ECH   LINE      CODE     ---       #374
      010020ECH   LINE      CODE     ---       #375
LX51 LINKER/LOCATER V4.66.62.0                                                        12/09/2016  09:53:08  PAGE 35


      010020F6H   LINE      CODE     ---       #376
      010020FBH   LINE      CODE     ---       #377
      ---         BLOCKEND  ---      ---       LVL=0

      01002349H   BLOCK     CODE     ---       LVL=0
      00000007H   SYMBOL    DATA     CHAR      offset
      01002349H   LINE      CODE     ---       #378
      01002349H   LINE      CODE     ---       #379
      ---         BLOCKEND  ---      ---       LVL=0

      010020FCH   BLOCK     CODE     ---       LVL=0
      010020FCH   LINE      CODE     ---       #384
      010020FCH   LINE      CODE     ---       #385
      01002106H   LINE      CODE     ---       #386
      0100210BH   LINE      CODE     ---       #387
      ---         BLOCKEND  ---      ---       LVL=0

      01002353H   BLOCK     CODE     ---       LVL=0
      00000007H   SYMBOL    DATA     CHAR      offset
      01002353H   LINE      CODE     ---       #388
      01002353H   LINE      CODE     ---       #389
      ---         BLOCKEND  ---      ---       LVL=0

      0100210CH   BLOCK     CODE     ---       LVL=0
      0100210CH   LINE      CODE     ---       #394
      0100210CH   LINE      CODE     ---       #395
      01002116H   LINE      CODE     ---       #396
      0100211BH   LINE      CODE     ---       #397
      ---         BLOCKEND  ---      ---       LVL=0

      0100235DH   BLOCK     CODE     ---       LVL=0
      00000007H   SYMBOL    DATA     CHAR      offset
      0100235DH   LINE      CODE     ---       #398
      0100235DH   LINE      CODE     ---       #399
      ---         BLOCKEND  ---      ---       LVL=0

      010021EEH   BLOCK     CODE     ---       LVL=0
      010021EEH   LINE      CODE     ---       #402
      010021EEH   LINE      CODE     ---       #403
      010021F6H   LINE      CODE     ---       #404
      010021FBH   LINE      CODE     ---       #405
      ---         BLOCKEND  ---      ---       LVL=0

      010023B1H   BLOCK     CODE     ---       LVL=0
      00000007H   SYMBOL    DATA     BYTE      threshold
      010023B1H   LINE      CODE     ---       #406
      010023B1H   LINE      CODE     ---       #407
      ---         BLOCKEND  ---      ---       LVL=0

      010021FCH   BLOCK     CODE     ---       LVL=0
      010021FCH   LINE      CODE     ---       #409
      010021FCH   LINE      CODE     ---       #410
      01002204H   LINE      CODE     ---       #411
      01002209H   LINE      CODE     ---       #412
      ---         BLOCKEND  ---      ---       LVL=0

      010023BAH   BLOCK     CODE     ---       LVL=0
      00000007H   SYMBOL    DATA     BYTE      threshold
      010023BAH   LINE      CODE     ---       #414
      010023BAH   LINE      CODE     ---       #415
      ---         BLOCKEND  ---      ---       LVL=0

      0100220AH   BLOCK     CODE     ---       LVL=0
      0100220AH   LINE      CODE     ---       #417
      0100220AH   LINE      CODE     ---       #418
LX51 LINKER/LOCATER V4.66.62.0                                                        12/09/2016  09:53:08  PAGE 36


      01002212H   LINE      CODE     ---       #419
      01002217H   LINE      CODE     ---       #420
      ---         BLOCKEND  ---      ---       LVL=0

      010023C3H   BLOCK     CODE     ---       LVL=0
      00000007H   SYMBOL    DATA     BYTE      duration
      010023C3H   LINE      CODE     ---       #422
      010023C3H   LINE      CODE     ---       #423
      ---         BLOCKEND  ---      ---       LVL=0

      0100202AH   BLOCK     CODE     ---       LVL=0
      0100202AH   LINE      CODE     ---       #426
      0100202AH   LINE      CODE     ---       #427
      01002037H   LINE      CODE     ---       #428
      0100203CH   LINE      CODE     ---       #429
      ---         BLOCKEND  ---      ---       LVL=0

      010023CCH   BLOCK     CODE     ---       LVL=0
      00000007H   SYMBOL    DATA     BYTE      duration
      010023CCH   LINE      CODE     ---       #431
      010023CCH   LINE      CODE     ---       #432
      ---         BLOCKEND  ---      ---       LVL=0

      01002050H   BLOCK     CODE     ---       LVL=0
      01002050H   LINE      CODE     ---       #434
      01002050H   LINE      CODE     ---       #435
      0100205CH   LINE      CODE     ---       #436
      01002061H   LINE      CODE     ---       #437
      ---         BLOCKEND  ---      ---       LVL=0

      010022BFH   BLOCK     CODE     ---       LVL=0
      00000007H   SYMBOL    DATA     BYTE      enabled
      010022BFH   LINE      CODE     ---       #439
      010022BFH   LINE      CODE     ---       #440
      ---         BLOCKEND  ---      ---       LVL=0

      01002271H   BLOCK     CODE     ---       LVL=0
      01002271H   LINE      CODE     ---       #442
      01002271H   LINE      CODE     ---       #443
      ---         BLOCKEND  ---      ---       LVL=0

      01000056H   BLOCK     CODE     ---       LVL=0
      01000056H   BLOCK     CODE     NEAR LAB  LVL=1
      020002B5H   SYMBOL    XDATA    BYTE      xgOffsetTC
      020002B6H   SYMBOL    XDATA    BYTE      ygOffsetTC
      020002B7H   SYMBOL    XDATA    BYTE      zgOffsetTC
      020002B8H   SYMBOL    XDATA    ---       dmpUpdate
      020002C8H   SYMBOL    XDATA    BYTE      j
      020002C9H   SYMBOL    XDATA    WORD      pos
      020002CBH   SYMBOL    XDATA    WORD      fifoCount
      020002CDH   SYMBOL    XDATA    ---       fifoBuffer
      0200034DH   SYMBOL    XDATA    BYTE      b
      0200034EH   SYMBOL    XDATA    BYTE      data_to_write
      0200034FH   SYMBOL    XDATA    BYTE      mask
      ---         BLOCKEND  ---      ---       LVL=1
      01000056H   LINE      CODE     ---       #447
      01000056H   LINE      CODE     ---       #450
      0100005DH   LINE      CODE     ---       #459
      01000064H   LINE      CODE     ---       #460
      01000067H   LINE      CODE     ---       #461
      0100006EH   LINE      CODE     ---       #471
      01000075H   LINE      CODE     ---       #472
      0100007AH   LINE      CODE     ---       #475
      01000081H   LINE      CODE     ---       #476
      0100008AH   LINE      CODE     ---       #478
LX51 LINKER/LOCATER V4.66.62.0                                                        12/09/2016  09:53:08  PAGE 37


      01000096H   LINE      CODE     ---       #479
      0100009BH   LINE      CODE     ---       #484
      010000A2H   LINE      CODE     ---       #485
      010000A9H   LINE      CODE     ---       #494
      010000B0H   LINE      CODE     ---       #495
      010000B8H   LINE      CODE     ---       #496
      010000C0H   LINE      CODE     ---       #497
      010000C8H   LINE      CODE     ---       #507
      010000D4H   LINE      CODE     ---       #508
      010000DBH   LINE      CODE     ---       #510
      010000E2H   LINE      CODE     ---       #511
      010000E7H   LINE      CODE     ---       #513
      010000EEH   LINE      CODE     ---       #515
      010000F1H   LINE      CODE     ---       #516
      010000F8H   LINE      CODE     ---       #523
      010000FFH   LINE      CODE     ---       #524
      0100011CH   LINE      CODE     ---       #526
      01000123H   LINE      CODE     ---       #531
      0100012AH   LINE      CODE     ---       #532
      0100013DH   LINE      CODE     ---       #534
      01000149H   LINE      CODE     ---       #536
      01000155H   LINE      CODE     ---       #537
      0100015AH   LINE      CODE     ---       #540
      01000161H   LINE      CODE     ---       #541
      01000166H   LINE      CODE     ---       #544
      01000172H   LINE      CODE     ---       #545
      01000177H   LINE      CODE     ---       #548
      01000183H   LINE      CODE     ---       #553
      01000189H   LINE      CODE     ---       #554
      01000195H   LINE      CODE     ---       #555
      0100019CH   LINE      CODE     ---       #556
      010001A3H   LINE      CODE     ---       #557
      010001A6H   LINE      CODE     ---       #558
      010001A8H   LINE      CODE     ---       #559
      010001AEH   LINE      CODE     ---       #560
      010001AEH   LINE      CODE     ---       #562
      010001B1H   LINE      CODE     ---       #563
      010001B7H   LINE      CODE     ---       #564
      010001C1H   LINE      CODE     ---       #565
      010001C5H   LINE      CODE     ---       #566
      010001D1H   LINE      CODE     ---       #567
      010001D3H   LINE      CODE     ---       #568
      010001D6H   LINE      CODE     ---       #570
      010001DDH   LINE      CODE     ---       #571
      010001E0H   LINE      CODE     ---       #572
      010001E2H   LINE      CODE     ---       #573
      010001E8H   LINE      CODE     ---       #574
      010001E8H   LINE      CODE     ---       #578
      010001EFH   LINE      CODE     ---       #580
      010001F6H   LINE      CODE     ---       #581
      010001FBH   LINE      CODE     ---       #584
      01000202H   LINE      CODE     ---       #585
      01000207H   LINE      CODE     ---       #588
      0100020EH   LINE      CODE     ---       #589
      01000213H   LINE      CODE     ---       #590
      01000218H   LINE      CODE     ---       #593
      0100021FH   LINE      CODE     ---       #594
      01000224H   LINE      CODE     ---       #597
      01000230H   LINE      CODE     ---       #601
      01000237H   LINE      CODE     ---       #602
      01000249H   LINE      CODE     ---       #603
      0100024CH   LINE      CODE     ---       #604
      0100024EH   LINE      CODE     ---       #605
      01000254H   LINE      CODE     ---       #606
      01000254H   LINE      CODE     ---       #608
LX51 LINKER/LOCATER V4.66.62.0                                                        12/09/2016  09:53:08  PAGE 38


      01000257H   LINE      CODE     ---       #609
      0100025AH   LINE      CODE     ---       #610
      01000261H   LINE      CODE     ---       #611
      01000265H   LINE      CODE     ---       #612
      01000271H   LINE      CODE     ---       #613
      01000275H   LINE      CODE     ---       #614
      01000278H   LINE      CODE     ---       #616
      01000289H   LINE      CODE     ---       #617
      0100028CH   LINE      CODE     ---       #618
      0100028EH   LINE      CODE     ---       #619
      01000294H   LINE      CODE     ---       #620
      01000294H   LINE      CODE     ---       #624
      0100029BH   LINE      CODE     ---       #625
      010002A2H   LINE      CODE     ---       #626
      010002A5H   LINE      CODE     ---       #627
      010002A7H   LINE      CODE     ---       #628
      010002ADH   LINE      CODE     ---       #629
      010002ADH   LINE      CODE     ---       #631
      010002B0H   LINE      CODE     ---       #632
      010002B3H   LINE      CODE     ---       #633
      010002B6H   LINE      CODE     ---       #634
      010002B6H   LINE      CODE     ---       #635
      010002B6H   LINE      CODE     ---       #636
      010002B6H   LINE      CODE     ---       #637
      010002B9H   LINE      CODE     ---       #639
      010002C0H   LINE      CODE     ---       #640
      010002C3H   LINE      CODE     ---       #641
      010002C5H   LINE      CODE     ---       #642
      010002CBH   LINE      CODE     ---       #643
      010002CBH   LINE      CODE     ---       #647
      010002D2H   LINE      CODE     ---       #648
      010002E4H   LINE      CODE     ---       #649
      010002E7H   LINE      CODE     ---       #650
      010002E9H   LINE      CODE     ---       #651
      010002EFH   LINE      CODE     ---       #652
      010002EFH   LINE      CODE     ---       #654
      010002F2H   LINE      CODE     ---       #655
      010002F5H   LINE      CODE     ---       #656
      010002F8H   LINE      CODE     ---       #657
      010002F8H   LINE      CODE     ---       #658
      010002F8H   LINE      CODE     ---       #659
      010002F8H   LINE      CODE     ---       #660
      010002FBH   LINE      CODE     ---       #662
      0100030CH   LINE      CODE     ---       #663
      0100030FH   LINE      CODE     ---       #664
      01000311H   LINE      CODE     ---       #665
      01000317H   LINE      CODE     ---       #666
      01000317H   LINE      CODE     ---       #675
      0100031EH   LINE      CODE     ---       #676
      01000332H   LINE      CODE     ---       #679
      01000335H   LINE      CODE     ---       #682
      0100033CH   LINE      CODE     ---       #683
      01000350H   LINE      CODE     ---       #685
      01000353H   LINE      CODE     ---       #688
      01000356H   LINE      CODE     ---       #691
      01000359H   LINE      CODE     ---       #696
      0100035CH   LINE      CODE     ---       #699
      01000361H   LINE      CODE     ---       #702
      01000366H   LINE      CODE     ---       #705
      0100036BH   LINE      CODE     ---       #708
      01000370H   LINE      CODE     ---       #711
      01000373H   LINE      CODE     ---       #714
      01000378H   LINE      CODE     ---       #717
      0100037DH   LINE      CODE     ---       #720
      01000380H   LINE      CODE     ---       #723
LX51 LINKER/LOCATER V4.66.62.0                                                        12/09/2016  09:53:08  PAGE 39


      01000387H   LINE      CODE     ---       #724
      0100039BH   LINE      CODE     ---       #725
      0100039EH   LINE      CODE     ---       #728
      010003A5H   LINE      CODE     ---       #729
      010003B9H   LINE      CODE     ---       #730
      010003BCH   LINE      CODE     ---       #733
      010003C3H   LINE      CODE     ---       #734
      010003D7H   LINE      CODE     ---       #735
      010003DAH   LINE      CODE     ---       #738
      010003DDH   LINE      CODE     ---       #739
      010003E9H   LINE      CODE     ---       #740
      010003EBH   LINE      CODE     ---       #741
      010003F0H   LINE      CODE     ---       #742
      010003F3H   LINE      CODE     ---       #743
      01000408H   LINE      CODE     ---       #744
      0100040AH   LINE      CODE     ---       #749
      0100040DH   LINE      CODE     ---       #757
      01000414H   LINE      CODE     ---       #758
      01000428H   LINE      CODE     ---       #759
      01000448H   LINE      CODE     ---       #762
      0100044BH   LINE      CODE     ---       #763
      01000450H   LINE      CODE     ---       #764
      0100045BH   LINE      CODE     ---       #765
      0100045DH   LINE      CODE     ---       #771
      0100046CH   LINE      CODE     ---       #779
      0100047AH   LINE      CODE     ---       #780
      0100048EH   LINE      CODE     ---       #781
      01000491H   LINE      CODE     ---       #786
      01000496H   LINE      CODE     ---       #789
      0100049FH   LINE      CODE     ---       #795
      010004A2H   LINE      CODE     ---       #796
      010004A5H   LINE      CODE     ---       #797
      010004A7H   LINE      CODE     ---       #799
      010004AEH   LINE      CODE     ---       #800
      010004B1H   LINE      CODE     ---       #801
      010004B1H   LINE      CODE     ---       #802
      010004B1H   LINE      CODE     ---       #804
      010004B8H   LINE      CODE     ---       #805
      010004BBH   LINE      CODE     ---       #806
      010004BBH   LINE      CODE     ---       #807
      010004C2H   LINE      CODE     ---       #808
      010004C4H   LINE      CODE     ---       #809
      ---         BLOCKEND  ---      ---       LVL=0

      0100196AH   BLOCK     CODE     ---       LVL=0
      0200037AH   SYMBOL    XDATA    ---       data_ptr
      0200037DH   SYMBOL    XDATA    ---       packet
      0100196AH   LINE      CODE     ---       #810
      01001970H   LINE      CODE     ---       #812
      01001985H   LINE      CODE     ---       #813
      0100199CH   LINE      CODE     ---       #814
      010019AEH   LINE      CODE     ---       #815
      010019C0H   LINE      CODE     ---       #816
      010019D9H   LINE      CODE     ---       #817
      010019DBH   LINE      CODE     ---       #818
      ---         BLOCKEND  ---      ---       LVL=0

      010012CCH   BLOCK     CODE     ---       LVL=0
      020002B5H   SYMBOL    XDATA    ---       data_ptr
      020002B8H   SYMBOL    XDATA    ---       packet
      010012CCH   LINE      CODE     ---       #819
      010012D2H   LINE      CODE     ---       #822
      010012EBH   LINE      CODE     ---       #823
      01001303H   LINE      CODE     ---       #824
      0100131BH   LINE      CODE     ---       #825
LX51 LINKER/LOCATER V4.66.62.0                                                        12/09/2016  09:53:08  PAGE 40


      01001333H   LINE      CODE     ---       #827
      0100134BH   LINE      CODE     ---       #828
      01001363H   LINE      CODE     ---       #829
      0100137BH   LINE      CODE     ---       #831
      01001393H   LINE      CODE     ---       #832
      010013ABH   LINE      CODE     ---       #833
      010013C7H   LINE      CODE     ---       #834
      010013C9H   LINE      CODE     ---       #835
      ---         BLOCKEND  ---      ---       LVL=0

      01000006H   BLOCK     CODE     ---       LVL=0
      01000006H   LINE      CODE     ---       #45
      01000006H   LINE      CODE     ---       #47
      01000009H   LINE      CODE     ---       #48
      ---         BLOCKEND  ---      ---       LVL=0

      01001F38H   BLOCK     CODE     ---       LVL=0
      01001F38H   LINE      CODE     ---       #52
      01001F38H   LINE      CODE     ---       #53
      01001F38H   LINE      CODE     ---       #54
      01001F3BH   LINE      CODE     ---       #55
      01001F3DH   LINE      CODE     ---       #56
      01001F44H   LINE      CODE     ---       #57
      01001F44H   LINE      CODE     ---       #58
      01001F47H   LINE      CODE     ---       #59
      01001F49H   LINE      CODE     ---       #60
      ---         BLOCKEND  ---      ---       LVL=0

      01002062H   BLOCK     CODE     ---       LVL=0
      01002062H   LINE      CODE     ---       #62
      01002062H   LINE      CODE     ---       #64
      01002065H   LINE      CODE     ---       #65
      01002068H   LINE      CODE     ---       #66
      0100206BH   LINE      CODE     ---       #67
      0100206EH   LINE      CODE     ---       #69
      01002071H   LINE      CODE     ---       #70
      01002073H   LINE      CODE     ---       #71
      ---         BLOCKEND  ---      ---       LVL=0

      010013CAH   BLOCK     CODE     ---       LVL=0
      010013CAH   LINE      CODE     ---       #72
      010013CAH   LINE      CODE     ---       #73
      010013D1H   LINE      CODE     ---       #74
      010013DDH   LINE      CODE     ---       #75
      010013E5H   LINE      CODE     ---       #76
      010013ECH   LINE      CODE     ---       #77
      01001401H   LINE      CODE     ---       #78
      01001416H   LINE      CODE     ---       #79
      0100141EH   LINE      CODE     ---       #80
      01001428H   LINE      CODE     ---       #81
      0100142DH   LINE      CODE     ---       #82
      0100143BH   LINE      CODE     ---       #83
      01001443H   LINE      CODE     ---       #84
      01001451H   LINE      CODE     ---       #85
      01001454H   LINE      CODE     ---       #86
      0100145BH   LINE      CODE     ---       #87
      01001466H   LINE      CODE     ---       #88
      01001471H   LINE      CODE     ---       #90
      01001473H   LINE      CODE     ---       #91
      01001486H   LINE      CODE     ---       #92
      01001486H   LINE      CODE     ---       #93
      ---         BLOCKEND  ---      ---       LVL=0

      010014B1H   BLOCK     CODE     ---       LVL=0
      010014B1H   LINE      CODE     ---       #94
LX51 LINKER/LOCATER V4.66.62.0                                                        12/09/2016  09:53:08  PAGE 41


      010014B1H   LINE      CODE     ---       #95
      010014B4H   LINE      CODE     ---       #96
      010014B6H   LINE      CODE     ---       #97
      010014B9H   LINE      CODE     ---       #98
      010014BBH   LINE      CODE     ---       #99
      010014BEH   LINE      CODE     ---       #100
      010014C3H   LINE      CODE     ---       #101
      010014C5H   LINE      CODE     ---       #102
      010014D1H   LINE      CODE     ---       #103
      010014D4H   LINE      CODE     ---       #104
      010014D7H   LINE      CODE     ---       #105
      010014E3H   LINE      CODE     ---       #106
      010014EBH   LINE      CODE     ---       #107
      010014F2H   LINE      CODE     ---       #108
      010014F4H   LINE      CODE     ---       #109
      010014FEH   LINE      CODE     ---       #110
      010014FEH   LINE      CODE     ---       #111
      0100150AH   LINE      CODE     ---       #112
      0100151FH   LINE      CODE     ---       #113
      01001534H   LINE      CODE     ---       #114
      01001540H   LINE      CODE     ---       #115
      01001543H   LINE      CODE     ---       #116
      0100154FH   LINE      CODE     ---       #117
      01001552H   LINE      CODE     ---       #118
      ---         BLOCKEND  ---      ---       LVL=0

      010010B4H   BLOCK     CODE     ---       LVL=0
      010010B4H   LINE      CODE     ---       #121
      010010B4H   LINE      CODE     ---       #125
      010010C2H   LINE      CODE     ---       #126
      010010C5H   LINE      CODE     ---       #127
      010010C7H   LINE      CODE     ---       #130
      010010CAH   LINE      CODE     ---       #131
      010010D2H   LINE      CODE     ---       #134
      010010D5H   LINE      CODE     ---       #140
      010010E8H   LINE      CODE     ---       #143
      010010EBH   LINE      CODE     ---       #144
      010010F9H   LINE      CODE     ---       #146
      01001103H   LINE      CODE     ---       #149
      0100111AH   LINE      CODE     ---       #152
      01001129H   LINE      CODE     ---       #156
      0100113CH   LINE      CODE     ---       #157
      01001143H   LINE      CODE     ---       #158
      01001153H   LINE      CODE     ---       #159
      01001163H   LINE      CODE     ---       #160
      01001173H   LINE      CODE     ---       #162
      01001183H   LINE      CODE     ---       #163
      01001193H   LINE      CODE     ---       #164
      010011A3H   LINE      CODE     ---       #165
      010011B1H   LINE      CODE     ---       #170
      010011BBH   LINE      CODE     ---       #171
      010011BBH   LINE      CODE     ---       #172
      ---         BLOCKEND  ---      ---       LVL=0

      010019DCH   BLOCK     CODE     ---       LVL=0
      010019DCH   LINE      CODE     ---       #174
      010019DCH   LINE      CODE     ---       #175
      010019DFH   LINE      CODE     ---       #176
      010019DFH   LINE      CODE     ---       #193
      010019E2H   LINE      CODE     ---       #195
      010019EAH   LINE      CODE     ---       #196
      010019F3H   LINE      CODE     ---       #197
      010019F3H   LINE      CODE     ---       #198
      010019FFH   LINE      CODE     ---       #199
      01001A01H   LINE      CODE     ---       #200
LX51 LINKER/LOCATER V4.66.62.0                                                        12/09/2016  09:53:08  PAGE 42


      01001A04H   LINE      CODE     ---       #201
      01001A06H   LINE      CODE     ---       #202
      01001A06H   LINE      CODE     ---       #203
      01001A09H   LINE      CODE     ---       #204
      01001A0BH   LINE      CODE     ---       #205
      01001A17H   LINE      CODE     ---       #206
      01001A17H   LINE      CODE     ---       #207
      01001A17H   LINE      CODE     ---       #208
      01001A17H   LINE      CODE     ---       #209
      01001A1AH   LINE      CODE     ---       #210
      01001A1CH   LINE      CODE     ---       #211
      01001A1CH   LINE      CODE     ---       #213
      01001A29H   LINE      CODE     ---       #214
      01001A2CH   LINE      CODE     ---       #215
      01001A32H   LINE      CODE     ---       #216
      01001A32H   LINE      CODE     ---       #217
      01001A34H   LINE      CODE     ---       #218
      ---         BLOCKEND  ---      ---       LVL=0

      01001CD7H   BLOCK     CODE     ---       LVL=0
      01001CD7H   LINE      CODE     ---       #221
      01001CF4H   LINE      CODE     ---       #222
      01001CF7H   LINE      CODE     ---       #223
      ---         BLOCKEND  ---      ---       LVL=0

      ---         MODULE    ---      ---       HAL_W2_ISR
      00000051H   PUBLIC    DATA     BYTE      w2_status
      00000050H   PUBLIC    DATA     BYTE      data_ready
      00000024H   PUBLIC    DATA     BYTE      ?_i2c_mpu_writeWords?BYTE
      01001B59H   PUBLIC    CODE     ---       _i2c_mpu_writeWords
      0100203DH   PUBLIC    CODE     ---       _i2c_mpu_writeWord
      00000022H   PUBLIC    DATA     BYTE      ?_i2c_mpu_readBits?BYTE
      01001B01H   PUBLIC    CODE     ---       _i2c_mpu_readBits
      0000000FH   PUBLIC    DATA     BYTE      ?_i2c_mpu_readBit?BYTE
      01001E98H   PUBLIC    CODE     ---       _i2c_mpu_readBit
      00000022H   PUBLIC    DATA     BYTE      ?_i2c_mpu_writeBits?BYTE
      01001A41H   PUBLIC    CODE     ---       _i2c_mpu_writeBits
      00000022H   PUBLIC    DATA     BYTE      ?_i2c_mpu_writeBit?BYTE
      01001C02H   PUBLIC    CODE     ---       _i2c_mpu_writeBit
      0000002EH   PUBLIC    DATA     BYTE      ?_i2c_mpu_readBytes?BYTE
      01001AA4H   PUBLIC    CODE     ---       _i2c_mpu_readBytes
      01002086H   PUBLIC    CODE     ---       _i2c_mpu_readByte
      0000002AH   PUBLIC    DATA     BYTE      ?_i2c_mpu_writeBytes?BYTE
      01001D12H   PUBLIC    CODE     ---       _i2c_mpu_writeBytes
      010020CBH   PUBLIC    CODE     ---       _i2c_mpu_writeByte
      010018F7H   PUBLIC    CODE     ---       hal_w2_soft_reset
      0000003DH   PUBLIC    DATA     BYTE      ?_hal_w2_read?BYTE
      01001C95H   PUBLIC    CODE     ---       _hal_w2_read
      00000016H   PUBLIC    DATA     BYTE      ?_hal_w2_write?BYTE
      01001D4CH   PUBLIC    CODE     ---       _hal_w2_write
      01002074H   PUBLIC    CODE     ---       _hal_w2_init_transfer
      01001E71H   PUBLIC    CODE     ---       hal_w2_wait_data_ready
      01001EBCH   PUBLIC    CODE     ---       _hal_w2_configure_master
      0100230CH   PUBLIC    CODE     ---       _hal_w2_all_irq_enable
      01002301H   PUBLIC    CODE     ---       _hal_w2_enable
      010022F6H   PUBLIC    CODE     ---       _hal_w2_set_op_mode
      01002218H   PUBLIC    CODE     ---       _hal_w2_set_clk_freq
      010023F5H   PUBLIC    CODE     ---       _hal_w2_set_slave_address
      010022EBH   PUBLIC    CODE     ---       _hal_w2_irq_adr_match_enable
      010022E0H   PUBLIC    CODE     ---       _hal_w2_irq_stop_cond_enable
      010022D5H   PUBLIC    CODE     ---       _hal_w2_alter_clock
      010022CAH   PUBLIC    CODE     ---       _hal_w2_respond_to_gen_adr
      01002371H   PUBLIC    CODE     ---       I2C_IRQ_handler
      01002367H   PUBLIC    CODE     ---       hal_w2_wait_data_ready_ISR
      00000098H.3 SFRSYM    DATA     BIT       TB80
LX51 LINKER/LOCATER V4.66.62.0                                                        12/09/2016  09:53:08  PAGE 43


      000000BEH   SFRSYM    DATA     BYTE      SPISSTAT
      000000C8H   SFRSYM    DATA     BIT       T2I0
      000000C3H   SFRSYM    DATA     BYTE      CCH1
      00000080H   SFRSYM    DATA     BYTE      P0
      000000C8H.1 SFRSYM    DATA     BIT       T2I1
      000000DFH   SFRSYM    DATA     BYTE      CCPDATO
      000000C5H   SFRSYM    DATA     BYTE      CCH2
      00000090H   SFRSYM    DATA     BYTE      P1
      000000C7H   SFRSYM    DATA     BYTE      CCH3
      000000A0H   SFRSYM    DATA     BYTE      P2
      00000098H.5 SFRSYM    DATA     BIT       SM20
      000000B0H   SFRSYM    DATA     BYTE      P3
      000000D0H.6 SFRSYM    DATA     BIT       AC
      000000C2H   SFRSYM    DATA     BYTE      CCL1
      000000C4H   SFRSYM    DATA     BYTE      CCL2
      000000D8H.7 SFRSYM    DATA     BIT       BD
      000000B8H   SFRSYM    DATA     BIT       RFSPI
      000000A8H.7 SFRSYM    DATA     BIT       EA
      000000CCH   SFRSYM    DATA     WORD      T2
      000000C6H   SFRSYM    DATA     BYTE      CCL3
      000000B7H   SFRSYM    DATA     BYTE      SPISRDSZ
      000000C8H.3 SFRSYM    DATA     BIT       T2R0
      000000C8H.4 SFRSYM    DATA     BIT       T2R1
      000000A8H   SFRSYM    DATA     BYTE      IEN0
      000000B8H   SFRSYM    DATA     BYTE      IEN1
      000000A5H   SFRSYM    DATA     BYTE      WUCON
      00000085H   SFRSYM    DATA     BYTE      DPH1
      000000DBH   SFRSYM    DATA     BYTE      COMPCON
      000000A3H   SFRSYM    DATA     BYTE      CLKCTRL
      00000084H   SFRSYM    DATA     BYTE      DPL1
      000000C8H.5 SFRSYM    DATA     BIT       I2FR
      000000B8H.3 SFRSYM    DATA     BIT       WUPIN
      000000C8H.6 SFRSYM    DATA     BIT       I3FR
      000000FFH   SFRSYM    DATA     BYTE      SPIMDAT
      000000C0H.7 SFRSYM    DATA     BIT       EXF2
      00000098H.4 SFRSYM    DATA     BIT       REN0
      000000C8H.2 SFRSYM    DATA     BIT       T2CM
      000000B8H.1 SFRSYM    DATA     BIT       RF
      000000B8H.5 SFRSYM    DATA     BIT       WUIRQ
      000000E7H   SFRSYM    DATA     BYTE      SPIRDAT
      000000C1H   SFRSYM    DATA     BYTE      CCEN
      000000E2H   SFRSYM    DATA     BYTE      W2CON0
      000000BFH   SFRSYM    DATA     BYTE      SPISDAT
      000000D0H.7 SFRSYM    DATA     BIT       CY
      000000E1H   SFRSYM    DATA     BYTE      W2CON1
      000000FBH   SFRSYM    DATA     BYTE      FDCR
      000000E8H   SFRSYM    DATA     BIT       RFCE
      000000CBH   SFRSYM    DATA     BYTE      CRCH
      00000081H   SFRSYM    DATA     BYTE      SP
      000000D0H.2 SFRSYM    DATA     BIT       OV
      000000CAH   SFRSYM    DATA     BYTE      CRCL
      000000ADH   SFRSYM    DATA     BYTE      CLKLFCTRL
      000000B1H   SFRSYM    DATA     BYTE      RSTREAS
      000000C8H.7 SFRSYM    DATA     BIT       T2PS
      000000F9H   SFRSYM    DATA     BYTE      FPCR
      000000B8H.4 SFRSYM    DATA     BIT       MISC
      000000A1H   SFRSYM    DATA     BYTE      PWMDC0
      000000B4H   SFRSYM    DATA     BYTE      RTC2CMP0
      000000A2H   SFRSYM    DATA     BYTE      PWMDC1
      000000B5H   SFRSYM    DATA     BYTE      RTC2CMP1
      00000080H   SFRSYM    DATA     BIT       P00
      000000BAH   SFRSYM    DATA     BYTE      S0RELH
      00000090H   SFRSYM    DATA     BIT       P10
      00000080H.1 SFRSYM    DATA     BIT       P01
      00000087H   SFRSYM    DATA     BYTE      PCON
LX51 LINKER/LOCATER V4.66.62.0                                                        12/09/2016  09:53:08  PAGE 44


      000000A0H   SFRSYM    DATA     BIT       P20
      00000090H.1 SFRSYM    DATA     BIT       P11
      00000080H.2 SFRSYM    DATA     BIT       P02
      000000B0H   SFRSYM    DATA     BIT       P30
      000000A0H.1 SFRSYM    DATA     BIT       P21
      00000090H.2 SFRSYM    DATA     BIT       P12
      00000080H.3 SFRSYM    DATA     BIT       P03
      000000C0H.2 SFRSYM    DATA     BIT       SPIF
      000000F8H.2 SFRSYM    DATA     BIT       RDIS
      000000B0H.1 SFRSYM    DATA     BIT       P31
      000000A0H.2 SFRSYM    DATA     BIT       P22
      00000090H.3 SFRSYM    DATA     BIT       P13
      00000080H.4 SFRSYM    DATA     BIT       P04
      000000AAH   SFRSYM    DATA     BYTE      S0RELL
      000000B0H.2 SFRSYM    DATA     BIT       P32
      000000A0H.3 SFRSYM    DATA     BIT       P23
      00000090H.4 SFRSYM    DATA     BIT       P14
      00000080H.5 SFRSYM    DATA     BIT       P05
      000000D9H   SFRSYM    DATA     BYTE      W2SADR
      00000089H   SFRSYM    DATA     BYTE      TMOD
      00000088H   SFRSYM    DATA     BYTE      TCON
      000000B0H.3 SFRSYM    DATA     BIT       P33
      000000A0H.4 SFRSYM    DATA     BIT       P24
      00000090H.5 SFRSYM    DATA     BIT       P15
      00000080H.6 SFRSYM    DATA     BIT       P06
      000000B0H.4 SFRSYM    DATA     BIT       P34
      000000A0H.5 SFRSYM    DATA     BIT       P25
      00000090H.6 SFRSYM    DATA     BIT       P16
      00000080H.7 SFRSYM    DATA     BIT       P07
      000000C2H   SFRSYM    DATA     WORD      CC1
      000000B0H.5 SFRSYM    DATA     BIT       P35
      000000A0H.6 SFRSYM    DATA     BIT       P26
      00000090H.7 SFRSYM    DATA     BIT       P17
      000000C4H   SFRSYM    DATA     WORD      CC2
      000000B0H.6 SFRSYM    DATA     BIT       P36
      000000A0H.7 SFRSYM    DATA     BIT       P27
      000000C6H   SFRSYM    DATA     WORD      CC3
      000000B0H.7 SFRSYM    DATA     BIT       P37
      000000E8H.2 SFRSYM    DATA     BIT       RFCKEN
      000000F8H   SFRSYM    DATA     BIT       WPEN
      000000DDH   SFRSYM    DATA     BYTE      CCPDATIA
      000000DEH   SFRSYM    DATA     BYTE      CCPDATIB
      00000088H.1 SFRSYM    DATA     BIT       IE0
      000000F8H.4 SFRSYM    DATA     BIT       RDYN
      00000088H.3 SFRSYM    DATA     BIT       IE1
      000000CFH   SFRSYM    DATA     BYTE      WUOPC0
      000000F0H   SFRSYM    DATA     BYTE      B
      000000E9H   SFRSYM    DATA     BYTE      MD0
      000000CEH   SFRSYM    DATA     BYTE      WUOPC1
      000000A7H   SFRSYM    DATA     BYTE      MEMCON
      000000EAH   SFRSYM    DATA     BYTE      MD1
      000000D7H   SFRSYM    DATA     BYTE      RNGDAT
      000000EBH   SFRSYM    DATA     BYTE      MD2
      000000ECH   SFRSYM    DATA     BYTE      MD3
      000000EDH   SFRSYM    DATA     BYTE      MD4
      000000AFH   SFRSYM    DATA     BYTE      WDSV
      000000EEH   SFRSYM    DATA     BYTE      MD5
      000000E0H   SFRSYM    DATA     BYTE      ACC
      000000DCH   SFRSYM    DATA     BYTE      POFCON
      000000A8H.4 SFRSYM    DATA     BIT       ES0
      000000A8H.1 SFRSYM    DATA     BIT       ET0
      000000A9H   SFRSYM    DATA     BYTE      IP0
      000000A8H.3 SFRSYM    DATA     BIT       ET1
      00000088H.5 SFRSYM    DATA     BIT       TF0
      000000B9H   SFRSYM    DATA     BYTE      IP1
LX51 LINKER/LOCATER V4.66.62.0                                                        12/09/2016  09:53:08  PAGE 45


      000000A8H.5 SFRSYM    DATA     BIT       ET2
      00000098H   SFRSYM    DATA     BIT       RI0
      00000088H.7 SFRSYM    DATA     BIT       TF1
      000000C0H   SFRSYM    DATA     BIT       RFSPIF
      000000C0H.6 SFRSYM    DATA     BIT       TF2
      000000FCH   SFRSYM    DATA     BYTE      SPIMCON0
      000000D6H   SFRSYM    DATA     BYTE      RNGCTL
      0000008CH   SFRSYM    DATA     BYTE      TH0
      000000A8H   SFRSYM    DATA     BIT       EX0
      00000098H.1 SFRSYM    DATA     BIT       TI0
      00000088H   SFRSYM    DATA     BIT       IT0
      000000FDH   SFRSYM    DATA     BYTE      SPIMCON1
      0000008DH   SFRSYM    DATA     BYTE      TH1
      000000A8H.2 SFRSYM    DATA     BIT       EX1
      00000088H.2 SFRSYM    DATA     BIT       IT1
      000000CDH   SFRSYM    DATA     BYTE      TH2
      000000AEH   SFRSYM    DATA     BYTE      OPMCON
      000000D0H   SFRSYM    DATA     BIT       P
      00000098H.7 SFRSYM    DATA     BIT       SM0
      0000008AH   SFRSYM    DATA     BYTE      TL0
      00000098H.6 SFRSYM    DATA     BIT       SM1
      000000E4H   SFRSYM    DATA     BYTE      SPIRCON0
      0000008BH   SFRSYM    DATA     BYTE      TL1
      000000E5H   SFRSYM    DATA     BYTE      SPIRCON1
      000000CCH   SFRSYM    DATA     BYTE      TL2
      000000BCH   SFRSYM    DATA     BYTE      SPISCON0
      000000BDH   SFRSYM    DATA     BYTE      SPISCON1
      000000D0H.3 SFRSYM    DATA     BIT       RS0
      00000088H.4 SFRSYM    DATA     BIT       TR0
      000000D0H.4 SFRSYM    DATA     BIT       RS1
      000000B2H   SFRSYM    DATA     BYTE      PWMCON
      00000088H.6 SFRSYM    DATA     BIT       TR1
      000000CAH   SFRSYM    DATA     WORD      CRC
      000000A6H   SFRSYM    DATA     BYTE      INTEXP
      000000C0H.3 SFRSYM    DATA     BIT       WUPINF
      000000FAH   SFRSYM    DATA     BYTE      FCR
      000000D3H   SFRSYM    DATA     BYTE      ADCCON1
      000000D2H   SFRSYM    DATA     BYTE      ADCCON2
      00000083H   SFRSYM    DATA     BYTE      DPH
      000000D1H   SFRSYM    DATA     BYTE      ADCCON3
      000000C0H.1 SFRSYM    DATA     BIT       RFF
      00000093H   SFRSYM    DATA     BYTE      P0DIR
      00000082H   SFRSYM    DATA     BYTE      DPL
      0000009EH   SFRSYM    DATA     BYTE      P0CON
      00000099H   SFRSYM    DATA     BYTE      S0BUF
      00000094H   SFRSYM    DATA     BYTE      P1DIR
      0000009FH   SFRSYM    DATA     BYTE      P1CON
      00000095H   SFRSYM    DATA     BYTE      P2DIR
      000000B8H.7 SFRSYM    DATA     BIT       EXEN2
      000000DAH   SFRSYM    DATA     BYTE      W2DAT
      00000097H   SFRSYM    DATA     BYTE      P2CON
      00000096H   SFRSYM    DATA     BYTE      P3DIR
      000000A4H   SFRSYM    DATA     BYTE      PWRDWN
      00000098H   SFRSYM    DATA     BYTE      S0CON
      0000008FH   SFRSYM    DATA     BYTE      P3CON
      000000B6H   SFRSYM    DATA     BYTE      RTC2CPT00
      000000D8H   SFRSYM    DATA     BYTE      ADCON
      000000ACH   SFRSYM    DATA     BYTE      RTC2CPT10
      000000ABH   SFRSYM    DATA     BYTE      RTC2CPT01
      000000C8H   SFRSYM    DATA     BYTE      T2CON
      00000092H   SFRSYM    DATA     BYTE      DPS
      000000F8H.5 SFRSYM    DATA     BIT       WEN
      000000F8H   SFRSYM    DATA     BYTE      FSR
      000000D4H   SFRSYM    DATA     BYTE      ADCDATH
      000000C9H   SFRSYM    DATA     BYTE      MPAGE
LX51 LINKER/LOCATER V4.66.62.0                                                        12/09/2016  09:53:08  PAGE 46


      000000B8H.2 SFRSYM    DATA     BIT       SPI
      000000F8H.1 SFRSYM    DATA     BIT       RDEND
      000000D5H   SFRSYM    DATA     BYTE      ADCDATL
      000000F8H.3 SFRSYM    DATA     BIT       INFEN
      000000F8H.7 SFRSYM    DATA     BIT       MCDIS
      000000C0H.5 SFRSYM    DATA     BIT       WUF
      000000C0H.4 SFRSYM    DATA     BIT       MISCF
      000000EFH   SFRSYM    DATA     BYTE      ARCON
      000000D0H.5 SFRSYM    DATA     BIT       F0
      000000F8H.6 SFRSYM    DATA     BIT       STP
      000000FEH   SFRSYM    DATA     BYTE      SPIMSTAT
      000000E8H   SFRSYM    DATA     BYTE      RFCON
      000000D0H   SFRSYM    DATA     BYTE      PSW
      00000098H.2 SFRSYM    DATA     BIT       RB80
      000000C0H   SFRSYM    DATA     BYTE      IRCON
      000000E8H.1 SFRSYM    DATA     BIT       RFCSN
      000000E6H   SFRSYM    DATA     BYTE      SPIRSTAT
      000000B3H   SFRSYM    DATA     BYTE      RTC2CON

      01002226H   BLOCK     CODE     ---       LVL=0
      ---         BLOCKEND  ---      ---       LVL=0

      01002367H   BLOCK     CODE     ---       LVL=0
      01002367H   LINE      CODE     ---       #39
      01002367H   LINE      CODE     ---       #40
      01002367H   LINE      CODE     ---       #41
      0100236AH   LINE      CODE     ---       #42
      0100236EH   LINE      CODE     ---       #43
      01002370H   LINE      CODE     ---       #44
      ---         BLOCKEND  ---      ---       LVL=0

      01002371H   BLOCK     CODE     ---       LVL=0
      01002371H   LINE      CODE     ---       #45
      01002371H   LINE      CODE     ---       #46
      01002371H   LINE      CODE     ---       #48
      01002374H   LINE      CODE     ---       #49
      0100237AH   LINE      CODE     ---       #51
      ---         BLOCKEND  ---      ---       LVL=0

      010022CAH   BLOCK     CODE     ---       LVL=0
      00000007H   SYMBOL    DATA     BYTE      resp_gen
      010022CAH   LINE      CODE     ---       #52
      010022CAH   LINE      CODE     ---       #53
      010022CAH   LINE      CODE     ---       #54
      010022CDH   LINE      CODE     ---       #55
      010022CDH   LINE      CODE     ---       #56
      010022D0H   LINE      CODE     ---       #57
      010022D1H   LINE      CODE     ---       #59
      010022D1H   LINE      CODE     ---       #60
      010022D4H   LINE      CODE     ---       #61
      010022D4H   LINE      CODE     ---       #62
      ---         BLOCKEND  ---      ---       LVL=0

      010022D5H   BLOCK     CODE     ---       LVL=0
      00000007H   SYMBOL    DATA     BYTE      alt_clk
      010022D5H   LINE      CODE     ---       #64
      010022D5H   LINE      CODE     ---       #65
      010022D5H   LINE      CODE     ---       #66
      010022D8H   LINE      CODE     ---       #67
      010022D8H   LINE      CODE     ---       #68
      010022DBH   LINE      CODE     ---       #69
      010022DCH   LINE      CODE     ---       #71
      010022DCH   LINE      CODE     ---       #72
      010022DFH   LINE      CODE     ---       #73
      010022DFH   LINE      CODE     ---       #74
LX51 LINKER/LOCATER V4.66.62.0                                                        12/09/2016  09:53:08  PAGE 47


      ---         BLOCKEND  ---      ---       LVL=0

      010022E0H   BLOCK     CODE     ---       LVL=0
      00000007H   SYMBOL    DATA     BYTE      stop_cond
      010022E0H   LINE      CODE     ---       #76
      010022E0H   LINE      CODE     ---       #77
      010022E0H   LINE      CODE     ---       #78
      010022E3H   LINE      CODE     ---       #79
      010022E3H   LINE      CODE     ---       #80
      010022E6H   LINE      CODE     ---       #81
      010022E7H   LINE      CODE     ---       #83
      010022E7H   LINE      CODE     ---       #84
      010022EAH   LINE      CODE     ---       #85
      010022EAH   LINE      CODE     ---       #86
      ---         BLOCKEND  ---      ---       LVL=0

      010022EBH   BLOCK     CODE     ---       LVL=0
      00000007H   SYMBOL    DATA     BYTE      addr_match
      010022EBH   LINE      CODE     ---       #88
      010022EBH   LINE      CODE     ---       #89
      010022EBH   LINE      CODE     ---       #90
      010022EEH   LINE      CODE     ---       #91
      010022EEH   LINE      CODE     ---       #92
      010022F1H   LINE      CODE     ---       #93
      010022F2H   LINE      CODE     ---       #95
      010022F2H   LINE      CODE     ---       #96
      010022F5H   LINE      CODE     ---       #97
      010022F5H   LINE      CODE     ---       #98
      ---         BLOCKEND  ---      ---       LVL=0

      010023F5H   BLOCK     CODE     ---       LVL=0
      00000007H   SYMBOL    DATA     BYTE      address
      010023F5H   LINE      CODE     ---       #100
      010023F5H   LINE      CODE     ---       #101
      010023F5H   LINE      CODE     ---       #102
      010023FAH   LINE      CODE     ---       #103
      ---         BLOCKEND  ---      ---       LVL=0

      01002218H   BLOCK     CODE     ---       LVL=0
      00000007H   SYMBOL    DATA     BYTE      freq
      01002218H   LINE      CODE     ---       #107
      01002218H   LINE      CODE     ---       #108
      01002218H   LINE      CODE     ---       #109
      01002225H   LINE      CODE     ---       #110
      ---         BLOCKEND  ---      ---       LVL=0

      010022F6H   BLOCK     CODE     ---       LVL=0
      00000007H   SYMBOL    DATA     BYTE      mode
      010022F6H   LINE      CODE     ---       #112
      010022F6H   LINE      CODE     ---       #113
      010022F6H   LINE      CODE     ---       #114
      010022F9H   LINE      CODE     ---       #115
      010022F9H   LINE      CODE     ---       #116
      010022FCH   LINE      CODE     ---       #117
      010022FDH   LINE      CODE     ---       #119
      010022FDH   LINE      CODE     ---       #120
      01002300H   LINE      CODE     ---       #121
      01002300H   LINE      CODE     ---       #122
      ---         BLOCKEND  ---      ---       LVL=0

      01002301H   BLOCK     CODE     ---       LVL=0
      00000007H   SYMBOL    DATA     BYTE      en
      01002301H   LINE      CODE     ---       #124
      01002301H   LINE      CODE     ---       #125
      01002301H   LINE      CODE     ---       #126
LX51 LINKER/LOCATER V4.66.62.0                                                        12/09/2016  09:53:08  PAGE 48


      01002304H   LINE      CODE     ---       #127
      01002304H   LINE      CODE     ---       #128
      01002307H   LINE      CODE     ---       #129
      01002308H   LINE      CODE     ---       #131
      01002308H   LINE      CODE     ---       #132
      0100230BH   LINE      CODE     ---       #133
      0100230BH   LINE      CODE     ---       #134
      ---         BLOCKEND  ---      ---       LVL=0

      0100230CH   BLOCK     CODE     ---       LVL=0
      00000007H   SYMBOL    DATA     BYTE      irq
      0100230CH   LINE      CODE     ---       #136
      0100230CH   LINE      CODE     ---       #137
      0100230CH   LINE      CODE     ---       #140
      0100230FH   LINE      CODE     ---       #141
      0100230FH   LINE      CODE     ---       #142
      01002312H   LINE      CODE     ---       #143
      01002313H   LINE      CODE     ---       #145
      01002313H   LINE      CODE     ---       #146
      01002316H   LINE      CODE     ---       #147
      01002316H   LINE      CODE     ---       #148
      ---         BLOCKEND  ---      ---       LVL=0

      01001EBCH   BLOCK     CODE     ---       LVL=0
      00000006H   SYMBOL    DATA     BYTE      mode
      01001EBCH   LINE      CODE     ---       #150
      01001EBEH   LINE      CODE     ---       #151
      01001EBEH   LINE      CODE     ---       #152
      01001EC3H   LINE      CODE     ---       #153
      01001EC8H   LINE      CODE     ---       #154
      01001ECDH   LINE      CODE     ---       #156
      01001ED0H   LINE      CODE     ---       #157
      01001ED3H   LINE      CODE     ---       #158
      01001ED6H   LINE      CODE     ---       #160
      01001EDAH   LINE      CODE     ---       #161
      01001EDCH   LINE      CODE     ---       #162
      ---         BLOCKEND  ---      ---       LVL=0

      01001E71H   BLOCK     CODE     ---       LVL=0
      01001E71H   BLOCK     CODE     NEAR LAB  LVL=1
      00000008H   SYMBOL    DATA     DWORD     timeout_counter
      0000000CH   SYMBOL    DATA     BYTE      w2_status
      0000000DH   SYMBOL    DATA     BYTE      data_ready
      0000000EH   SYMBOL    DATA     BYTE      nack_received
      ---         BLOCKEND  ---      ---       LVL=1
      01001E71H   LINE      CODE     ---       #164
      01001E71H   LINE      CODE     ---       #165
      01001E71H   LINE      CODE     ---       #166
      01001E7BH   LINE      CODE     ---       #172
      01001E7BH   LINE      CODE     ---       #173
      01001E7EH   LINE      CODE     ---       #174
      01001E84H   LINE      CODE     ---       #175
      01001E8AH   LINE      CODE     ---       #176
      01001E91H   LINE      CODE     ---       #177
      01001E95H   LINE      CODE     ---       #180
      01001E97H   LINE      CODE     ---       #181
      ---         BLOCKEND  ---      ---       LVL=0

      01002074H   BLOCK     CODE     ---       LVL=0
      00000007H   SYMBOL    DATA     BYTE      address
      00000005H   SYMBOL    DATA     BYTE      direction
      01002074H   BLOCK     CODE     NEAR LAB  LVL=1
      00000007H   SYMBOL    DATA     BYTE      w2_status
      ---         BLOCKEND  ---      ---       LVL=1
      01002074H   LINE      CODE     ---       #183
LX51 LINKER/LOCATER V4.66.62.0                                                        12/09/2016  09:53:08  PAGE 49


      01002074H   LINE      CODE     ---       #184
      01002074H   LINE      CODE     ---       #187
      01002077H   LINE      CODE     ---       #188
      0100207BH   LINE      CODE     ---       #190
      0100207BH   LINE      CODE     ---       #192
      01002083H   LINE      CODE     ---       #193
      01002083H   LINE      CODE     ---       #194
      01002085H   LINE      CODE     ---       #195
      01002085H   LINE      CODE     ---       #197
      01002085H   LINE      CODE     ---       #198
      01002085H   LINE      CODE     ---       #199
      01002085H   LINE      CODE     ---       #200
      ---         BLOCKEND  ---      ---       LVL=0

      01001D4CH   BLOCK     CODE     ---       LVL=0
      00000007H   SYMBOL    DATA     BYTE      address
      00000017H   SYMBOL    DATA     ---       data_ptr
      0000001AH   SYMBOL    DATA     BYTE      data_len
      01001D52H   BLOCK     CODE     NEAR LAB  LVL=1
      00000006H   SYMBOL    DATA     BYTE      ack_received
      01001D66H   BLOCK     CODE     NEAR LAB  LVL=2
      0000001BH   SYMBOL    DATA     BYTE      w2_status
      ---         BLOCKEND  ---      ---       LVL=2
      ---         BLOCKEND  ---      ---       LVL=1
      01001D4CH   LINE      CODE     ---       #202
      01001D52H   LINE      CODE     ---       #203
      01001D52H   LINE      CODE     ---       #205
      01001D59H   LINE      CODE     ---       #207
      01001D66H   LINE      CODE     ---       #208
      01001D66H   LINE      CODE     ---       #210
      01001D70H   LINE      CODE     ---       #211
      01001D75H   LINE      CODE     ---       #212
      01001D7AH   LINE      CODE     ---       #213
      01001D7AH   LINE      CODE     ---       #214
      01001D7CH   LINE      CODE     ---       #215
      01001D7CH   LINE      CODE     ---       #216
      01001D7EH   LINE      CODE     ---       #218
      01001D81H   LINE      CODE     ---       #220
      01001D83H   LINE      CODE     ---       #221
      ---         BLOCKEND  ---      ---       LVL=0

      01001C95H   BLOCK     CODE     ---       LVL=0
      00000007H   SYMBOL    DATA     BYTE      address
      0000003EH   SYMBOL    DATA     ---       data_ptr
      00000041H   SYMBOL    DATA     BYTE      data_len
      01001C9BH   BLOCK     CODE     NEAR LAB  LVL=1
      00000007H   SYMBOL    DATA     BYTE      w2_status
      00000042H   SYMBOL    DATA     BYTE      ack_received
      ---         BLOCKEND  ---      ---       LVL=1
      01001C95H   LINE      CODE     ---       #223
      01001C9BH   LINE      CODE     ---       #224
      01001C9BH   LINE      CODE     ---       #228
      01001CA2H   LINE      CODE     ---       #230
      01001CA6H   LINE      CODE     ---       #231
      01001CA6H   LINE      CODE     ---       #233
      01001CA9H   LINE      CODE     ---       #234
      01001CA9H   LINE      CODE     ---       #237
      01001CB4H   LINE      CODE     ---       #238
      01001CB4H   LINE      CODE     ---       #239
      01001CB8H   LINE      CODE     ---       #240
      01001CB8H   LINE      CODE     ---       #241
      01001CBBH   LINE      CODE     ---       #242
      01001CBBH   LINE      CODE     ---       #244
      01001CBEH   LINE      CODE     ---       #246
      01001CC8H   LINE      CODE     ---       #247
LX51 LINKER/LOCATER V4.66.62.0                                                        12/09/2016  09:53:08  PAGE 50


      01001CD2H   LINE      CODE     ---       #248
      01001CD4H   LINE      CODE     ---       #250
      01001CD6H   LINE      CODE     ---       #251
      ---         BLOCKEND  ---      ---       LVL=0

      010018F7H   BLOCK     CODE     ---       LVL=0
      010018F7H   BLOCK     CODE     NEAR LAB  LVL=1
      00000036H   SYMBOL    DATA     BYTE      pulsecount
      00000037H   SYMBOL    DATA     BYTE      w2_freq
      ---         BLOCKEND  ---      ---       LVL=1
      010018F7H   LINE      CODE     ---       #253
      010018F7H   LINE      CODE     ---       #254
      010018F7H   LINE      CODE     ---       #259
      010018FDH   LINE      CODE     ---       #261
      01001900H   LINE      CODE     ---       #262
      01001908H   LINE      CODE     ---       #266
      0100190BH   LINE      CODE     ---       #267
      0100190EH   LINE      CODE     ---       #270
      01001911H   LINE      CODE     ---       #275
      01001917H   LINE      CODE     ---       #278
      01001917H   LINE      CODE     ---       #280
      01001917H   LINE      CODE     ---       #284
      0100191AH   LINE      CODE     ---       #285
      0100191DH   LINE      CODE     ---       #286
      0100191DH   LINE      CODE     ---       #288
      01001923H   LINE      CODE     ---       #289
      01001923H   LINE      CODE     ---       #291
      01001923H   LINE      CODE     ---       #292
      01001926H   LINE      CODE     ---       #293
      0100192FH   LINE      CODE     ---       #296
      0100192FH   LINE      CODE     ---       #298
      01001936H   LINE      CODE     ---       #301
      01001936H   LINE      CODE     ---       #303
      0100193DH   LINE      CODE     ---       #306
      01001940H   LINE      CODE     ---       #309
      01001943H   LINE      CODE     ---       #310
      01001949H   LINE      CODE     ---       #312
      ---         BLOCKEND  ---      ---       LVL=0

      010020CBH   BLOCK     CODE     ---       LVL=0
      00000007H   SYMBOL    DATA     BYTE      devAddr
      00000005H   SYMBOL    DATA     BYTE      regAddr
      00000029H   SYMBOL    DATA     BYTE      data_to_write
      010020CBH   LINE      CODE     ---       #317
      010020CDH   LINE      CODE     ---       #318
      010020DBH   LINE      CODE     ---       #319
      ---         BLOCKEND  ---      ---       LVL=0

      01001D12H   BLOCK     CODE     ---       LVL=0
      00000007H   SYMBOL    DATA     BYTE      devAddr
      00000004H   SYMBOL    DATA     BYTE      regAddr
      00000006H   SYMBOL    DATA     BYTE      data_len
      0000002DH   SYMBOL    DATA     ---       data_ptr
      01001D16H   BLOCK     CODE     NEAR LAB  LVL=1
      00000007H   SYMBOL    DATA     BYTE      w2_status
      00000005H   SYMBOL    DATA     BYTE      ack_received
      ---         BLOCKEND  ---      ---       LVL=1
      01001D12H   LINE      CODE     ---       #321
      01001D16H   LINE      CODE     ---       #326
      01001D1DH   LINE      CODE     ---       #327
      01001D1FH   LINE      CODE     ---       #328
      01001D22H   LINE      CODE     ---       #329
      01001D26H   LINE      CODE     ---       #330
      01001D26H   LINE      CODE     ---       #331
      01001D28H   LINE      CODE     ---       #332
LX51 LINKER/LOCATER V4.66.62.0                                                        12/09/2016  09:53:08  PAGE 51


      01001D28H   LINE      CODE     ---       #334
      01001D34H   LINE      CODE     ---       #335
      01001D34H   LINE      CODE     ---       #336
      01001D3CH   LINE      CODE     ---       #337
      01001D3CH   LINE      CODE     ---       #338
      01001D42H   LINE      CODE     ---       #339
      01001D42H   LINE      CODE     ---       #340
      01001D44H   LINE      CODE     ---       #341
      01001D44H   LINE      CODE     ---       #342
      01001D46H   LINE      CODE     ---       #343
      01001D49H   LINE      CODE     ---       #345
      01001D4BH   LINE      CODE     ---       #346
      ---         BLOCKEND  ---      ---       LVL=0

      01002086H   BLOCK     CODE     ---       LVL=0
      00000007H   SYMBOL    DATA     BYTE      devAddr
      00000005H   SYMBOL    DATA     BYTE      regAddr
      0000002BH   SYMBOL    DATA     ---       data_ptr
      01002086H   LINE      CODE     ---       #348
      0100208CH   LINE      CODE     ---       #349
      01002097H   LINE      CODE     ---       #350
      ---         BLOCKEND  ---      ---       LVL=0

      01001AA4H   BLOCK     CODE     ---       LVL=0
      00000006H   SYMBOL    DATA     BYTE      devAddr
      00000004H   SYMBOL    DATA     BYTE      regAddr
      00000030H   SYMBOL    DATA     BYTE      data_len
      00000031H   SYMBOL    DATA     ---       data_ptr
      01001AAAH   BLOCK     CODE     NEAR LAB  LVL=1
      00000034H   SYMBOL    DATA     BYTE      w2_status
      00000035H   SYMBOL    DATA     BYTE      ack_received
      ---         BLOCKEND  ---      ---       LVL=1
      01001AA4H   LINE      CODE     ---       #352
      01001AAAH   LINE      CODE     ---       #357
      01001AB1H   LINE      CODE     ---       #358
      01001AB3H   LINE      CODE     ---       #359
      01001AB8H   LINE      CODE     ---       #360
      01001ABDH   LINE      CODE     ---       #361
      01001ABDH   LINE      CODE     ---       #362
      01001AC0H   LINE      CODE     ---       #363
      01001AC0H   LINE      CODE     ---       #367
      01001AC9H   LINE      CODE     ---       #369
      01001ACDH   LINE      CODE     ---       #370
      01001ACDH   LINE      CODE     ---       #372
      01001AD0H   LINE      CODE     ---       #374
      01001AD0H   LINE      CODE     ---       #376
      01001ADBH   LINE      CODE     ---       #377
      01001ADBH   LINE      CODE     ---       #378
      01001ADFH   LINE      CODE     ---       #379
      01001ADFH   LINE      CODE     ---       #380
      01001AE2H   LINE      CODE     ---       #381
      01001AE2H   LINE      CODE     ---       #383
      01001AE7H   LINE      CODE     ---       #385
      01001AF1H   LINE      CODE     ---       #386
      01001AFCH   LINE      CODE     ---       #387
      01001AFEH   LINE      CODE     ---       #389
      01001B00H   LINE      CODE     ---       #390
      ---         BLOCKEND  ---      ---       LVL=0

      01001C02H   BLOCK     CODE     ---       LVL=0
      00000022H   SYMBOL    DATA     BYTE      devAddr
      00000023H   SYMBOL    DATA     BYTE      regAddr
      00000024H   SYMBOL    DATA     BYTE      bitNum
      00000025H   SYMBOL    DATA     BYTE      data_to_write
      01001C08H   BLOCK     CODE     NEAR LAB  LVL=1
LX51 LINKER/LOCATER V4.66.62.0                                                        12/09/2016  09:53:08  PAGE 52


      00000026H   SYMBOL    DATA     BYTE      b
      ---         BLOCKEND  ---      ---       LVL=1
      01001C02H   LINE      CODE     ---       #393
      01001C08H   LINE      CODE     ---       #395
      01001C11H   LINE      CODE     ---       #396
      01001C46H   LINE      CODE     ---       #397
      01001C4FH   LINE      CODE     ---       #398
      ---         BLOCKEND  ---      ---       LVL=0

      01001A41H   BLOCK     CODE     ---       LVL=0
      00000022H   SYMBOL    DATA     BYTE      devAddr
      00000023H   SYMBOL    DATA     BYTE      regAddr
      00000024H   SYMBOL    DATA     BYTE      bitStart
      00000025H   SYMBOL    DATA     BYTE      data_length
      00000026H   SYMBOL    DATA     BYTE      data_to_write
      01001A47H   BLOCK     CODE     NEAR LAB  LVL=1
      00000027H   SYMBOL    DATA     BYTE      b
      01001A53H   BLOCK     CODE     NEAR LAB  LVL=2
      00000028H   SYMBOL    DATA     BYTE      mask
      ---         BLOCKEND  ---      ---       LVL=2
      ---         BLOCKEND  ---      ---       LVL=1
      01001A41H   LINE      CODE     ---       #399
      01001A47H   LINE      CODE     ---       #408
      01001A53H   LINE      CODE     ---       #409
      01001A80H   LINE      CODE     ---       #410
      01001A8DH   LINE      CODE     ---       #411
      01001A91H   LINE      CODE     ---       #412
      01001A94H   LINE      CODE     ---       #413
      01001A98H   LINE      CODE     ---       #414
      01001AA1H   LINE      CODE     ---       #415
      01001AA1H   LINE      CODE     ---       #416
      01001AA3H   LINE      CODE     ---       #417
      01001AA3H   LINE      CODE     ---       #418
      ---         BLOCKEND  ---      ---       LVL=0

      01001E98H   BLOCK     CODE     ---       LVL=0
      00000007H   SYMBOL    DATA     BYTE      devAddr
      00000005H   SYMBOL    DATA     BYTE      regAddr
      00000011H   SYMBOL    DATA     BYTE      bitNum
      00000012H   SYMBOL    DATA     ---       data_ptr
      01001E9AH   BLOCK     CODE     NEAR LAB  LVL=1
      00000015H   SYMBOL    DATA     BYTE      b
      00000007H   SYMBOL    DATA     BYTE      count
      ---         BLOCKEND  ---      ---       LVL=1
      01001E98H   LINE      CODE     ---       #419
      01001E9AH   LINE      CODE     ---       #421
      01001EA3H   LINE      CODE     ---       #422
      01001EBBH   LINE      CODE     ---       #423
      01001EBBH   LINE      CODE     ---       #424
      ---         BLOCKEND  ---      ---       LVL=0

      01001B01H   BLOCK     CODE     ---       LVL=0
      00000007H   SYMBOL    DATA     BYTE      devAddr
      00000005H   SYMBOL    DATA     BYTE      regAddr
      00000024H   SYMBOL    DATA     BYTE      bitStart
      00000025H   SYMBOL    DATA     BYTE      data_length
      00000026H   SYMBOL    DATA     ---       data_ptr
      01001B03H   BLOCK     CODE     NEAR LAB  LVL=1
      00000005H   SYMBOL    DATA     BYTE      count
      00000029H   SYMBOL    DATA     BYTE      b
      01001B11H   BLOCK     CODE     NEAR LAB  LVL=2
      0000002AH   SYMBOL    DATA     BYTE      mask
      ---         BLOCKEND  ---      ---       LVL=2
      ---         BLOCKEND  ---      ---       LVL=1
      01001B01H   LINE      CODE     ---       #425
LX51 LINKER/LOCATER V4.66.62.0                                                        12/09/2016  09:53:08  PAGE 53


      01001B03H   LINE      CODE     ---       #432
      01001B11H   LINE      CODE     ---       #433
      01001B3EH   LINE      CODE     ---       #434
      01001B40H   LINE      CODE     ---       #435
      01001B4DH   LINE      CODE     ---       #436
      01001B56H   LINE      CODE     ---       #437
      01001B56H   LINE      CODE     ---       #438
      01001B58H   LINE      CODE     ---       #439
      ---         BLOCKEND  ---      ---       LVL=0

      0100203DH   BLOCK     CODE     ---       LVL=0
      00000007H   SYMBOL    DATA     BYTE      devAddr
      00000005H   SYMBOL    DATA     BYTE      regAddr
      00000022H   SYMBOL    DATA     WORD      data_to_write
      0100203DH   LINE      CODE     ---       #442
      01002041H   LINE      CODE     ---       #443
      0100204FH   LINE      CODE     ---       #444
      ---         BLOCKEND  ---      ---       LVL=0

      01001B59H   BLOCK     CODE     ---       LVL=0
      00000007H   SYMBOL    DATA     BYTE      devAddr
      00000006H   SYMBOL    DATA     BYTE      regAddr
      00000004H   SYMBOL    DATA     BYTE      data_length
      00000027H   SYMBOL    DATA     ---       data_ptr
      01001B5DH   BLOCK     CODE     NEAR LAB  LVL=1
      00000007H   SYMBOL    DATA     BYTE      w2_status
      00000005H   SYMBOL    DATA     BYTE      ack_received
      ---         BLOCKEND  ---      ---       LVL=1
      01001B59H   LINE      CODE     ---       #445
      01001B5DH   LINE      CODE     ---       #456
      01001B64H   LINE      CODE     ---       #457
      01001B66H   LINE      CODE     ---       #458
      01001B69H   LINE      CODE     ---       #459
      01001B6DH   LINE      CODE     ---       #460
      01001B6DH   LINE      CODE     ---       #461
      01001B6FH   LINE      CODE     ---       #462
      01001B6FH   LINE      CODE     ---       #464
      01001B7DH   LINE      CODE     ---       #465
      01001B7DH   LINE      CODE     ---       #466
      01001B88H   LINE      CODE     ---       #467
      01001B88H   LINE      CODE     ---       #468
      01001B8EH   LINE      CODE     ---       #469
      01001B8EH   LINE      CODE     ---       #470
      01001B90H   LINE      CODE     ---       #471
      01001B90H   LINE      CODE     ---       #472
      01001B93H   LINE      CODE     ---       #473
      01001B9FH   LINE      CODE     ---       #474
      01001B9FH   LINE      CODE     ---       #475
      01001BA5H   LINE      CODE     ---       #476
      01001BA5H   LINE      CODE     ---       #477
      01001BA7H   LINE      CODE     ---       #478
      01001BA7H   LINE      CODE     ---       #479
      01001BA9H   LINE      CODE     ---       #480
      01001BA9H   LINE      CODE     ---       #481
      01001BA9H   LINE      CODE     ---       #482
      01001BA9H   LINE      CODE     ---       #483
      01001BACH   LINE      CODE     ---       #485
      01001BAEH   LINE      CODE     ---       #486
      ---         BLOCKEND  ---      ---       LVL=0

      ---         MODULE    ---      ---       HAL_DELAY
      01002003H   PUBLIC    CODE     ---       _delay_ms
      01001FCAH   PUBLIC    CODE     ---       _delay_us

      01001FBFH   BLOCK     CODE     ---       LVL=0
LX51 LINKER/LOCATER V4.66.62.0                                                        12/09/2016  09:53:08  PAGE 54


      ---         BLOCKEND  ---      ---       LVL=0

      01001FCAH   BLOCK     CODE     ---       LVL=0
      00000006H   SYMBOL    DATA     WORD      us
      01001FCAH   LINE      CODE     ---       #37
      01001FCAH   LINE      CODE     ---       #38
      01001FCAH   LINE      CODE     ---       #40
      01001FCAH   LINE      CODE     ---       #41
      01001FCBH   LINE      CODE     ---       #42
      01001FCCH   LINE      CODE     ---       #43
      01001FCDH   LINE      CODE     ---       #44
      01001FCEH   LINE      CODE     ---       #45
      01001FCFH   LINE      CODE     ---       #46
      01001FD8H   LINE      CODE     ---       #47
      ---         BLOCKEND  ---      ---       LVL=0

      01002003H   BLOCK     CODE     ---       LVL=0
      00000004H   SYMBOL    DATA     WORD      ms
      01002003H   LINE      CODE     ---       #49
      01002007H   LINE      CODE     ---       #50
      01002007H   LINE      CODE     ---       #52
      01002007H   LINE      CODE     ---       #53
      01002007H   LINE      CODE     ---       #54
      0100200AH   LINE      CODE     ---       #55
      0100200AH   LINE      CODE     ---       #56
      0100200DH   LINE      CODE     ---       #57
      01002016H   LINE      CODE     ---       #58
      ---         BLOCKEND  ---      ---       LVL=0

      ---         MODULE    ---      ---       ?C_INIT
      010017B5H   PUBLIC    CODE     ---       ?C_START

      ---         MODULE    ---      ---       ?C?CLDPTR
      0100077AH   PUBLIC    CODE     ---       ?C?CLDPTR

      ---         MODULE    ---      ---       ?C?CLDOPTR
      01000793H   PUBLIC    CODE     ---       ?C?CLDOPTR

      ---         MODULE    ---      ---       ?C?CSTPTR
      010007C0H   PUBLIC    CODE     ---       ?C?CSTPTR

      ---         MODULE    ---      ---       ?C?CSTOPTR
      010007D2H   PUBLIC    CODE     ---       ?C?CSTOPTR

      ---         MODULE    ---      ---       ?C?IILDX
      010007F4H   PUBLIC    CODE     ---       ?C?IILDX

      ---         MODULE    ---      ---       ?C?ILDIX
      0100080AH   PUBLIC    CODE     ---       ?C?ILDIX

      ---         MODULE    ---      ---       ?C?ILDPTR
      01000820H   PUBLIC    CODE     ---       ?C?ILDPTR

      ---         MODULE    ---      ---       ?C?ISTPTR
      0100084BH   PUBLIC    CODE     ---       ?C?ISTPTR

      ---         MODULE    ---      ---       ?C?ISTOPTR
      0100086AH   PUBLIC    CODE     ---       ?C?ISTOPTR

      ---         MODULE    ---      ---       ?C?PLDIIDATA
      01000897H   PUBLIC    CODE     ---       ?C?PLDIIDATA

      ---         MODULE    ---      ---       ?C?PLDXDATA
      010008A7H   PUBLIC    CODE     ---       ?C?PLDXDATA

LX51 LINKER/LOCATER V4.66.62.0                                                        12/09/2016  09:53:08  PAGE 55


      ---         MODULE    ---      ---       ?C?PSTXDATA
      010008B0H   PUBLIC    CODE     ---       ?C?PSTXDATA

      ---         MODULE    ---      ---       ?C?MEMCMP
      01000A3FH   PUBLIC    CODE     ---       ?C?MEMCMP

      ---         MODULE    ---      ---       MALLOC
      010016D2H   PUBLIC    CODE     ---       _MALLOC

      ---         MODULE    ---      ---       INIT_MEM
      02000372H   PUBLIC    XDATA    ---       __MEM_AVAIL__
      0100000EH   PUBLIC    CODE     ---       _INIT_MEMPOOL

      ---         MODULE    ---      ---       REALLOC
      0100187FH   PUBLIC    CODE     ---       _REALLOC

      ---         MODULE    ---      ---       FREE
      010011C8H   PUBLIC    CODE     ---       _FREE

      ---         MODULE    ---      ---       ?C?COPY
      01000B33H   PUBLIC    CODE     ---       ?C?COPY



*** WARNING L57: UNCALLED FUNCTION, IGNORED FOR OVERLAY PROCESS
    NAME:    UART_INIT/MAIN

*** WARNING L57: UNCALLED FUNCTION, IGNORED FOR OVERLAY PROCESS
    NAME:    _PUTSTRING/MAIN

*** WARNING L57: UNCALLED FUNCTION, IGNORED FOR OVERLAY PROCESS
    NAME:    _SEND_PACKET_TO_COMPUTER/MAIN

*** WARNING L57: UNCALLED FUNCTION, IGNORED FOR OVERLAY PROCESS
    NAME:    _SEND_PACKET_FROM_HOST_TO_COMPUTER/MAIN

*** WARNING L57: UNCALLED FUNCTION, IGNORED FOR OVERLAY PROCESS
    NAME:    GETXACCELOFFSET/MAIN

*** WARNING L57: UNCALLED FUNCTION, IGNORED FOR OVERLAY PROCESS
    NAME:    GETYACCELOFFSET/MAIN

*** WARNING L57: UNCALLED FUNCTION, IGNORED FOR OVERLAY PROCESS
    NAME:    GETZACCELOFFSET/MAIN

*** WARNING L57: UNCALLED FUNCTION, IGNORED FOR OVERLAY PROCESS
    NAME:    GETXGYROOFFSET/MAIN

*** WARNING L57: UNCALLED FUNCTION, IGNORED FOR OVERLAY PROCESS
    NAME:    GETYGYROOFFSET/MAIN

*** WARNING L57: UNCALLED FUNCTION, IGNORED FOR OVERLAY PROCESS
    NAME:    GETZGYROOFFSET/MAIN

*** WARNING L57: UNCALLED FUNCTION, IGNORED FOR OVERLAY PROCESS
    NAME:    _SETEXTERNALFRAMESYNC/MAIN

*** WARNING L57: UNCALLED FUNCTION, IGNORED FOR OVERLAY PROCESS
    NAME:    GETDMPCONFIG1/MAIN

*** WARNING L57: UNCALLED FUNCTION, IGNORED FOR OVERLAY PROCESS
    NAME:    GETDMPCONFIG2/MAIN

*** WARNING L57: UNCALLED FUNCTION, IGNORED FOR OVERLAY PROCESS
    NAME:    GETOTPBANKVALID/MAIN
LX51 LINKER/LOCATER V4.66.62.0                                                        12/09/2016  09:53:08  PAGE 56



*** WARNING L57: UNCALLED FUNCTION, IGNORED FOR OVERLAY PROCESS
    NAME:    _SETXGYROOFFSETTC/MAIN

*** WARNING L57: UNCALLED FUNCTION, IGNORED FOR OVERLAY PROCESS
    NAME:    _SETYGYROOFFSETTC/MAIN

*** WARNING L57: UNCALLED FUNCTION, IGNORED FOR OVERLAY PROCESS
    NAME:    _SETZGYROOFFSETTC/MAIN

*** WARNING L57: UNCALLED FUNCTION, IGNORED FOR OVERLAY PROCESS
    NAME:    GETMOTIONDETECTIONTHRESHOLD/MAIN

*** WARNING L57: UNCALLED FUNCTION, IGNORED FOR OVERLAY PROCESS
    NAME:    GETZEROMOTIONDETECTIONTHRESHOLD/MAIN

*** WARNING L57: UNCALLED FUNCTION, IGNORED FOR OVERLAY PROCESS
    NAME:    GETMOTIONDETECTIONDURATION/MAIN

*** WARNING L57: UNCALLED FUNCTION, IGNORED FOR OVERLAY PROCESS
    NAME:    GETZEROMOTIONDETECTIONDURATION/MAIN

*** WARNING L57: UNCALLED FUNCTION, IGNORED FOR OVERLAY PROCESS
    NAME:    GETFIFOENABLED/MAIN

*** WARNING L57: UNCALLED FUNCTION, IGNORED FOR OVERLAY PROCESS
    NAME:    _DMPGETQUATERNION_INT16/MAIN

*** WARNING L57: UNCALLED FUNCTION, IGNORED FOR OVERLAY PROCESS
    NAME:    _HAL_W2_RESPOND_TO_GEN_ADR/HAL_W2_ISR

*** WARNING L57: UNCALLED FUNCTION, IGNORED FOR OVERLAY PROCESS
    NAME:    _HAL_W2_ALTER_CLOCK/HAL_W2_ISR

*** WARNING L57: UNCALLED FUNCTION, IGNORED FOR OVERLAY PROCESS
    NAME:    _HAL_W2_IRQ_STOP_COND_ENABLE/HAL_W2_ISR

*** WARNING L57: UNCALLED FUNCTION, IGNORED FOR OVERLAY PROCESS
    NAME:    _HAL_W2_IRQ_ADR_MATCH_ENABLE/HAL_W2_ISR

*** WARNING L57: UNCALLED FUNCTION, IGNORED FOR OVERLAY PROCESS
    NAME:    _HAL_W2_SET_SLAVE_ADDRESS/HAL_W2_ISR

*** WARNING L57: UNCALLED FUNCTION, IGNORED FOR OVERLAY PROCESS
    NAME:    HAL_W2_WAIT_DATA_READY/HAL_W2_ISR

*** WARNING L57: UNCALLED FUNCTION, IGNORED FOR OVERLAY PROCESS
    NAME:    _HAL_W2_WRITE/HAL_W2_ISR

*** WARNING L57: UNCALLED FUNCTION, IGNORED FOR OVERLAY PROCESS
    NAME:    _HAL_W2_READ/HAL_W2_ISR

Program Size: data=82.1 xdata=896 const=3066 code=9204
LX51 RUN COMPLETE.  31 WARNING(S),  0 ERROR(S)
