BL51 BANKED LINKER/LOCATER V6.22                                                        10/03/2016  09:36:41  PAGE 1


BL51 BANKED LINKER/LOCATER V6.22, INVOKED BY:
C:\KEIL_V5\C51\BIN\BL51.EXE ..\Objects\STARTUP.obj, ..\Objects\receptor.obj TO ..\Objects\receptor PRINT (.\Listings\rec
>> eptor.m51) RAMSIZE (256)


MEMORY MODEL: SMALL


INPUT MODULES INCLUDED:
  ..\Objects\STARTUP.obj (?C_STARTUP)
  ..\Objects\receptor.obj (RECEPTOR)
  C:\KEIL_V5\C51\LIB\C51S.LIB (?C_INIT)
  C:\KEIL_V5\C51\LIB\C51S.LIB (?C?CLDPTR)
  C:\KEIL_V5\C51\LIB\C51S.LIB (?C?CSTOPTR)


LINK MAP OF MODULE:  ..\Objects\receptor (?C_STARTUP)


            TYPE    BASE      LENGTH    RELOCATION   SEGMENT NAME
            -----------------------------------------------------

            * * * * * * *   D A T A   M E M O R Y   * * * * * * *
            REG     0000H     0008H     ABSOLUTE     "REG BANK 0"
            DATA    0008H     000EH     UNIT         _DATA_GROUP_
                    0016H     000AH                  *** GAP ***
            DATA    0020H     0001H     BIT_ADDR     ?BA?RECEPTOR
            BIT     0021H.0   0000H.1   UNIT         ?BI?RECEPTOR
                    0021H.1   0000H.7                *** GAP ***
            DATA    0022H     003CH     UNIT         ?DT?RECEPTOR
            IDATA   005EH     0001H     UNIT         ?STACK

            * * * * * * *   C O D E   M E M O R Y   * * * * * * *
            CODE    0000H     0003H     ABSOLUTE     
                    0003H     0048H                  *** GAP ***
            CODE    004BH     0003H     ABSOLUTE     
                    004EH     07B2H                  *** GAP ***
            CODE    0800H     0096H     UNIT         ?PR?MAIN?RECEPTOR
            CODE    0896H     008CH     UNIT         ?C_C51STARTUP
            CODE    0922H     0086H     UNIT         ?PR?RF_IRQ?RECEPTOR
            CODE    09A8H     0046H     UNIT         ?PR?RF_INIT?RECEPTOR
            CODE    09EEH     003EH     UNIT         ?CO?RECEPTOR
            CODE    0A2CH     003DH     UNIT         ?PR?_SPI_WRITE_BUF?RECEPTOR
            CODE    0A69H     003BH     UNIT         ?C?LIB_CODE
            CODE    0AA4H     0031H     UNIT         ?PR?_SPI_READ_BUF?RECEPTOR
            CODE    0AD5H     002DH     UNIT         ?PR?SETUP?RECEPTOR
            CODE    0B02H     0027H     UNIT         ?PR?_TX_MODE_NOACK?RECEPTOR
            CODE    0B29H     0025H     UNIT         ?PR?_PUTSTRING?RECEPTOR
            CODE    0B4EH     0025H     UNIT         ?PR?_DELAY_MS?RECEPTOR
            CODE    0B73H     001EH     UNIT         ?PR?LUZES_INICIAIS?RECEPTOR
            CODE    0B91H     001AH     UNIT         ?PR?UART_INIT?RECEPTOR
            CODE    0BABH     0013H     UNIT         ?PR?_SPI_RW_REG?RECEPTOR
            CODE    0BBEH     0011H     UNIT         ?PR?RX_MODE?RECEPTOR
            CODE    0BCFH     000DH     UNIT         ?PR?_SPI_READ?RECEPTOR
            CODE    0BDCH     000DH     UNIT         ?C_INITSEG
            CODE    0BE9H     000AH     UNIT         ?PR?_SPI_RW?RECEPTOR
            CODE    0BF3H     0008H     UNIT         ?PR?_UART_PUTCHAR?RECEPTOR

BL51 BANKED LINKER/LOCATER V6.22                                                      10/03/2016  09:36:41  PAGE 2




OVERLAY MAP OF MODULE:   ..\Objects\receptor (?C_STARTUP)


SEGMENT                               DATA_GROUP 
  +--> CALLED SEGMENT               START    LENGTH
---------------------------------------------------
?C_C51STARTUP                       -----    -----
  +--> ?PR?MAIN?RECEPTOR
  +--> ?C_INITSEG

?PR?MAIN?RECEPTOR                   0008H    0002H
  +--> ?PR?SETUP?RECEPTOR
  +--> ?PR?_TX_MODE_NOACK?RECEPTOR
  +--> ?PR?RX_MODE?RECEPTOR
  +--> ?CO?RECEPTOR
  +--> ?PR?_PUTSTRING?RECEPTOR
  +--> ?PR?_DELAY_MS?RECEPTOR
  +--> ?PR?_UART_PUTCHAR?RECEPTOR

?PR?SETUP?RECEPTOR                  -----    -----
  +--> ?PR?RF_INIT?RECEPTOR
  +--> ?PR?UART_INIT?RECEPTOR
  +--> ?PR?RX_MODE?RECEPTOR
  +--> ?PR?LUZES_INICIAIS?RECEPTOR
  +--> ?CO?RECEPTOR
  +--> ?PR?_PUTSTRING?RECEPTOR

?PR?RF_INIT?RECEPTOR                -----    -----
  +--> ?PR?_SPI_WRITE_BUF?RECEPTOR
  +--> ?PR?_SPI_RW_REG?RECEPTOR

?PR?_SPI_WRITE_BUF?RECEPTOR         000CH    0005H
  +--> ?PR?_SPI_RW?RECEPTOR

?PR?_SPI_RW_REG?RECEPTOR            -----    -----
  +--> ?PR?_SPI_RW?RECEPTOR

?PR?RX_MODE?RECEPTOR                -----    -----
  +--> ?PR?_SPI_RW_REG?RECEPTOR

?PR?LUZES_INICIAIS?RECEPTOR         -----    -----
  +--> ?PR?_DELAY_MS?RECEPTOR

?PR?_PUTSTRING?RECEPTOR             000AH    0003H
  +--> ?PR?_UART_PUTCHAR?RECEPTOR

?PR?_TX_MODE_NOACK?RECEPTOR         000AH    0002H
  +--> ?PR?_SPI_RW_REG?RECEPTOR
  +--> ?PR?_SPI_WRITE_BUF?RECEPTOR

*** NEW ROOT ***************************************************

?PR?RF_IRQ?RECEPTOR                 -----    -----
  +--> ?PR?_SPI_READ?RECEPTOR
  +--> ?PR?_SPI_READ_BUF?RECEPTOR
BL51 BANKED LINKER/LOCATER V6.22                                                      10/03/2016  09:36:41  PAGE 3


  +--> ?PR?_SPI_RW_REG?RECEPTOR

?PR?_SPI_READ?RECEPTOR              -----    -----
  +--> ?PR?_SPI_RW?RECEPTOR

?PR?_SPI_READ_BUF?RECEPTOR          0011H    0005H
  +--> ?PR?_SPI_RW?RECEPTOR



SYMBOL TABLE OF MODULE:  ..\Objects\receptor (?C_STARTUP)

  VALUE           TYPE          NAME
  ----------------------------------

  -------         MODULE        ?C_STARTUP
  C:0896H         SEGMENT       ?C_C51STARTUP
  I:005EH         SEGMENT       ?STACK
  C:0000H         PUBLIC        ?C_STARTUP
  D:00E0H         SYMBOL        ACC
  D:00F0H         SYMBOL        B
  D:0083H         SYMBOL        DPH
  D:0082H         SYMBOL        DPL
  N:0000H         SYMBOL        IBPSTACK
  N:0100H         SYMBOL        IBPSTACKTOP
  N:0080H         SYMBOL        IDATALEN
  C:0899H         SYMBOL        IDATALOOP
  N:0000H         SYMBOL        PBPSTACK
  N:0100H         SYMBOL        PBPSTACKTOP
  N:0000H         SYMBOL        PDATALEN
  N:0000H         SYMBOL        PDATASTART
  N:0000H         SYMBOL        PPAGE
  N:0000H         SYMBOL        PPAGEENABLE
  D:00A0H         SYMBOL        PPAGE_SFR
  D:0081H         SYMBOL        SP
  C:0896H         SYMBOL        STARTUP1
  N:0000H         SYMBOL        XBPSTACK
  N:0000H         SYMBOL        XBPSTACKTOP
  N:0000H         SYMBOL        XDATALEN
  N:0000H         SYMBOL        XDATASTART
  C:0000H         LINE#         126
  C:0896H         LINE#         133
  C:0898H         LINE#         134
  C:0899H         LINE#         135
  C:089AH         LINE#         136
  C:089CH         LINE#         185
  C:089FH         LINE#         196
  -------         ENDMOD        ?C_STARTUP

  -------         MODULE        RECEPTOR
  C:0000H         SYMBOL        _ICE_DUMMY_
  D:0080H         PUBLIC        P0
  D:0090H         PUBLIC        P1
  D:00A0H         PUBLIC        P2
  D:00B0H         PUBLIC        P3
  B:0080H.2       PUBLIC        S1
  B:0090H.4       PUBLIC        S2
BL51 BANKED LINKER/LOCATER V6.22                                                      10/03/2016  09:36:41  PAGE 4


  B:00A8H.7       PUBLIC        EA
  D:0022H         PUBLIC        rx_buf
  D:003DH         PUBLIC        tx_buf
  D:00A8H         PUBLIC        IEN0
  D:00B8H         PUBLIC        IEN1
  C:0BBEH         PUBLIC        RX_Mode
  B:0098H.4       PUBLIC        REN0
  B:00B8H.1       PUBLIC        RF
  D:00E7H         PUBLIC        SPIRDAT
  C:0BF3H         PUBLIC        _uart_putchar
  B:0021H.0       PUBLIC        newPayload
  B:0020H.6       PUBLIC        RX_DR
  B:00E8H.0       PUBLIC        RFCE
  B:0020H.5       PUBLIC        TX_DS
  C:0800H         PUBLIC        main
  D:00BAH         PUBLIC        S0RELH
  D:0087H         PUBLIC        PCON
  C:0AD5H         PUBLIC        setup
  D:00AAH         PUBLIC        S0RELL
  D:0088H         PUBLIC        TCON
  B:00E8H.2       PUBLIC        RFCKEN
  D:0058H         PUBLIC        ADDR_HOST
  B:00A8H.4       PUBLIC        ES0
  D:0020H         PUBLIC        sta
  C:0AA4H         PUBLIC        _SPI_Read_Buf
  C:0BCFH         PUBLIC        _SPI_Read
  B:0098H.1       PUBLIC        TI0
  B:0098H.7       PUBLIC        SM0
  B:0098H.6       PUBLIC        SM1
  C:0B52H         PUBLIC        _delay_ms
  C:0B91H         PUBLIC        uart_init
  C:0A37H         PUBLIC        _SPI_Write_Buf
  D:0093H         PUBLIC        P0DIR
  D:009EH         PUBLIC        P0CON
  D:0099H         PUBLIC        S0BUF
  D:0094H         PUBLIC        P1DIR
  C:0B02H         PUBLIC        _TX_Mode_NOACK
  D:009FH         PUBLIC        P1CON
  D:0095H         PUBLIC        P2DIR
  D:0097H         PUBLIC        P2CON
  D:0098H         PUBLIC        S0CON
  C:0B73H         PUBLIC        luzes_iniciais
  C:0922H         PUBLIC        RF_IRQ
  D:00D8H         PUBLIC        ADCON
  D:00C8H         PUBLIC        T2CON
  D:00F8H         PUBLIC        FSR
  B:0020H.4       PUBLIC        MAX_RT
  C:09A8H         PUBLIC        rf_init
  B:0080H.6       PUBLIC        LEDVD
  D:005DH         PUBLIC        payloadWidth
  C:0B29H         PUBLIC        _putstring
  C:0BABH         PUBLIC        _SPI_RW_Reg
  C:0BE9H         PUBLIC        _SPI_RW
  D:00E8H         PUBLIC        RFCON
  D:00D0H         PUBLIC        PSW
  D:00C0H         PUBLIC        IRCON
  B:00E8H.1       PUBLIC        RFCSN
BL51 BANKED LINKER/LOCATER V6.22                                                      10/03/2016  09:36:41  PAGE 5


  D:00E6H         PUBLIC        SPIRSTAT
  -------         PROC          _SPI_RW
  D:0007H         SYMBOL        value
  C:0BE9H         LINE#         29
  C:0BE9H         LINE#         30
  C:0BE9H         LINE#         31
  C:0BEBH         LINE#         33
  C:0BF0H         LINE#         35
  C:0BF2H         LINE#         36
  -------         ENDPROC       _SPI_RW
  -------         PROC          _SPI_RW_REG
  D:0007H         SYMBOL        reg
  D:0006H         SYMBOL        value
  -------         DO            
  D:0005H         SYMBOL        status
  -------         ENDDO         
  C:0BABH         LINE#         38
  C:0BADH         LINE#         39
  C:0BADH         LINE#         42
  C:0BAFH         LINE#         43
  C:0BB4H         LINE#         44
  C:0BB9H         LINE#         45
  C:0BBBH         LINE#         47
  C:0BBDH         LINE#         48
  -------         ENDPROC       _SPI_RW_REG
  -------         PROC          _SPI_READ
  D:0007H         SYMBOL        reg
  -------         DO            
  D:0007H         SYMBOL        reg_val
  -------         ENDDO         
  C:0BCFH         LINE#         50
  C:0BCFH         LINE#         51
  C:0BCFH         LINE#         54
  C:0BD1H         LINE#         55
  C:0BD4H         LINE#         56
  C:0BD9H         LINE#         57
  C:0BDBH         LINE#         59
  C:0BDBH         LINE#         60
  -------         ENDPROC       _SPI_READ
  -------         PROC          _SPI_READ_BUF
  D:0007H         SYMBOL        reg
  D:0012H         SYMBOL        pBuf
  D:0015H         SYMBOL        bytes
  -------         DO            
  D:0006H         SYMBOL        status
  D:0005H         SYMBOL        byte_ctr
  -------         ENDDO         
  C:0AA4H         LINE#         62
  C:0AAAH         LINE#         63
  C:0AAAH         LINE#         66
  C:0AACH         LINE#         67
  C:0AB1H         LINE#         69
  C:0AB9H         LINE#         70
  C:0AD0H         LINE#         72
  C:0AD2H         LINE#         74
  C:0AD4H         LINE#         75
  -------         ENDPROC       _SPI_READ_BUF
BL51 BANKED LINKER/LOCATER V6.22                                                      10/03/2016  09:36:41  PAGE 6


  -------         PROC          L?0062
  -------         ENDPROC       L?0062
  -------         PROC          _SPI_WRITE_BUF
  D:0007H         SYMBOL        reg
  D:000DH         SYMBOL        pBuf
  D:0010H         SYMBOL        bytes
  -------         DO            
  D:0006H         SYMBOL        status
  D:0005H         SYMBOL        byte_ctr
  -------         ENDDO         
  C:0A37H         LINE#         77
  C:0A3DH         LINE#         78
  C:0A3DH         LINE#         81
  C:0A3FH         LINE#         82
  C:0A44H         LINE#         83
  C:0A4CH         LINE#         84
  C:0A64H         LINE#         85
  C:0A66H         LINE#         86
  C:0A68H         LINE#         87
  -------         ENDPROC       _SPI_WRITE_BUF
  -------         PROC          RX_MODE
  C:0BBEH         LINE#         90
  C:0BBEH         LINE#         91
  C:0BBEH         LINE#         92
  C:0BC1H         LINE#         93
  C:0BC3H         LINE#         94
  C:0BC5H         LINE#         95
  C:0BCCH         LINE#         96
  C:0BCEH         LINE#         97
  -------         ENDPROC       RX_MODE
  -------         PROC          _TX_MODE_NOACK
  D:000AH         SYMBOL        payloadLength
  C:0B02H         LINE#         99
  C:0B06H         LINE#         100
  C:0B06H         LINE#         101
  C:0B08H         LINE#         102
  C:0B0FH         LINE#         103
  C:0B12H         LINE#         104
  C:0B20H         LINE#         106
  C:0B22H         LINE#         107
  C:0B28H         LINE#         108
  -------         ENDPROC       _TX_MODE_NOACK
  -------         PROC          RF_IRQ
  C:0922H         LINE#         111
  C:093BH         LINE#         113
  C:0942H         LINE#         114
  C:0945H         LINE#         115
  C:0945H         LINE#         116
  C:0953H         LINE#         117
  C:095AH         LINE#         118
  C:095CH         LINE#         119
  C:0963H         LINE#         120
  C:096AH         LINE#         121
  C:096AH         LINE#         122
  C:096DH         LINE#         123
  C:0974H         LINE#         124
  C:0976H         LINE#         125
BL51 BANKED LINKER/LOCATER V6.22                                                      10/03/2016  09:36:41  PAGE 7


  C:0976H         LINE#         126
  C:0976H         LINE#         127
  C:0979H         LINE#         128
  C:0980H         LINE#         129
  C:0983H         LINE#         130
  C:098AH         LINE#         132
  C:0991H         LINE#         133
  -------         ENDPROC       RF_IRQ
  -------         PROC          RF_INIT
  C:09A8H         LINE#         136
  C:09A8H         LINE#         137
  C:09A8H         LINE#         138
  C:09AAH         LINE#         139
  C:09ACH         LINE#         141
  C:09BAH         LINE#         142
  C:09BDH         LINE#         143
  C:09C4H         LINE#         145
  C:09CBH         LINE#         146
  C:09D2H         LINE#         147
  C:09D9H         LINE#         148
  C:09E0H         LINE#         150
  C:09E7H         LINE#         151
  -------         ENDPROC       RF_INIT
  -------         PROC          LUZES_INICIAIS
  C:0B73H         LINE#         38
  C:0B73H         LINE#         39
  C:0B75H         LINE#         40
  C:0B7CH         LINE#         41
  C:0B7EH         LINE#         42
  C:0B85H         LINE#         43
  C:0B87H         LINE#         44
  C:0B8EH         LINE#         45
  C:0B90H         LINE#         46
  -------         ENDPROC       LUZES_INICIAIS
  -------         PROC          SETUP
  C:0AD5H         LINE#         48
  C:0AD5H         LINE#         50
  C:0AD8H         LINE#         51
  C:0ADBH         LINE#         52
  C:0ADEH         LINE#         53
  C:0AE1H         LINE#         54
  C:0AE3H         LINE#         55
  C:0AE5H         LINE#         58
  C:0AE7H         LINE#         59
  C:0AE9H         LINE#         60
  C:0AEBH         LINE#         62
  C:0AEEH         LINE#         64
  C:0AF1H         LINE#         67
  C:0AF3H         LINE#         68
  C:0AF6H         LINE#         69
  C:0AF9H         LINE#         70
  -------         ENDPROC       SETUP
  -------         PROC          MAIN
  -------         DO            
  D:0008H         SYMBOL        i
  -------         ENDDO         
  C:0800H         LINE#         72
BL51 BANKED LINKER/LOCATER V6.22                                                      10/03/2016  09:36:41  PAGE 8


  C:0800H         LINE#         73
  C:0803H         LINE#         79
  C:0803H         LINE#         80
  C:0806H         LINE#         82
  C:0809H         LINE#         83
  C:080CH         LINE#         85
  C:0813H         LINE#         86
  C:0816H         LINE#         87
  C:081FH         LINE#         88
  C:0822H         LINE#         89
  C:0825H         LINE#         90
  C:0828H         LINE#         91
  C:0828H         LINE#         92
  C:082BH         LINE#         94
  C:082EH         LINE#         95
  C:0831H         LINE#         97
  C:0838H         LINE#         98
  C:083BH         LINE#         99
  C:0844H         LINE#         100
  C:0847H         LINE#         101
  C:084AH         LINE#         102
  C:084DH         LINE#         103
  C:084DH         LINE#         104
  C:0850H         LINE#         106
  C:0859H         LINE#         107
  C:0859H         LINE#         108
  C:085EH         LINE#         109
  C:0871H         LINE#         110
  C:087BH         LINE#         111
  C:0885H         LINE#         112
  C:088AH         LINE#         113
  C:088CH         LINE#         114
  C:088CH         LINE#         115
  C:088EH         LINE#         116
  C:088EH         LINE#         117
  C:088EH         LINE#         119
  C:0891H         LINE#         120
  C:0893H         LINE#         121
  C:0893H         LINE#         122
  -------         ENDPROC       MAIN
  -------         PROC          UART_INIT
  C:0B91H         LINE#         127
  C:0B91H         LINE#         128
  C:0B91H         LINE#         129
  C:0B93H         LINE#         130
  C:0B95H         LINE#         131
  C:0B97H         LINE#         132
  C:0B99H         LINE#         133
  C:0B9CH         LINE#         134
  C:0B9FH         LINE#         136
  C:0BA2H         LINE#         137
  C:0BA5H         LINE#         138
  C:0BA7H         LINE#         139
  C:0BAAH         LINE#         140
  -------         ENDPROC       UART_INIT
  -------         PROC          _UART_PUTCHAR
  D:0007H         SYMBOL        x
BL51 BANKED LINKER/LOCATER V6.22                                                      10/03/2016  09:36:41  PAGE 9


  C:0BF3H         LINE#         142
  C:0BF3H         LINE#         143
  C:0BF3H         LINE#         144
  C:0BF6H         LINE#         145
  C:0BF8H         LINE#         146
  C:0BFAH         LINE#         147
  -------         ENDPROC       _UART_PUTCHAR
  -------         PROC          _PUTSTRING
  D:000AH         SYMBOL        s
  C:0B29H         LINE#         151
  C:0B2FH         LINE#         152
  C:0B2FH         LINE#         153
  C:0B3AH         LINE#         154
  C:0B4DH         LINE#         155
  -------         ENDPROC       _PUTSTRING
  C:0B4EH         SYMBOL        L?0061
  -------         PROC          L?0060
  -------         ENDPROC       L?0060
  C:0B4EH         SYMBOL        L?0061
  -------         PROC          _DELAY_MS
  D:0006H         SYMBOL        x
  -------         DO            
  D:0004H         SYMBOL        i
  D:0002H         SYMBOL        j
  -------         ENDDO         
  C:0B52H         LINE#         157
  C:0B52H         LINE#         158
  C:0B52H         LINE#         160
  C:0B55H         LINE#         161
  C:0B5CH         LINE#         162
  C:0B5CH         LINE#         163
  C:0B60H         LINE#         165
  C:0B6BH         LINE#         166
  C:0B72H         LINE#         167
  -------         ENDPROC       _DELAY_MS
  -------         ENDMOD        RECEPTOR

  -------         MODULE        ?C?CLDPTR
  C:0A69H         PUBLIC        ?C?CLDPTR
  -------         ENDMOD        ?C?CLDPTR

  -------         MODULE        ?C?CSTOPTR
  C:0A82H         PUBLIC        ?C?CSTOPTR
  -------         ENDMOD        ?C?CSTOPTR

******************************************************************************
* RESTRICTED VERSION WITH 0800H BYTE CODE SIZE LIMIT; USED: 0345H BYTE (40%) *
******************************************************************************

Program Size: data=84.1 xdata=0 code=1025
LINK/LOCATE RUN COMPLETE.  0 WARNING(S),  0 ERROR(S)
